
Det_Intelligente_Hus.elf:     file format elf32-avr

Sections:
Idx Name          Size      VMA       LMA       File off  Algn
  0 .data         00000136  00800200  00005a8c  00005b20  2**0
                  CONTENTS, ALLOC, LOAD, DATA
  1 .text         00005a8c  00000000  00000000  00000094  2**1
                  CONTENTS, ALLOC, LOAD, READONLY, CODE
  2 .bss          000002de  00800336  00800336  00005c56  2**0
                  ALLOC
  3 .comment      00000030  00000000  00000000  00005c56  2**0
                  CONTENTS, READONLY
  4 .note.gnu.avr.deviceinfo 00000040  00000000  00000000  00005c88  2**2
                  CONTENTS, READONLY
  5 .debug_aranges 00001110  00000000  00000000  00005cc8  2**0
                  CONTENTS, READONLY, DEBUGGING
  6 .debug_info   00029f0d  00000000  00000000  00006dd8  2**0
                  CONTENTS, READONLY, DEBUGGING
  7 .debug_abbrev 00005e7d  00000000  00000000  00030ce5  2**0
                  CONTENTS, READONLY, DEBUGGING
  8 .debug_line   0000b787  00000000  00000000  00036b62  2**0
                  CONTENTS, READONLY, DEBUGGING
  9 .debug_frame  000048a8  00000000  00000000  000422ec  2**2
                  CONTENTS, READONLY, DEBUGGING
 10 .debug_str    00007dcd  00000000  00000000  00046b94  2**0
                  CONTENTS, READONLY, DEBUGGING
 11 .debug_loc    000216c2  00000000  00000000  0004e961  2**0
                  CONTENTS, READONLY, DEBUGGING
 12 .debug_ranges 00001540  00000000  00000000  00070023  2**0
                  CONTENTS, READONLY, DEBUGGING

Disassembly of section .text:

00000000 <__vectors>:
       0:	20 c6       	rjmp	.+3136   	; 0xc42 <__dtors_end>
       2:	00 00       	nop
       4:	4f c6       	rjmp	.+3230   	; 0xca4 <__bad_interrupt>
       6:	00 00       	nop
       8:	4d c6       	rjmp	.+3226   	; 0xca4 <__bad_interrupt>
       a:	00 00       	nop
       c:	4b c6       	rjmp	.+3222   	; 0xca4 <__bad_interrupt>
       e:	00 00       	nop
      10:	49 c6       	rjmp	.+3218   	; 0xca4 <__bad_interrupt>
      12:	00 00       	nop
      14:	47 c6       	rjmp	.+3214   	; 0xca4 <__bad_interrupt>
      16:	00 00       	nop
      18:	45 c6       	rjmp	.+3210   	; 0xca4 <__bad_interrupt>
      1a:	00 00       	nop
      1c:	43 c6       	rjmp	.+3206   	; 0xca4 <__bad_interrupt>
      1e:	00 00       	nop
      20:	41 c6       	rjmp	.+3202   	; 0xca4 <__bad_interrupt>
      22:	00 00       	nop
      24:	3f c6       	rjmp	.+3198   	; 0xca4 <__bad_interrupt>
      26:	00 00       	nop
      28:	3d c6       	rjmp	.+3194   	; 0xca4 <__bad_interrupt>
      2a:	00 00       	nop
      2c:	3b c6       	rjmp	.+3190   	; 0xca4 <__bad_interrupt>
      2e:	00 00       	nop
      30:	39 c6       	rjmp	.+3186   	; 0xca4 <__bad_interrupt>
      32:	00 00       	nop
      34:	37 c6       	rjmp	.+3182   	; 0xca4 <__bad_interrupt>
      36:	00 00       	nop
      38:	35 c6       	rjmp	.+3178   	; 0xca4 <__bad_interrupt>
      3a:	00 00       	nop
      3c:	33 c6       	rjmp	.+3174   	; 0xca4 <__bad_interrupt>
      3e:	00 00       	nop
      40:	31 c6       	rjmp	.+3170   	; 0xca4 <__bad_interrupt>
      42:	00 00       	nop
      44:	0c 94 76 1f 	jmp	0x3eec	; 0x3eec <__vector_17>
      48:	2d c6       	rjmp	.+3162   	; 0xca4 <__bad_interrupt>
      4a:	00 00       	nop
      4c:	2b c6       	rjmp	.+3158   	; 0xca4 <__bad_interrupt>
      4e:	00 00       	nop
      50:	0c 94 5c 20 	jmp	0x40b8	; 0x40b8 <__vector_20>
      54:	27 c6       	rjmp	.+3150   	; 0xca4 <__bad_interrupt>
      56:	00 00       	nop
      58:	25 c6       	rjmp	.+3146   	; 0xca4 <__bad_interrupt>
      5a:	00 00       	nop
      5c:	0c 94 37 27 	jmp	0x4e6e	; 0x4e6e <__vector_23>
      60:	21 c6       	rjmp	.+3138   	; 0xca4 <__bad_interrupt>
      62:	00 00       	nop
      64:	0c 94 f8 25 	jmp	0x4bf0	; 0x4bf0 <__vector_25>
      68:	0c 94 2e 26 	jmp	0x4c5c	; 0x4c5c <__vector_26>
      6c:	1b c6       	rjmp	.+3126   	; 0xca4 <__bad_interrupt>
      6e:	00 00       	nop
      70:	19 c6       	rjmp	.+3122   	; 0xca4 <__bad_interrupt>
      72:	00 00       	nop
      74:	17 c6       	rjmp	.+3118   	; 0xca4 <__bad_interrupt>
      76:	00 00       	nop
      78:	15 c6       	rjmp	.+3114   	; 0xca4 <__bad_interrupt>
      7a:	00 00       	nop
      7c:	13 c6       	rjmp	.+3110   	; 0xca4 <__bad_interrupt>
      7e:	00 00       	nop
      80:	0c 94 a2 1f 	jmp	0x3f44	; 0x3f44 <__vector_32>
      84:	0f c6       	rjmp	.+3102   	; 0xca4 <__bad_interrupt>
      86:	00 00       	nop
      88:	0d c6       	rjmp	.+3098   	; 0xca4 <__bad_interrupt>
      8a:	00 00       	nop
      8c:	0c 94 87 20 	jmp	0x410e	; 0x410e <__vector_35>
      90:	09 c6       	rjmp	.+3090   	; 0xca4 <__bad_interrupt>
      92:	00 00       	nop
      94:	07 c6       	rjmp	.+3086   	; 0xca4 <__bad_interrupt>
      96:	00 00       	nop
      98:	05 c6       	rjmp	.+3082   	; 0xca4 <__bad_interrupt>
      9a:	00 00       	nop
      9c:	0c 94 5d 22 	jmp	0x44ba	; 0x44ba <__vector_39>
      a0:	01 c6       	rjmp	.+3074   	; 0xca4 <__bad_interrupt>
      a2:	00 00       	nop
      a4:	ff c5       	rjmp	.+3070   	; 0xca4 <__bad_interrupt>
      a6:	00 00       	nop
      a8:	0c 94 ce 1f 	jmp	0x3f9c	; 0x3f9c <__vector_42>
      ac:	fb c5       	rjmp	.+3062   	; 0xca4 <__bad_interrupt>
      ae:	00 00       	nop
      b0:	f9 c5       	rjmp	.+3058   	; 0xca4 <__bad_interrupt>
      b2:	00 00       	nop
      b4:	f7 c5       	rjmp	.+3054   	; 0xca4 <__bad_interrupt>
      b6:	00 00       	nop
      b8:	f5 c5       	rjmp	.+3050   	; 0xca4 <__bad_interrupt>
      ba:	00 00       	nop
      bc:	0c 94 fa 1f 	jmp	0x3ff4	; 0x3ff4 <__vector_47>
      c0:	f1 c5       	rjmp	.+3042   	; 0xca4 <__bad_interrupt>
      c2:	00 00       	nop
      c4:	ef c5       	rjmp	.+3038   	; 0xca4 <__bad_interrupt>
      c6:	00 00       	nop
      c8:	ed c5       	rjmp	.+3034   	; 0xca4 <__bad_interrupt>
      ca:	00 00       	nop
      cc:	eb c5       	rjmp	.+3030   	; 0xca4 <__bad_interrupt>
      ce:	00 00       	nop
      d0:	e9 c5       	rjmp	.+3026   	; 0xca4 <__bad_interrupt>
      d2:	00 00       	nop
      d4:	e7 c5       	rjmp	.+3022   	; 0xca4 <__bad_interrupt>
      d6:	00 00       	nop
      d8:	e5 c5       	rjmp	.+3018   	; 0xca4 <__bad_interrupt>
      da:	00 00       	nop
      dc:	e3 c5       	rjmp	.+3014   	; 0xca4 <__bad_interrupt>
      de:	00 00       	nop
      e0:	e1 c5       	rjmp	.+3010   	; 0xca4 <__bad_interrupt>
      e2:	00 00       	nop
      e4:	72 28       	or	r7, r2
      e6:	75 28       	or	r7, r5
      e8:	64 28       	or	r6, r4
      ea:	68 28       	or	r6, r8
      ec:	6e 28       	or	r6, r14
      ee:	ac 28       	or	r10, r12
      f0:	79 28       	or	r7, r9
      f2:	7d 28       	or	r7, r13
      f4:	83 28       	or	r8, r3
      f6:	87 28       	or	r8, r7
      f8:	8b 28       	or	r8, r11
      fa:	91 28       	or	r9, r1
      fc:	95 28       	or	r9, r5
      fe:	99 28       	or	r9, r9
     100:	ac 28       	or	r10, r12
     102:	9f 28       	or	r9, r15
     104:	a3 28       	or	r10, r3
     106:	a7 28       	or	r10, r7

00000108 <__trampolines_end>:
     108:	53 53       	subi	r21, 0x33	; 51
     10a:	44 31       	cpi	r20, 0x14	; 20
     10c:	33 30       	cpi	r19, 0x03	; 3
     10e:	36 20       	and	r3, r6
     110:	61 6c       	ori	r22, 0xC1	; 193
     112:	6c 6f       	ori	r22, 0xFC	; 252
     114:	63 61       	ori	r22, 0x13	; 19
     116:	74 69       	ori	r23, 0x94	; 148
     118:	6f 6e       	ori	r22, 0xEF	; 239
     11a:	20 66       	ori	r18, 0x60	; 96
     11c:	61 69       	ori	r22, 0x91	; 145
     11e:	6c 65       	ori	r22, 0x5C	; 92
     120:	64 00       	.word	0x0064	; ????

00000122 <_ZZ11DisplayMenuvE3__c_3>:
     122:	41 3a 20 48 75 6d 69 64 69 74 79 00                 A: Humidity.

0000012e <_ZZ11DisplayMenuvE3__c_2>:
     12e:	43 3a 20 54 65 6d 70 72 65 74 75 72 65 00           C: Tempreture.

0000013c <_ZZ11DisplayMenuvE3__c_1>:
     13c:	42 3a 20 44 61 74 65 00                             B: Date.

00000144 <_ZZ11DisplayMenuvE3__c_0>:
     144:	41 3a 20 54 69 6d 65 00                             A: Time.

0000014c <_ZZ11DisplayMenuvE3__c>:
     14c:	4d 65 6e 75 00                                      Menu.

00000151 <_ZL4font>:
     151:	00 00 00 00 00 3e 5b 4f 5b 3e 3e 6b 4f 6b 3e 1c     .....>[O[>>kOk>.
     161:	3e 7c 3e 1c 18 3c 7e 3c 18 1c 57 7d 57 1c 1c 5e     >|>..<~<..W}W..^
     171:	7f 5e 1c 00 18 3c 18 00 ff e7 c3 e7 ff 00 18 24     .^...<.........$
     181:	18 00 ff e7 db e7 ff 30 48 3a 06 0e 26 29 79 29     .......0H:..&)y)
     191:	26 40 7f 05 05 07 40 7f 05 25 3f 5a 3c e7 3c 5a     &@....@..%?Z<.<Z
     1a1:	7f 3e 1c 1c 08 08 1c 1c 3e 7f 14 22 7f 22 14 5f     .>......>.."."._
     1b1:	5f 00 5f 5f 06 09 7f 01 7f 00 66 89 95 6a 60 60     _.__......f..j``
     1c1:	60 60 60 94 a2 ff a2 94 08 04 7e 04 08 10 20 7e     ```.......~... ~
     1d1:	20 10 08 08 2a 1c 08 08 1c 2a 08 08 1e 10 10 10      ...*....*......
     1e1:	10 0c 1e 0c 1e 0c 30 38 3e 38 30 06 0e 3e 0e 06     ......08>80..>..
     1f1:	00 00 00 00 00 00 00 5f 00 00 00 07 00 07 00 14     ......._........
     201:	7f 14 7f 14 24 2a 7f 2a 12 23 13 08 64 62 36 49     ....$*.*.#..db6I
     211:	56 20 50 00 08 07 03 00 00 1c 22 41 00 00 41 22     V P......."A..A"
     221:	1c 00 2a 1c 7f 1c 2a 08 08 3e 08 08 00 80 70 30     ..*...*..>....p0
     231:	00 08 08 08 08 08 00 00 60 60 00 20 10 08 04 02     ........``. ....
     241:	3e 51 49 45 3e 00 42 7f 40 00 72 49 49 49 46 21     >QIE>.B.@.rIIIF!
     251:	41 49 4d 33 18 14 12 7f 10 27 45 45 45 39 3c 4a     AIM3.....'EEE9<J
     261:	49 49 31 41 21 11 09 07 36 49 49 49 36 46 49 49     II1A!...6III6FII
     271:	29 1e 00 00 14 00 00 00 40 34 00 00 00 08 14 22     ).......@4....."
     281:	41 14 14 14 14 14 00 41 22 14 08 02 01 59 09 06     A......A"....Y..
     291:	3e 41 5d 59 4e 7c 12 11 12 7c 7f 49 49 49 36 3e     >A]YN|...|.III6>
     2a1:	41 41 41 22 7f 41 41 41 3e 7f 49 49 49 41 7f 09     AAA".AAA>.IIIA..
     2b1:	09 09 01 3e 41 41 51 73 7f 08 08 08 7f 00 41 7f     ...>AAQs......A.
     2c1:	41 00 20 40 41 3f 01 7f 08 14 22 41 7f 40 40 40     A. @A?...."A.@@@
     2d1:	40 7f 02 1c 02 7f 7f 04 08 10 7f 3e 41 41 41 3e     @..........>AAA>
     2e1:	7f 09 09 09 06 3e 41 51 21 5e 7f 09 19 29 46 26     .....>AQ!^...)F&
     2f1:	49 49 49 32 03 01 7f 01 03 3f 40 40 40 3f 1f 20     III2.....?@@@?. 
     301:	40 20 1f 3f 40 38 40 3f 63 14 08 14 63 03 04 78     @ .?@8@?c...c..x
     311:	04 03 61 59 49 4d 43 00 7f 41 41 41 02 04 08 10     ..aYIMC..AAA....
     321:	20 00 41 41 41 7f 04 02 01 02 04 40 40 40 40 40      .AAA......@@@@@
     331:	00 03 07 08 00 20 54 54 78 40 7f 28 44 44 38 38     ..... TTx@.(DD88
     341:	44 44 44 28 38 44 44 28 7f 38 54 54 54 18 00 08     DDD(8DD(.8TTT...
     351:	7e 09 02 18 a4 a4 9c 78 7f 08 04 04 78 00 44 7d     ~......x....x.D}
     361:	40 00 20 40 40 3d 00 7f 10 28 44 00 00 41 7f 40     @. @@=...(D..A.@
     371:	00 7c 04 78 04 78 7c 08 04 04 78 38 44 44 44 38     .|.x.x|...x8DDD8
     381:	fc 18 24 24 18 18 24 24 18 fc 7c 08 04 04 08 48     ..$$..$$..|....H
     391:	54 54 54 24 04 04 3f 44 24 3c 40 40 20 7c 1c 20     TTT$..?D$<@@ |. 
     3a1:	40 20 1c 3c 40 30 40 3c 44 28 10 28 44 4c 90 90     @ .<@0@<D(.(DL..
     3b1:	90 7c 44 64 54 4c 44 00 08 36 41 00 00 00 77 00     .|DdTLD..6A...w.
     3c1:	00 00 41 36 08 00 02 01 02 04 02 3c 26 23 26 3c     ..A6.......<&#&<
     3d1:	1e a1 a1 61 12 3a 40 40 20 7a 38 54 54 55 59 21     ...a.:@@ z8TTUY!
     3e1:	55 55 79 41 22 54 54 78 42 21 55 54 78 40 20 54     UUyA"TTxB!UTx@ T
     3f1:	55 79 40 0c 1e 52 72 12 39 55 55 55 59 39 54 54     Uy@..Rr.9UUUY9TT
     401:	54 59 39 55 54 54 58 00 00 45 7c 41 00 02 45 7d     TY9UTTX..E|A..E}
     411:	42 00 01 45 7c 40 7d 12 11 12 7d f0 28 25 28 f0     B..E|@}...}.(%(.
     421:	7c 54 55 45 00 20 54 54 7c 54 7c 0a 09 7f 49 32     |TUE. TT|T|...I2
     431:	49 49 49 32 3a 44 44 44 3a 32 4a 48 48 30 3a 41     III2:DDD:2JHH0:A
     441:	41 21 7a 3a 42 40 20 78 00 9d a0 a0 7d 3d 42 42     A!z:B@ x....}=BB
     451:	42 3d 3d 40 40 40 3d 3c 24 ff 24 24 48 7e 49 43     B==@@@=<$.$$H~IC
     461:	66 2b 2f fc 2f 2b ff 09 29 f6 20 c0 88 7e 09 03     f+/./+..). ..~..
     471:	20 54 54 79 41 00 00 44 7d 41 30 48 48 4a 32 38      TTyA..D}A0HHJ28
     481:	40 40 22 7a 00 7a 0a 0a 72 7d 0d 19 31 7d 26 29     @@"z.z..r}..1}&)
     491:	29 2f 28 26 29 29 29 26 30 48 4d 40 20 38 08 08     )/(&)))&0HM@ 8..
     4a1:	08 08 08 08 08 08 38 2f 10 c8 ac ba 2f 10 28 34     ......8/..../.(4
     4b1:	fa 00 00 7b 00 00 08 14 2a 14 22 22 14 2a 14 08     ...{....*."".*..
     4c1:	55 00 55 00 55 aa 55 aa 55 aa ff 55 ff 55 ff 00     U.U.U.U.U..U.U..
     4d1:	00 00 ff 00 10 10 10 ff 00 14 14 14 ff 00 10 10     ................
     4e1:	ff 00 ff 10 10 f0 10 f0 14 14 14 fc 00 14 14 f7     ................
     4f1:	00 ff 00 00 ff 00 ff 14 14 f4 04 fc 14 14 17 10     ................
     501:	1f 10 10 1f 10 1f 14 14 14 1f 00 10 10 10 f0 00     ................
     511:	00 00 00 1f 10 10 10 10 1f 10 10 10 10 f0 10 00     ................
     521:	00 00 ff 10 10 10 10 10 10 10 10 10 ff 10 00 00     ................
     531:	00 ff 14 00 00 ff 00 ff 00 00 1f 10 17 00 00 fc     ................
     541:	04 f4 14 14 17 10 17 14 14 f4 04 f4 00 00 ff 00     ................
     551:	f7 14 14 14 14 14 14 14 f7 00 f7 14 14 14 17 14     ................
     561:	10 10 1f 10 1f 14 14 14 f4 14 10 10 f0 10 f0 00     ................
     571:	00 1f 10 1f 00 00 00 1f 14 00 00 00 fc 14 00 00     ................
     581:	f0 10 f0 10 10 ff 10 ff 14 14 14 ff 14 10 10 10     ................
     591:	1f 00 00 00 00 f0 10 ff ff ff ff ff f0 f0 f0 f0     ................
     5a1:	f0 ff ff ff 00 00 00 00 00 ff ff 0f 0f 0f 0f 0f     ................
     5b1:	38 44 44 38 44 fc 4a 4a 4a 34 7e 02 02 06 06 02     8DD8D.JJJ4~.....
     5c1:	7e 02 7e 02 63 55 49 41 63 38 44 44 3c 04 40 7e     ~.~.cUIAc8DD<.@~
     5d1:	20 1e 20 06 02 7e 02 02 99 a5 e7 a5 99 1c 2a 49      . ..~........*I
     5e1:	2a 1c 4c 72 01 72 4c 30 4a 4d 4d 30 30 48 78 48     *.Lr.rL0JMM00HxH
     5f1:	30 bc 62 5a 46 3d 3e 49 49 49 00 7e 01 01 01 7e     0.bZF=>III.~...~
     601:	2a 2a 2a 2a 2a 44 44 5f 44 44 40 51 4a 44 40 40     *****DD_DD@QJD@@
     611:	44 4a 51 40 00 00 ff 01 03 e0 80 ff 00 00 08 08     DJQ@............
     621:	6b 6b 08 36 12 36 24 36 06 0f 09 0f 06 00 00 18     kk.6.6$6........
     631:	18 00 00 00 10 10 00 30 40 ff 01 01 00 1f 01 01     .......0@.......
     641:	1e 00 19 1d 17 12 00 3c 3c 3c 3c 00 00 00 00 00     .......<<<<.....

00000651 <_ZZN16Adafruit_SSD13067displayEvE6dlist1>:
     651:	22 00 ff 21 00                                      "..!.

00000656 <_ZZN16Adafruit_SSD130621drawFastVLineInternalEiiijE8postmask>:
     656:	00 01 03 07 0f 1f 3f 7f                             ......?.

0000065e <_ZZN16Adafruit_SSD130621drawFastVLineInternalEiiijE7premask>:
     65e:	00 80 c0 e0 f0 f8 fc fe                             ........

00000666 <_ZZN16Adafruit_SSD13065beginEhhbbE5init5>:
     666:	db 40 a4 a6 2e af                                   .@....

0000066c <_ZZN16Adafruit_SSD13065beginEhhbbE5init3>:
     66c:	20 00 a1 c8                                          ...

00000670 <_ZZN16Adafruit_SSD13065beginEhhbbE5init2>:
     670:	d3 00 40 8d                                         ..@.

00000674 <_ZZN16Adafruit_SSD13065beginEhhbbE5init1>:
     674:	ae d5 80 a8                                         ....

00000678 <_ZL12splash2_data>:
     678:	00 00 60 00 00 00 00 00 00 00 00 00 00 00 00 00     ..`.............
     688:	00 e0 00 00 00 00 00 00 00 00 00 00 00 00 00 01     ................
     698:	e0 00 00 00 00 00 00 00 00 00 00 00 00 00 01 f0     ................
	...
     6b4:	00 03 f0 00 00 00 00 00 00 00 00 00 00 00 00 00     ................
     6c4:	07 f0 00 00 00 00 00 00 00 00 00 00 00 00 00 07     ................
     6d4:	f8 00 00 00 00 00 00 00 00 00 00 00 00 00 0f f8     ................
     6e4:	00 00 00 03 c0 00 7e 00 00 01 e0 00 7f 0f f8 00     ......~.........
     6f4:	00 00 03 c0 00 fe 00 00 01 e0 00 ff ef f8 00 00     ................
     704:	00 03 c0 00 fe 00 00 01 e0 00 ff ff f8 00 00 00     ................
     714:	03 c0 00 f0 00 00 00 0f 00 7f fe 7f c0 00 00 03     ................
     724:	c0 00 f0 00 00 00 0f 00 3f fe 7f f8 3f f1 fb cf     ........?...?...
     734:	fc fe f3 bc 3d ef e0 1f fe 7f ff 7f fb ff df fe     ....=...........
     744:	fe ff bc 3d ef e0 1f c6 ff ff 7f fb ff df fe fe     ...=............
     754:	ff bc 3d ef e0 0f e3 c7 fe 78 7b c3 de 1e f0 ff     ..=......x{.....
     764:	bc 3d ef 00 07 ff 87 fc 78 7b c3 de 1e f0 f8 3c     .=......x{.....<
     774:	3d ef 00 01 ff ff f0 00 7b c3 c0 1e f0 f0 3c 3d     =.......{.....<=
     784:	ef 00 01 f3 7f e0 3f fb c3 cf fe f0 f0 3c 3d ef     ......?......<=.
     794:	00 03 e3 3f 80 7f fb c3 df fe f0 f0 3c 3d ef 00     ...?........<=..
     7a4:	07 e7 3c 00 78 7b c3 de 1e f0 f0 3c 3d ef 00 07     ..<.x{.....<=...
     7b4:	ff be 00 78 7b c3 de 1e f0 f0 3c 3d ef 00 07 ff     ...x{.....<=....
     7c4:	fe 00 78 7b c3 de 1e f0 f0 3c 3d ef 00 0f ff fe     ..x{.....<=.....
     7d4:	00 7f fb ff df fe f0 f0 3f fd ef e0 0f ff ff 00     ........?.......
     7e4:	7f fb ff df fe f0 f0 3f fd ef e0 0f f9 ff 00 3e     .......?.......>
     7f4:	79 f9 cf 9e f0 f0 1f 3d e7 e0 1f f1 ff 00 00 00     y......=........
	...
     80c:	00 1f 80 ff 00 7f ff ff ff ff ff ff ff ff ff e0     ................
     81c:	1c 00 7f 00 7f ff ff ff fe b4 6d 88 8d 18 e0 00     ..........m.....
     82c:	00 1f 00 7f ff ff ff fe 95 ad 7d b5 77 e0 00 00     ..........}.w...
     83c:	0f 00 7f ff ff ff fe a5 ad 9d 8d 19 e0 00 00 06     ................
     84c:	00 7f ff ff ff fe b5 ad ed b5 7e e0                 ..........~.

00000858 <_ZL12splash1_data>:
     858:	00 00 00 00 00 01 80 00 00 00 00 00 00 00 00 00     ................
     868:	03 80 00 00 00 00 00 00 00 00 00 07 c0 00 00 00     ................
     878:	00 00 00 00 00 00 07 c0 00 00 00 00 00 00 00 00     ................
     888:	00 0f c0 00 00 00 00 00 00 00 00 00 1f e0 00 00     ................
     898:	00 00 00 00 00 00 00 1f e0 00 00 00 00 00 00 00     ................
     8a8:	00 00 3f e0 00 00 00 00 00 00 00 00 00 3f f0 00     ..?..........?..
	...
     8c0:	7f f0 00 00 00 00 00 00 00 1f f8 7f f0 00 00 00     ................
     8d0:	00 00 00 00 3f fe 7f f0 00 00 00 00 00 00 00 3f     ....?..........?
     8e0:	ff 7f f0 00 00 00 00 00 00 00 1f ff fb e0 00 00     ................
     8f0:	00 00 00 00 00 0f ff f9 ff c0 00 00 00 00 00 00     ................
     900:	0f ff f9 ff f8 00 00 00 00 00 00 07 ff f1 ff ff     ................
     910:	00 00 00 00 00 00 03 fc 73 ff ff 80 00 00 00 00     ........s.......
     920:	00 01 fe 3f ff ff 80 00 00 00 00 00 00 ff 1e 0f     ...?............
     930:	ff 00 00 00 00 00 00 00 7f fe 1f fc 00 00 00 00     ................
     940:	00 00 00 3f ff ff f8 00 00 00 00 00 00 00 0f df     ...?............
     950:	ff e0 00 00 00 00 00 00 00 1f 19 ff c0 00 00 00     ................
     960:	00 00 00 00 3f 3c ff 00 00 00 00 00 00 00 00 7e     ....?<.........~
     970:	7c f8 00 00 00 00 00 00 00 00 7f fe 7c 00 00 00     |...........|...
     980:	00 00 00 00 00 ff ff fc 00 00 00 00 00 00 00 00     ................
     990:	ff ff fe 00 00 00 00 00 00 00 00 ff ff fe 00 00     ................
     9a0:	00 00 00 00 00 01 ff ef fe 00 00 00 00 00 00 00     ................
     9b0:	01 ff cf fe 00 00 00 00 00 00 00 03 ff 07 fe 00     ................
     9c0:	00 00 00 00 00 00 03 fc 07 fe 00 00 00 00 00 00     ................
     9d0:	00 03 f0 03 fe 00 00 00 00 00 00 00 01 80 00 fe     ................
	...
     9e8:	00 00 7e 00 00 00 00 00 00 00 00 00 00 3e 00 00     ..~..........>..
	...
     a00:	0c 00 00 00 00 00 00 07 80 00 fc 00 00 03 c0 00     ................
     a10:	00 00 07 80 01 fc 00 00 03 c0 00 00 00 07 80 01     ................
     a20:	fc 00 00 03 c0 00 00 00 07 80 01 e0 00 00 00 1e     ................
     a30:	00 00 00 07 80 01 e0 00 00 00 1e 00 7f e3 f7 9f     ................
     a40:	f9 fd e7 78 7b df c0 ff f7 ff bf fd fd ff 78 7b     ...x{.........x{
     a50:	df c0 ff f7 ff bf fd fd ff 78 7b df c0 f0 f7 87     .........x{.....
     a60:	bc 3d e1 ff 78 7b de 00 f0 f7 87 bc 3d e1 f0 78     .=..x{......=..x
     a70:	7b de 00 00 f7 87 80 3d e1 e0 78 7b de 00 7f f7     {......=..x{....
     a80:	87 9f fd e1 e0 78 7b de 00 ff f7 87 bf fd e1 e0     .....x{.........
     a90:	78 7b de 00 f0 f7 87 bc 3d e1 e0 78 7b de 00 f0     x{......=..x{...
     aa0:	f7 87 bc 3d e1 e0 78 7b de 00 f0 f7 87 bc 3d e1     ...=..x{......=.
     ab0:	e0 78 7b de 00 ff f7 ff bf fd e1 e0 7f fb df c0     .x{.............
     ac0:	ff f7 ff bf fd e1 e0 7f fb df c0 7c f3 f3 9f 3d     ...........|...=
     ad0:	e1 e0 3e 7b cf c0 00 00 00 00 00 00 00 00 00 00     ..>{............
     ae0:	00 ff ff ff ff ff ff ff ff ff ff c0 ff ff ff ff     ................
     af0:	fd 68 db 11 1a 31 c0 ff ff ff ff fd 2b 5a fb 6a     .h...1......+Z.j
     b00:	ef c0 ff ff ff ff fd 4b 5b 3b 1a 33 c0 ff ff ff     .......K[;.3....
     b10:	ff fd 6b 5b db 6a fd c0                             ..k[.j..

00000b18 <digital_pin_to_timer_PGM>:
     b18:	00 00 0a 0b 02 09 0c 0d 0e 08 07 03 04 01 00 00     ................
	...
     b44:	12 11 10 00 00 00 00 00 00 00 00 00 00 00 00 00     ................
	...

00000b5e <digital_pin_to_bit_mask_PGM>:
     b5e:	01 02 10 20 20 08 08 10 20 40 10 20 40 80 02 01     ...  ... @. @...
     b6e:	02 01 08 04 02 01 01 02 04 08 10 20 40 80 80 40     ........... @..@
     b7e:	20 10 08 04 02 01 80 04 02 01 80 40 20 10 08 04      ..........@ ...
     b8e:	02 01 08 04 02 01 01 02 04 08 10 20 40 80 01 02     ........... @...
     b9e:	04 08 10 20 40 80                                   ... @.

00000ba4 <digital_pin_to_port_PGM>:
     ba4:	05 05 05 05 07 05 08 08 08 08 02 02 02 02 0a 0a     ................
     bb4:	08 08 04 04 04 04 01 01 01 01 01 01 01 01 03 03     ................
     bc4:	03 03 03 03 03 03 04 07 07 07 0c 0c 0c 0c 0c 0c     ................
     bd4:	0c 0c 02 02 02 02 06 06 06 06 06 06 06 06 0b 0b     ................
     be4:	0b 0b 0b 0b 0b 0b                                   ......

00000bea <port_to_input_PGM>:
     bea:	00 00 20 00 23 00 26 00 29 00 2c 00 2f 00 32 00     .. .#.&.).,./.2.
     bfa:	00 01 00 00 03 01 06 01 09 01                       ..........

00000c04 <port_to_output_PGM>:
     c04:	00 00 22 00 25 00 28 00 2b 00 2e 00 31 00 34 00     ..".%.(.+...1.4.
     c14:	02 01 00 00 05 01 08 01 0b 01                       ..........

00000c1e <port_to_mode_PGM>:
     c1e:	00 00 21 00 24 00 27 00 2a 00 2d 00 30 00 33 00     ..!.$.'.*.-.0.3.
     c2e:	01 01 00 00 04 01 07 01 0a 01                       ..........

00000c38 <__ctors_start>:
     c38:	2d 07       	cpc	r18, r29
     c3a:	04 08       	sbc	r0, r4
     c3c:	88 24       	eor	r8, r8
     c3e:	60 26       	eor	r6, r16

00000c40 <__ctors_end>:
     c40:	73 07       	cpc	r23, r19

00000c42 <__dtors_end>:
     c42:	11 24       	eor	r1, r1
     c44:	1f be       	out	0x3f, r1	; 63
     c46:	cf ef       	ldi	r28, 0xFF	; 255
     c48:	d1 e2       	ldi	r29, 0x21	; 33
     c4a:	de bf       	out	0x3e, r29	; 62
     c4c:	cd bf       	out	0x3d, r28	; 61
     c4e:	00 e0       	ldi	r16, 0x00	; 0
     c50:	0c bf       	out	0x3c, r16	; 60

00000c52 <__do_copy_data>:
     c52:	13 e0       	ldi	r17, 0x03	; 3
     c54:	a0 e0       	ldi	r26, 0x00	; 0
     c56:	b2 e0       	ldi	r27, 0x02	; 2
     c58:	ec e8       	ldi	r30, 0x8C	; 140
     c5a:	fa e5       	ldi	r31, 0x5A	; 90
     c5c:	00 e0       	ldi	r16, 0x00	; 0
     c5e:	0b bf       	out	0x3b, r16	; 59
     c60:	02 c0       	rjmp	.+4      	; 0xc66 <__do_copy_data+0x14>
     c62:	07 90       	elpm	r0, Z+
     c64:	0d 92       	st	X+, r0
     c66:	a6 33       	cpi	r26, 0x36	; 54
     c68:	b1 07       	cpc	r27, r17
     c6a:	d9 f7       	brne	.-10     	; 0xc62 <__do_copy_data+0x10>

00000c6c <__do_clear_bss>:
     c6c:	26 e0       	ldi	r18, 0x06	; 6
     c6e:	a6 e3       	ldi	r26, 0x36	; 54
     c70:	b3 e0       	ldi	r27, 0x03	; 3
     c72:	01 c0       	rjmp	.+2      	; 0xc76 <.do_clear_bss_start>

00000c74 <.do_clear_bss_loop>:
     c74:	1d 92       	st	X+, r1

00000c76 <.do_clear_bss_start>:
     c76:	a4 31       	cpi	r26, 0x14	; 20
     c78:	b2 07       	cpc	r27, r18
     c7a:	e1 f7       	brne	.-8      	; 0xc74 <.do_clear_bss_loop>

00000c7c <__do_global_ctors>:
     c7c:	16 e0       	ldi	r17, 0x06	; 6
     c7e:	c0 e2       	ldi	r28, 0x20	; 32
     c80:	d6 e0       	ldi	r29, 0x06	; 6
     c82:	00 e0       	ldi	r16, 0x00	; 0
     c84:	06 c0       	rjmp	.+12     	; 0xc92 <__do_global_ctors+0x16>
     c86:	21 97       	sbiw	r28, 0x01	; 1
     c88:	01 09       	sbc	r16, r1
     c8a:	80 2f       	mov	r24, r16
     c8c:	fe 01       	movw	r30, r28
     c8e:	0e 94 cd 2a 	call	0x559a	; 0x559a <__tablejump2__>
     c92:	cc 31       	cpi	r28, 0x1C	; 28
     c94:	d1 07       	cpc	r29, r17
     c96:	80 e0       	ldi	r24, 0x00	; 0
     c98:	08 07       	cpc	r16, r24
     c9a:	a9 f7       	brne	.-22     	; 0xc86 <__do_global_ctors+0xa>
     c9c:	0e 94 8e 26 	call	0x4d1c	; 0x4d1c <main>
     ca0:	0c 94 35 2d 	jmp	0x5a6a	; 0x5a6a <__do_global_dtors>

00000ca4 <__bad_interrupt>:
     ca4:	ad c9       	rjmp	.-3238   	; 0x0 <__vectors>

00000ca6 <setup>:


bool Keycard = false;

void setup()
{
     ca6:	0f 93       	push	r16
  public:
    inline HardwareSerial(
      volatile uint8_t *ubrrh, volatile uint8_t *ubrrl,
      volatile uint8_t *ucsra, volatile uint8_t *ucsrb,
      volatile uint8_t *ucsrc, volatile uint8_t *udr);
    void begin(unsigned long baud) { begin(baud, SERIAL_8N1); }
     ca8:	26 e0       	ldi	r18, 0x06	; 6
     caa:	40 e8       	ldi	r20, 0x80	; 128
     cac:	55 e2       	ldi	r21, 0x25	; 37
     cae:	60 e0       	ldi	r22, 0x00	; 0
     cb0:	70 e0       	ldi	r23, 0x00	; 0
     cb2:	8a e6       	ldi	r24, 0x6A	; 106
     cb4:	95 e0       	ldi	r25, 0x05	; 5
     cb6:	0e 94 95 25 	call	0x4b2a	; 0x4b2a <_ZN14HardwareSerial5beginEmh>
	Serial.begin(9600);
	SPI.begin();
     cba:	0e 94 26 20 	call	0x404c	; 0x404c <_ZN8SPIClass5beginEv>
	mfrc522.PCD_Init();
     cbe:	83 ef       	ldi	r24, 0xF3	; 243
     cc0:	93 e0       	ldi	r25, 0x03	; 3
     cc2:	0e 94 71 1b 	call	0x36e2	; 0x36e2 <_ZN7MFRC5228PCD_InitEv>
	if(!display.begin(SSD1306_SWITCHCAPVCC, 0x3C))
     cc6:	01 e0       	ldi	r16, 0x01	; 1
     cc8:	21 e0       	ldi	r18, 0x01	; 1
     cca:	4c e3       	ldi	r20, 0x3C	; 60
     ccc:	62 e0       	ldi	r22, 0x02	; 2
     cce:	83 eb       	ldi	r24, 0xB3	; 179
     cd0:	93 e0       	ldi	r25, 0x03	; 3
     cd2:	0e 94 2d 11 	call	0x225a	; 0x225a <_ZN16Adafruit_SSD13065beginEhhbb>
     cd6:	81 11       	cpse	r24, r1
     cd8:	07 c0       	rjmp	.+14     	; 0xce8 <setup+0x42>
	{ // Address for 128x64
		Serial.println(F("SSD1306 allocation failed"));
     cda:	68 e0       	ldi	r22, 0x08	; 8
     cdc:	71 e0       	ldi	r23, 0x01	; 1
     cde:	8a e6       	ldi	r24, 0x6A	; 106
     ce0:	95 e0       	ldi	r25, 0x05	; 5
     ce2:	0e 94 07 27 	call	0x4e0e	; 0x4e0e <_ZN5Print7printlnEPK19__FlashStringHelper>
     ce6:	ff cf       	rjmp	.-2      	; 0xce6 <setup+0x40>
		for(;;); // Don't proceed, loop forever
	}
	
}
     ce8:	0f 91       	pop	r16
     cea:	08 95       	ret

00000cec <loop>:

void loop()
{
     cec:	1f 93       	push	r17
     cee:	cf 93       	push	r28
     cf0:	df 93       	push	r29
     cf2:	cd b7       	in	r28, 0x3d	; 61
     cf4:	de b7       	in	r29, 0x3e	; 62
     cf6:	2c 97       	sbiw	r28, 0x0c	; 12
     cf8:	0f b6       	in	r0, 0x3f	; 63
     cfa:	f8 94       	cli
     cfc:	de bf       	out	0x3e, r29	; 62
     cfe:	0f be       	out	0x3f, r0	; 63
     d00:	cd bf       	out	0x3d, r28	; 61
	if (Keycard)
     d02:	80 91 36 03 	lds	r24, 0x0336	; 0x800336 <__data_end>
     d06:	88 23       	and	r24, r24
     d08:	99 f0       	breq	.+38     	; 0xd30 <loop+0x44>
	{
		DisplayMenu();
     d0a:	43 d0       	rcall	.+134    	; 0xd92 <_Z11DisplayMenuv>
		char key = keypad.getKey();
     d0c:	8f e4       	ldi	r24, 0x4F	; 79
     d0e:	93 e0       	ldi	r25, 0x03	; 3
     d10:	0e 94 73 18 	call	0x30e6	; 0x30e6 <_ZN6Keypad6getKeyEv>
     d14:	18 2f       	mov	r17, r24
		if (key != NO_KEY){
     d16:	88 23       	and	r24, r24
     d18:	39 f0       	breq	.+14     	; 0xd28 <loop+0x3c>
			Serial.println(key);
     d1a:	68 2f       	mov	r22, r24
     d1c:	8a e6       	ldi	r24, 0x6A	; 106
     d1e:	95 e0       	ldi	r25, 0x05	; 5
     d20:	0e 94 27 27 	call	0x4e4e	; 0x4e4e <_ZN5Print7printlnEc>
			Menu(key);
     d24:	81 2f       	mov	r24, r17
     d26:	81 d0       	rcall	.+258    	; 0xe2a <_Z4Menuc>
		}
	}
	if (!Keycard)
     d28:	80 91 36 03 	lds	r24, 0x0336	; 0x800336 <__data_end>
     d2c:	81 11       	cpse	r24, r1
     d2e:	27 c0       	rjmp	.+78     	; 0xd7e <loop+0x92>
	{
		if ( !mfrc522.PICC_IsNewCardPresent() || !mfrc522.PICC_ReadCardSerial() ) {
     d30:	83 ef       	ldi	r24, 0xF3	; 243
     d32:	93 e0       	ldi	r25, 0x03	; 3
     d34:	0e 94 81 1e 	call	0x3d02	; 0x3d02 <_ZN7MFRC52221PICC_IsNewCardPresentEv>
     d38:	88 23       	and	r24, r24
     d3a:	09 f1       	breq	.+66     	; 0xd7e <loop+0x92>
     d3c:	83 ef       	ldi	r24, 0xF3	; 243
     d3e:	93 e0       	ldi	r25, 0x03	; 3
     d40:	0e 94 fa 19 	call	0x33f4	; 0x33f4 <_ZN7MFRC52219PICC_ReadCardSerialEv>
     d44:	88 23       	and	r24, r24
     d46:	d9 f0       	breq	.+54     	; 0xd7e <loop+0x92>
			return;
		}
		String UID = ReadUID();
     d48:	ce 01       	movw	r24, r28
     d4a:	07 96       	adiw	r24, 0x07	; 7
     d4c:	d0 d0       	rcall	.+416    	; 0xeee <_Z7ReadUIDv>
		CheckKeyCard(UID, &Keycard);
     d4e:	be 01       	movw	r22, r28
     d50:	69 5f       	subi	r22, 0xF9	; 249
     d52:	7f 4f       	sbci	r23, 0xFF	; 255
     d54:	ce 01       	movw	r24, r28
     d56:	01 96       	adiw	r24, 0x01	; 1
     d58:	0e 94 d2 29 	call	0x53a4	; 0x53a4 <_ZN6StringC1ERKS_>
     d5c:	66 e3       	ldi	r22, 0x36	; 54
     d5e:	73 e0       	ldi	r23, 0x03	; 3
     d60:	ce 01       	movw	r24, r28
     d62:	01 96       	adiw	r24, 0x01	; 1
     d64:	10 d1       	rcall	.+544    	; 0xf86 <_Z12CheckKeyCard6StringPb>
     d66:	ce 01       	movw	r24, r28
     d68:	01 96       	adiw	r24, 0x01	; 1
     d6a:	0e 94 3f 29 	call	0x527e	; 0x527e <_ZN6StringD1Ev>
		display.clearDisplay();
     d6e:	83 eb       	ldi	r24, 0xB3	; 179
     d70:	93 e0       	ldi	r25, 0x03	; 3
     d72:	0e 94 0f 11 	call	0x221e	; 0x221e <_ZN16Adafruit_SSD130612clearDisplayEv>
	if (!Keycard)
	{
		if ( !mfrc522.PICC_IsNewCardPresent() || !mfrc522.PICC_ReadCardSerial() ) {
			return;
		}
		String UID = ReadUID();
     d76:	ce 01       	movw	r24, r28
     d78:	07 96       	adiw	r24, 0x07	; 7
     d7a:	0e 94 3f 29 	call	0x527e	; 0x527e <_ZN6StringD1Ev>
		CheckKeyCard(UID, &Keycard);
		display.clearDisplay();
	}

}
     d7e:	2c 96       	adiw	r28, 0x0c	; 12
     d80:	0f b6       	in	r0, 0x3f	; 63
     d82:	f8 94       	cli
     d84:	de bf       	out	0x3e, r29	; 62
     d86:	0f be       	out	0x3f, r0	; 63
     d88:	cd bf       	out	0x3d, r28	; 61
     d8a:	df 91       	pop	r29
     d8c:	cf 91       	pop	r28
     d8e:	1f 91       	pop	r17
     d90:	08 95       	ret

00000d92 <_Z11DisplayMenuv>:

int rs = 22, en = 23, d4 = 24, d5 = 25, d6 = 26, d7 = 27;
LiquidCrystal lcd(rs, en, d4, d5, d6, d7);

void DisplayMenu()
{
     d92:	cf 93       	push	r28
     d94:	df 93       	push	r29
	display.clearDisplay();
     d96:	83 eb       	ldi	r24, 0xB3	; 179
     d98:	93 e0       	ldi	r25, 0x03	; 3
     d9a:	0e 94 0f 11 	call	0x221e	; 0x221e <_ZN16Adafruit_SSD130612clearDisplayEv>

	display.setTextSize(1); // Normal 1:1 pixel scale
     d9e:	61 e0       	ldi	r22, 0x01	; 1
     da0:	83 eb       	ldi	r24, 0xB3	; 179
     da2:	93 e0       	ldi	r25, 0x03	; 3
     da4:	d3 d7       	rcall	.+4006   	; 0x1d4c <_ZN12Adafruit_GFX11setTextSizeEh>
    @param   c   16-bit 5-6-5 Color to draw text with
    @note    For 'transparent' background, background and foreground
             are set to same color rather than using a separate flag.
  */
  /**********************************************************************/
  void setTextColor(uint16_t c) { textcolor = textbgcolor = c; }
     da6:	c3 eb       	ldi	r28, 0xB3	; 179
     da8:	d3 e0       	ldi	r29, 0x03	; 3
     daa:	81 e0       	ldi	r24, 0x01	; 1
     dac:	90 e0       	ldi	r25, 0x00	; 0
     dae:	9b 8b       	std	Y+19, r25	; 0x13
     db0:	8a 8b       	std	Y+18, r24	; 0x12
     db2:	99 8b       	std	Y+17, r25	; 0x11
     db4:	88 8b       	std	Y+16, r24	; 0x10
    @param  x    X coordinate in pixels
    @param  y    Y coordinate in pixels
  */
  /**********************************************************************/
  void setCursor(int16_t x, int16_t y) {
    cursor_x = x;
     db6:	1d 86       	std	Y+13, r1	; 0x0d
     db8:	1c 86       	std	Y+12, r1	; 0x0c
    cursor_y = y;
     dba:	1f 86       	std	Y+15, r1	; 0x0f
     dbc:	1e 86       	std	Y+14, r1	; 0x0e
	display.setTextColor(WHITE); // Draw white text
	display.setCursor(0,0);
	display.println(F("Menu"));
     dbe:	6c e4       	ldi	r22, 0x4C	; 76
     dc0:	71 e0       	ldi	r23, 0x01	; 1
     dc2:	ce 01       	movw	r24, r28
     dc4:	0e 94 07 27 	call	0x4e0e	; 0x4e0e <_ZN5Print7printlnEPK19__FlashStringHelper>
    @param  x    X coordinate in pixels
    @param  y    Y coordinate in pixels
  */
  /**********************************************************************/
  void setCursor(int16_t x, int16_t y) {
    cursor_x = x;
     dc8:	1d 86       	std	Y+13, r1	; 0x0d
     dca:	1c 86       	std	Y+12, r1	; 0x0c
    cursor_y = y;
     dcc:	8a e0       	ldi	r24, 0x0A	; 10
     dce:	90 e0       	ldi	r25, 0x00	; 0
     dd0:	9f 87       	std	Y+15, r25	; 0x0f
     dd2:	8e 87       	std	Y+14, r24	; 0x0e
	display.setCursor(0,10);
	display.println(F("A: Time"));
     dd4:	64 e4       	ldi	r22, 0x44	; 68
     dd6:	71 e0       	ldi	r23, 0x01	; 1
     dd8:	ce 01       	movw	r24, r28
     dda:	0e 94 07 27 	call	0x4e0e	; 0x4e0e <_ZN5Print7printlnEPK19__FlashStringHelper>
    @param  x    X coordinate in pixels
    @param  y    Y coordinate in pixels
  */
  /**********************************************************************/
  void setCursor(int16_t x, int16_t y) {
    cursor_x = x;
     dde:	1d 86       	std	Y+13, r1	; 0x0d
     de0:	1c 86       	std	Y+12, r1	; 0x0c
    cursor_y = y;
     de2:	84 e1       	ldi	r24, 0x14	; 20
     de4:	90 e0       	ldi	r25, 0x00	; 0
     de6:	9f 87       	std	Y+15, r25	; 0x0f
     de8:	8e 87       	std	Y+14, r24	; 0x0e
	display.setCursor(0,20);
	display.println(F("B: Date"));
     dea:	6c e3       	ldi	r22, 0x3C	; 60
     dec:	71 e0       	ldi	r23, 0x01	; 1
     dee:	ce 01       	movw	r24, r28
     df0:	0e 94 07 27 	call	0x4e0e	; 0x4e0e <_ZN5Print7printlnEPK19__FlashStringHelper>
    @param  x    X coordinate in pixels
    @param  y    Y coordinate in pixels
  */
  /**********************************************************************/
  void setCursor(int16_t x, int16_t y) {
    cursor_x = x;
     df4:	1d 86       	std	Y+13, r1	; 0x0d
     df6:	1c 86       	std	Y+12, r1	; 0x0c
    cursor_y = y;
     df8:	8e e1       	ldi	r24, 0x1E	; 30
     dfa:	90 e0       	ldi	r25, 0x00	; 0
     dfc:	9f 87       	std	Y+15, r25	; 0x0f
     dfe:	8e 87       	std	Y+14, r24	; 0x0e
	display.setCursor(0,30);
	display.println(F("C: Tempreture"));
     e00:	6e e2       	ldi	r22, 0x2E	; 46
     e02:	71 e0       	ldi	r23, 0x01	; 1
     e04:	ce 01       	movw	r24, r28
     e06:	0e 94 07 27 	call	0x4e0e	; 0x4e0e <_ZN5Print7printlnEPK19__FlashStringHelper>
    @param  x    X coordinate in pixels
    @param  y    Y coordinate in pixels
  */
  /**********************************************************************/
  void setCursor(int16_t x, int16_t y) {
    cursor_x = x;
     e0a:	1d 86       	std	Y+13, r1	; 0x0d
     e0c:	1c 86       	std	Y+12, r1	; 0x0c
    cursor_y = y;
     e0e:	88 e2       	ldi	r24, 0x28	; 40
     e10:	90 e0       	ldi	r25, 0x00	; 0
     e12:	9f 87       	std	Y+15, r25	; 0x0f
     e14:	8e 87       	std	Y+14, r24	; 0x0e
	display.setCursor(0,40);
	display.println(F("A: Humidity"));
     e16:	62 e2       	ldi	r22, 0x22	; 34
     e18:	71 e0       	ldi	r23, 0x01	; 1
     e1a:	ce 01       	movw	r24, r28
     e1c:	0e 94 07 27 	call	0x4e0e	; 0x4e0e <_ZN5Print7printlnEPK19__FlashStringHelper>

	display.display();
     e20:	ce 01       	movw	r24, r28
}
     e22:	df 91       	pop	r29
     e24:	cf 91       	pop	r28
	display.setCursor(0,30);
	display.println(F("C: Tempreture"));
	display.setCursor(0,40);
	display.println(F("A: Humidity"));

	display.display();
     e26:	0c 94 94 14 	jmp	0x2928	; 0x2928 <_ZN16Adafruit_SSD13067displayEv>

00000e2a <_Z4Menuc>:
}

void Menu(char key)
{
	if (key == 'A')
     e2a:	81 34       	cpi	r24, 0x41	; 65
     e2c:	19 f4       	brne	.+6      	; 0xe34 <_Z4Menuc+0xa>
	{
		Serial.println("Du valgte: A");
     e2e:	6a e2       	ldi	r22, 0x2A	; 42
     e30:	72 e0       	ldi	r23, 0x02	; 2
     e32:	0e c0       	rjmp	.+28     	; 0xe50 <_Z4Menuc+0x26>
	}
	if (key == 'B')
     e34:	82 34       	cpi	r24, 0x42	; 66
     e36:	19 f4       	brne	.+6      	; 0xe3e <_Z4Menuc+0x14>
	{
		Serial.println("Du valgte: B");
     e38:	67 e3       	ldi	r22, 0x37	; 55
     e3a:	72 e0       	ldi	r23, 0x02	; 2
     e3c:	09 c0       	rjmp	.+18     	; 0xe50 <_Z4Menuc+0x26>
	}
	if (key == 'C')
     e3e:	83 34       	cpi	r24, 0x43	; 67
     e40:	19 f4       	brne	.+6      	; 0xe48 <_Z4Menuc+0x1e>
	{
		Serial.println("Du valgte: C");
     e42:	64 e4       	ldi	r22, 0x44	; 68
     e44:	72 e0       	ldi	r23, 0x02	; 2
     e46:	04 c0       	rjmp	.+8      	; 0xe50 <_Z4Menuc+0x26>
	}
	if (key == 'D')
     e48:	84 34       	cpi	r24, 0x44	; 68
     e4a:	31 f4       	brne	.+12     	; 0xe58 <_Z4Menuc+0x2e>
	{
		Serial.println("Du valgte: D");
     e4c:	61 e5       	ldi	r22, 0x51	; 81
     e4e:	72 e0       	ldi	r23, 0x02	; 2
     e50:	8a e6       	ldi	r24, 0x6A	; 106
     e52:	95 e0       	ldi	r25, 0x05	; 5
     e54:	0c 94 17 27 	jmp	0x4e2e	; 0x4e2e <_ZN5Print7printlnEPKc>
     e58:	08 95       	ret

00000e5a <_GLOBAL__sub_I_display>:
	}
}
     e5a:	8f 92       	push	r8
     e5c:	9f 92       	push	r9
     e5e:	af 92       	push	r10
     e60:	bf 92       	push	r11
     e62:	cf 92       	push	r12
     e64:	df 92       	push	r13
     e66:	ef 92       	push	r14
     e68:	ff 92       	push	r15
     e6a:	0f 93       	push	r16
#include "Menu.h"

Adafruit_SSD1306 display(SCREEN_WIDTH, SCREEN_HEIGHT, &Wire, OLED_RESET);
     e6c:	80 ea       	ldi	r24, 0xA0	; 160
     e6e:	88 2e       	mov	r8, r24
     e70:	86 e8       	ldi	r24, 0x86	; 134
     e72:	98 2e       	mov	r9, r24
     e74:	aa 24       	eor	r10, r10
     e76:	a3 94       	inc	r10
     e78:	b1 2c       	mov	r11, r1
     e7a:	90 e8       	ldi	r25, 0x80	; 128
     e7c:	c9 2e       	mov	r12, r25
     e7e:	9a e1       	ldi	r25, 0x1A	; 26
     e80:	d9 2e       	mov	r13, r25
     e82:	96 e0       	ldi	r25, 0x06	; 6
     e84:	e9 2e       	mov	r14, r25
     e86:	f1 2c       	mov	r15, r1
     e88:	04 e0       	ldi	r16, 0x04	; 4
     e8a:	24 e1       	ldi	r18, 0x14	; 20
     e8c:	35 e0       	ldi	r19, 0x05	; 5
     e8e:	40 e4       	ldi	r20, 0x40	; 64
     e90:	60 e8       	ldi	r22, 0x80	; 128
     e92:	83 eb       	ldi	r24, 0xB3	; 179
     e94:	93 e0       	ldi	r25, 0x03	; 3
     e96:	0e 94 6c 0f 	call	0x1ed8	; 0x1ed8 <_ZN16Adafruit_SSD1306C1EhhP7TwoWireamm>
	{'7','8','9','C'},
	{'*','0','#','D'}
};
byte rowPins[rows] = {32, 33, 34, 35}; //connect to the row pinouts of the keypad
byte colPins[cols] = {36, 37, 38, 39}; //connect to the column pinouts of the keypad
Keypad keypad = Keypad( makeKeymap(keys), rowPins, colPins, rows, cols );
     e9a:	24 e0       	ldi	r18, 0x04	; 4
     e9c:	e2 2e       	mov	r14, r18
     e9e:	22 e1       	ldi	r18, 0x12	; 18
     ea0:	32 e0       	ldi	r19, 0x02	; 2
     ea2:	46 e1       	ldi	r20, 0x16	; 22
     ea4:	52 e0       	ldi	r21, 0x02	; 2
     ea6:	6a e1       	ldi	r22, 0x1A	; 26
     ea8:	72 e0       	ldi	r23, 0x02	; 2
     eaa:	8f e4       	ldi	r24, 0x4F	; 79
     eac:	93 e0       	ldi	r25, 0x03	; 3
     eae:	0e 94 93 15 	call	0x2b26	; 0x2b26 <_ZN6KeypadC1EPcPhS1_hh>

int rs = 22, en = 23, d4 = 24, d5 = 25, d6 = 26, d7 = 27;
LiquidCrystal lcd(rs, en, d4, d5, d6, d7);
     eb2:	c0 90 06 02 	lds	r12, 0x0206	; 0x800206 <d7>
     eb6:	e0 90 08 02 	lds	r14, 0x0208	; 0x800208 <d6>
     eba:	00 91 0a 02 	lds	r16, 0x020A	; 0x80020a <d5>
     ebe:	20 91 0c 02 	lds	r18, 0x020C	; 0x80020c <d4>
     ec2:	40 91 0e 02 	lds	r20, 0x020E	; 0x80020e <en>
     ec6:	60 91 10 02 	lds	r22, 0x0210	; 0x800210 <rs>
     eca:	87 e3       	ldi	r24, 0x37	; 55
     ecc:	93 e0       	ldi	r25, 0x03	; 3
     ece:	0e 94 d6 19 	call	0x33ac	; 0x33ac <_ZN13LiquidCrystalC1Ehhhhhh>
	}
	if (key == 'D')
	{
		Serial.println("Du valgte: D");
	}
}
     ed2:	0f 91       	pop	r16
     ed4:	ff 90       	pop	r15
     ed6:	ef 90       	pop	r14
     ed8:	df 90       	pop	r13
     eda:	cf 90       	pop	r12
     edc:	bf 90       	pop	r11
     ede:	af 90       	pop	r10
     ee0:	9f 90       	pop	r9
     ee2:	8f 90       	pop	r8
     ee4:	08 95       	ret

00000ee6 <_GLOBAL__sub_D_display>:
#include "Menu.h"

Adafruit_SSD1306 display(SCREEN_WIDTH, SCREEN_HEIGHT, &Wire, OLED_RESET);
     ee6:	83 eb       	ldi	r24, 0xB3	; 179
     ee8:	93 e0       	ldi	r25, 0x03	; 3
     eea:	0c 94 b6 0f 	jmp	0x1f6c	; 0x1f6c <_ZN16Adafruit_SSD1306D1Ev>

00000eee <_Z7ReadUIDv>:

MFRC522 mfrc522(SS_PIN, RST_PIN);
MFRC522::MIFARE_Key key;

String ReadUID()
{
     eee:	cf 92       	push	r12
     ef0:	df 92       	push	r13
     ef2:	ff 92       	push	r15
     ef4:	0f 93       	push	r16
     ef6:	1f 93       	push	r17
     ef8:	cf 93       	push	r28
     efa:	df 93       	push	r29
     efc:	00 d0       	rcall	.+0      	; 0xefe <_Z7ReadUIDv+0x10>
     efe:	00 d0       	rcall	.+0      	; 0xf00 <_Z7ReadUIDv+0x12>
     f00:	cd b7       	in	r28, 0x3d	; 61
     f02:	de b7       	in	r29, 0x3e	; 62
     f04:	8c 01       	movw	r16, r24
	String UID;
     f06:	69 e2       	ldi	r22, 0x29	; 41
     f08:	73 e0       	ldi	r23, 0x03	; 3
     f0a:	0e 94 a9 29 	call	0x5352	; 0x5352 <_ZN6StringC1EPKc>
	for (byte i = 0; i < mfrc522.uid.size; i++) {
     f0e:	f1 2c       	mov	r15, r1
     f10:	80 91 f5 03 	lds	r24, 0x03F5	; 0x8003f5 <mfrc522+0x2>
     f14:	f8 16       	cp	r15, r24
     f16:	28 f5       	brcc	.+74     	; 0xf62 <_Z7ReadUIDv+0x74>
		UID += mfrc522.uid.uidByte[i] < 0x10 ? " 0" : " ";
     f18:	8f 2d       	mov	r24, r15
     f1a:	90 e0       	ldi	r25, 0x00	; 0
     f1c:	9c 01       	movw	r18, r24
     f1e:	2d 50       	subi	r18, 0x0D	; 13
     f20:	3c 4f       	sbci	r19, 0xFC	; 252
     f22:	69 01       	movw	r12, r18
     f24:	f9 01       	movw	r30, r18
     f26:	83 81       	ldd	r24, Z+3	; 0x03
     f28:	80 31       	cpi	r24, 0x10	; 16
     f2a:	18 f0       	brcs	.+6      	; 0xf32 <_Z7ReadUIDv+0x44>
     f2c:	61 e6       	ldi	r22, 0x61	; 97
     f2e:	72 e0       	ldi	r23, 0x02	; 2
     f30:	02 c0       	rjmp	.+4      	; 0xf36 <_Z7ReadUIDv+0x48>
     f32:	6e e5       	ldi	r22, 0x5E	; 94
     f34:	72 e0       	ldi	r23, 0x02	; 2
	unsigned char concat(const __FlashStringHelper * str);

	// if there's not enough memory for the concatenated value, the string
	// will be left unchanged (but this isn't signalled in any way)
	String & operator += (const String &rhs)	{concat(rhs); return (*this);}
	String & operator += (const char *cstr)		{concat(cstr); return (*this);}
     f36:	c8 01       	movw	r24, r16
     f38:	0e 94 4c 2a 	call	0x5498	; 0x5498 <_ZN6String6concatEPKc>
		UID += String (mfrc522.uid.uidByte[i], HEX);
     f3c:	40 e1       	ldi	r20, 0x10	; 16
     f3e:	f6 01       	movw	r30, r12
     f40:	63 81       	ldd	r22, Z+3	; 0x03
     f42:	ce 01       	movw	r24, r28
     f44:	01 96       	adiw	r24, 0x01	; 1
     f46:	0e 94 ef 29 	call	0x53de	; 0x53de <_ZN6StringC1Ehh>
	unsigned char concat(double num);
	unsigned char concat(const __FlashStringHelper * str);

	// if there's not enough memory for the concatenated value, the string
	// will be left unchanged (but this isn't signalled in any way)
	String & operator += (const String &rhs)	{concat(rhs); return (*this);}
     f4a:	be 01       	movw	r22, r28
     f4c:	6f 5f       	subi	r22, 0xFF	; 255
     f4e:	7f 4f       	sbci	r23, 0xFF	; 255
     f50:	c8 01       	movw	r24, r16
     f52:	0e 94 46 2a 	call	0x548c	; 0x548c <_ZN6String6concatERKS_>
     f56:	ce 01       	movw	r24, r28
     f58:	01 96       	adiw	r24, 0x01	; 1
     f5a:	0e 94 3f 29 	call	0x527e	; 0x527e <_ZN6StringD1Ev>
MFRC522::MIFARE_Key key;

String ReadUID()
{
	String UID;
	for (byte i = 0; i < mfrc522.uid.size; i++) {
     f5e:	f3 94       	inc	r15
     f60:	d7 cf       	rjmp	.-82     	; 0xf10 <_Z7ReadUIDv+0x22>
		UID += mfrc522.uid.uidByte[i] < 0x10 ? " 0" : " ";
		UID += String (mfrc522.uid.uidByte[i], HEX);
	}
	UID.toUpperCase();
     f62:	c8 01       	movw	r24, r16
     f64:	0e 94 99 2a 	call	0x5532	; 0x5532 <_ZN6String11toUpperCaseEv>
	return UID ;

}
     f68:	c8 01       	movw	r24, r16
     f6a:	26 96       	adiw	r28, 0x06	; 6
     f6c:	0f b6       	in	r0, 0x3f	; 63
     f6e:	f8 94       	cli
     f70:	de bf       	out	0x3e, r29	; 62
     f72:	0f be       	out	0x3f, r0	; 63
     f74:	cd bf       	out	0x3d, r28	; 61
     f76:	df 91       	pop	r29
     f78:	cf 91       	pop	r28
     f7a:	1f 91       	pop	r17
     f7c:	0f 91       	pop	r16
     f7e:	ff 90       	pop	r15
     f80:	df 90       	pop	r13
     f82:	cf 90       	pop	r12
     f84:	08 95       	ret

00000f86 <_Z12CheckKeyCard6StringPb>:

void CheckKeyCard(String UID, bool *Keycard)
{
     f86:	ef 92       	push	r14
     f88:	ff 92       	push	r15
     f8a:	0f 93       	push	r16
     f8c:	1f 93       	push	r17
     f8e:	cf 93       	push	r28
     f90:	df 93       	push	r29
     f92:	00 d0       	rcall	.+0      	; 0xf94 <_Z12CheckKeyCard6StringPb+0xe>
     f94:	00 d0       	rcall	.+0      	; 0xf96 <_Z12CheckKeyCard6StringPb+0x10>
     f96:	cd b7       	in	r28, 0x3d	; 61
     f98:	de b7       	in	r29, 0x3e	; 62
     f9a:	7c 01       	movw	r14, r24
     f9c:	8b 01       	movw	r16, r22
	String UnlogKey = " 30 45 66 A7";
     f9e:	63 e6       	ldi	r22, 0x63	; 99
     fa0:	72 e0       	ldi	r23, 0x02	; 2
     fa2:	ce 01       	movw	r24, r28
     fa4:	01 96       	adiw	r24, 0x01	; 1
     fa6:	0e 94 a9 29 	call	0x5352	; 0x5352 <_ZN6StringC1EPKc>
	// comparison (only works w/ Strings and "strings")
	operator StringIfHelperType() const { return buffer ? &String::StringIfHelper : 0; }
	int compareTo(const String &s) const;
	unsigned char equals(const String &s) const;
	unsigned char equals(const char *cstr) const;
	unsigned char operator == (const String &rhs) const {return equals(rhs);}
     faa:	be 01       	movw	r22, r28
     fac:	6f 5f       	subi	r22, 0xFF	; 255
     fae:	7f 4f       	sbci	r23, 0xFF	; 255
     fb0:	c7 01       	movw	r24, r14
     fb2:	0e 94 89 2a 	call	0x5512	; 0x5512 <_ZNK6String6equalsERKS_>
	if (UID	== UnlogKey)
     fb6:	88 23       	and	r24, r24
     fb8:	31 f0       	breq	.+12     	; 0xfc6 <_Z12CheckKeyCard6StringPb+0x40>
	{
		*Keycard = true;
     fba:	81 e0       	ldi	r24, 0x01	; 1
     fbc:	f8 01       	movw	r30, r16
     fbe:	80 83       	st	Z, r24
		Serial.println("Welcome Home");
     fc0:	60 e7       	ldi	r22, 0x70	; 112
     fc2:	72 e0       	ldi	r23, 0x02	; 2
     fc4:	0c c0       	rjmp	.+24     	; 0xfde <_Z12CheckKeyCard6StringPb+0x58>
	unsigned char operator == (const char *cstr) const {return equals(cstr);}
	unsigned char operator != (const String &rhs) const {return !equals(rhs);}
     fc6:	be 01       	movw	r22, r28
     fc8:	6f 5f       	subi	r22, 0xFF	; 255
     fca:	7f 4f       	sbci	r23, 0xFF	; 255
     fcc:	c7 01       	movw	r24, r14
     fce:	0e 94 89 2a 	call	0x5512	; 0x5512 <_ZNK6String6equalsERKS_>
	}
	else if (UID != UnlogKey)
     fd2:	81 11       	cpse	r24, r1
     fd4:	08 c0       	rjmp	.+16     	; 0xfe6 <_Z12CheckKeyCard6StringPb+0x60>
	{
		*Keycard = false;
     fd6:	f8 01       	movw	r30, r16
     fd8:	10 82       	st	Z, r1
		Serial.println("Access denied");
     fda:	6d e7       	ldi	r22, 0x7D	; 125
     fdc:	72 e0       	ldi	r23, 0x02	; 2
     fde:	8a e6       	ldi	r24, 0x6A	; 106
     fe0:	95 e0       	ldi	r25, 0x05	; 5
     fe2:	0e 94 17 27 	call	0x4e2e	; 0x4e2e <_ZN5Print7printlnEPKc>

}

void CheckKeyCard(String UID, bool *Keycard)
{
	String UnlogKey = " 30 45 66 A7";
     fe6:	ce 01       	movw	r24, r28
     fe8:	01 96       	adiw	r24, 0x01	; 1
     fea:	0e 94 3f 29 	call	0x527e	; 0x527e <_ZN6StringD1Ev>
	{
		*Keycard = false;
		Serial.println("Access denied");
	}

}
     fee:	26 96       	adiw	r28, 0x06	; 6
     ff0:	0f b6       	in	r0, 0x3f	; 63
     ff2:	f8 94       	cli
     ff4:	de bf       	out	0x3e, r29	; 62
     ff6:	0f be       	out	0x3f, r0	; 63
     ff8:	cd bf       	out	0x3d, r28	; 61
     ffa:	df 91       	pop	r29
     ffc:	cf 91       	pop	r28
     ffe:	1f 91       	pop	r17
    1000:	0f 91       	pop	r16
    1002:	ff 90       	pop	r15
    1004:	ef 90       	pop	r14
    1006:	08 95       	ret

00001008 <_GLOBAL__sub_I_mfrc522>:
#include "KeyCardAccess.h"

MFRC522 mfrc522(SS_PIN, RST_PIN);
    1008:	45 e0       	ldi	r20, 0x05	; 5
    100a:	65 e3       	ldi	r22, 0x35	; 53
    100c:	83 ef       	ldi	r24, 0xF3	; 243
    100e:	93 e0       	ldi	r25, 0x03	; 3
    1010:	0c 94 5f 1a 	jmp	0x34be	; 0x34be <_ZN7MFRC522C1Ehh>

00001014 <_ZN8SPIClass16beginTransactionE11SPISettings>:
    1014:	20 91 9a 04 	lds	r18, 0x049A	; 0x80049a <_ZN8SPIClass13interruptModeE>
    1018:	22 23       	and	r18, r18
    101a:	99 f0       	breq	.+38     	; 0x1042 <_ZN8SPIClass16beginTransactionE11SPISettings+0x2e>
    101c:	4f b7       	in	r20, 0x3f	; 63
    101e:	f8 94       	cli
    1020:	20 91 9a 04 	lds	r18, 0x049A	; 0x80049a <_ZN8SPIClass13interruptModeE>
    1024:	21 30       	cpi	r18, 0x01	; 1
    1026:	59 f4       	brne	.+22     	; 0x103e <_ZN8SPIClass16beginTransactionE11SPISettings+0x2a>
    1028:	2d b3       	in	r18, 0x1d	; 29
    102a:	20 93 98 04 	sts	0x0498, r18	; 0x800498 <_ZN8SPIClass13interruptSaveE>
    102e:	3d b3       	in	r19, 0x1d	; 29
    1030:	20 91 99 04 	lds	r18, 0x0499	; 0x800499 <_ZN8SPIClass13interruptMaskE>
    1034:	20 95       	com	r18
    1036:	23 23       	and	r18, r19
    1038:	2d bb       	out	0x1d, r18	; 29
    103a:	4f bf       	out	0x3f, r20	; 63
    103c:	02 c0       	rjmp	.+4      	; 0x1042 <_ZN8SPIClass16beginTransactionE11SPISettings+0x2e>
    103e:	40 93 98 04 	sts	0x0498, r20	; 0x800498 <_ZN8SPIClass13interruptSaveE>
    1042:	8c bd       	out	0x2c, r24	; 44
    1044:	9d bd       	out	0x2d, r25	; 45
    1046:	08 95       	ret

00001048 <_ZN8SPIClass14endTransactionEv>:
    1048:	80 91 9a 04 	lds	r24, 0x049A	; 0x80049a <_ZN8SPIClass13interruptModeE>
    104c:	88 23       	and	r24, r24
    104e:	61 f0       	breq	.+24     	; 0x1068 <_ZN8SPIClass14endTransactionEv+0x20>
    1050:	9f b7       	in	r25, 0x3f	; 63
    1052:	f8 94       	cli
    1054:	20 91 9a 04 	lds	r18, 0x049A	; 0x80049a <_ZN8SPIClass13interruptModeE>
    1058:	80 91 98 04 	lds	r24, 0x0498	; 0x800498 <_ZN8SPIClass13interruptSaveE>
    105c:	21 30       	cpi	r18, 0x01	; 1
    105e:	19 f4       	brne	.+6      	; 0x1066 <_ZN8SPIClass14endTransactionEv+0x1e>
    1060:	8d bb       	out	0x1d, r24	; 29
    1062:	9f bf       	out	0x3f, r25	; 63
    1064:	08 95       	ret
    1066:	8f bf       	out	0x3f, r24	; 63
    1068:	08 95       	ret

0000106a <_ZN5Print17availableForWriteEv>:
    106a:	80 e0       	ldi	r24, 0x00	; 0
    106c:	90 e0       	ldi	r25, 0x00	; 0
    106e:	08 95       	ret

00001070 <_ZN5Print5flushEv>:
    1070:	08 95       	ret

00001072 <_ZN12Adafruit_GFX9writeLineEiiiij>:
    1072:	2f 92       	push	r2
    1074:	3f 92       	push	r3
    1076:	4f 92       	push	r4
    1078:	5f 92       	push	r5
    107a:	6f 92       	push	r6
    107c:	7f 92       	push	r7
    107e:	8f 92       	push	r8
    1080:	9f 92       	push	r9
    1082:	af 92       	push	r10
    1084:	bf 92       	push	r11
    1086:	cf 92       	push	r12
    1088:	df 92       	push	r13
    108a:	ef 92       	push	r14
    108c:	ff 92       	push	r15
    108e:	0f 93       	push	r16
    1090:	1f 93       	push	r17
    1092:	cf 93       	push	r28
    1094:	df 93       	push	r29
    1096:	00 d0       	rcall	.+0      	; 0x1098 <_ZN12Adafruit_GFX9writeLineEiiiij+0x26>
    1098:	00 d0       	rcall	.+0      	; 0x109a <_ZN12Adafruit_GFX9writeLineEiiiij+0x28>
    109a:	cd b7       	in	r28, 0x3d	; 61
    109c:	de b7       	in	r29, 0x3e	; 62
    109e:	2c 01       	movw	r4, r24
    10a0:	7e 83       	std	Y+6, r23	; 0x06
    10a2:	6d 83       	std	Y+5, r22	; 0x05
    10a4:	6a 01       	movw	r12, r20
    10a6:	59 01       	movw	r10, r18
    10a8:	c8 01       	movw	r24, r16
    10aa:	fc 82       	std	Y+4, r15	; 0x04
    10ac:	eb 82       	std	Y+3, r14	; 0x03
    10ae:	48 01       	movw	r8, r16
    10b0:	84 1a       	sub	r8, r20
    10b2:	95 0a       	sbc	r9, r21
    10b4:	97 fe       	sbrs	r9, 7
    10b6:	03 c0       	rjmp	.+6      	; 0x10be <_ZN12Adafruit_GFX9writeLineEiiiij+0x4c>
    10b8:	91 94       	neg	r9
    10ba:	81 94       	neg	r8
    10bc:	91 08       	sbc	r9, r1
    10be:	35 01       	movw	r6, r10
    10c0:	2d 81       	ldd	r18, Y+5	; 0x05
    10c2:	3e 81       	ldd	r19, Y+6	; 0x06
    10c4:	62 1a       	sub	r6, r18
    10c6:	73 0a       	sbc	r7, r19
    10c8:	77 fe       	sbrs	r7, 7
    10ca:	03 c0       	rjmp	.+6      	; 0x10d2 <_ZN12Adafruit_GFX9writeLineEiiiij+0x60>
    10cc:	71 94       	neg	r7
    10ce:	61 94       	neg	r6
    10d0:	71 08       	sbc	r7, r1
    10d2:	68 14       	cp	r6, r8
    10d4:	79 04       	cpc	r7, r9
    10d6:	5c f4       	brge	.+22     	; 0x10ee <_ZN12Adafruit_GFX9writeLineEiiiij+0x7c>
    10d8:	3a 2d       	mov	r19, r10
    10da:	2b 2d       	mov	r18, r11
    10dc:	5c 01       	movw	r10, r24
    10de:	83 2f       	mov	r24, r19
    10e0:	92 2f       	mov	r25, r18
    10e2:	3d 81       	ldd	r19, Y+5	; 0x05
    10e4:	2e 81       	ldd	r18, Y+6	; 0x06
    10e6:	de 82       	std	Y+6, r13	; 0x06
    10e8:	cd 82       	std	Y+5, r12	; 0x05
    10ea:	c3 2e       	mov	r12, r19
    10ec:	d2 2e       	mov	r13, r18
    10ee:	ad 81       	ldd	r26, Y+5	; 0x05
    10f0:	be 81       	ldd	r27, Y+6	; 0x06
    10f2:	aa 16       	cp	r10, r26
    10f4:	bb 06       	cpc	r11, r27
    10f6:	5c f4       	brge	.+22     	; 0x110e <_ZN12Adafruit_GFX9writeLineEiiiij+0x9c>
    10f8:	3c 2d       	mov	r19, r12
    10fa:	2d 2d       	mov	r18, r13
    10fc:	6c 01       	movw	r12, r24
    10fe:	83 2f       	mov	r24, r19
    1100:	92 2f       	mov	r25, r18
    1102:	3d 81       	ldd	r19, Y+5	; 0x05
    1104:	2e 81       	ldd	r18, Y+6	; 0x06
    1106:	be 82       	std	Y+6, r11	; 0x06
    1108:	ad 82       	std	Y+5, r10	; 0x05
    110a:	a3 2e       	mov	r10, r19
    110c:	b2 2e       	mov	r11, r18
    110e:	85 01       	movw	r16, r10
    1110:	2d 81       	ldd	r18, Y+5	; 0x05
    1112:	3e 81       	ldd	r19, Y+6	; 0x06
    1114:	02 1b       	sub	r16, r18
    1116:	13 0b       	sbc	r17, r19
    1118:	1c 01       	movw	r2, r24
    111a:	2c 18       	sub	r2, r12
    111c:	3d 08       	sbc	r3, r13
    111e:	37 fe       	sbrs	r3, 7
    1120:	03 c0       	rjmp	.+6      	; 0x1128 <_ZN12Adafruit_GFX9writeLineEiiiij+0xb6>
    1122:	31 94       	neg	r3
    1124:	21 94       	neg	r2
    1126:	31 08       	sbc	r3, r1
    1128:	78 01       	movw	r14, r16
    112a:	17 ff       	sbrs	r17, 7
    112c:	03 c0       	rjmp	.+6      	; 0x1134 <_ZN12Adafruit_GFX9writeLineEiiiij+0xc2>
    112e:	3f ef       	ldi	r19, 0xFF	; 255
    1130:	e3 1a       	sub	r14, r19
    1132:	f3 0a       	sbc	r15, r19
    1134:	f5 94       	asr	r15
    1136:	e7 94       	ror	r14
    1138:	c8 16       	cp	r12, r24
    113a:	d9 06       	cpc	r13, r25
    113c:	2c f0       	brlt	.+10     	; 0x1148 <_ZN12Adafruit_GFX9writeLineEiiiij+0xd6>
    113e:	8f ef       	ldi	r24, 0xFF	; 255
    1140:	9f ef       	ldi	r25, 0xFF	; 255
    1142:	9a 83       	std	Y+2, r25	; 0x02
    1144:	89 83       	std	Y+1, r24	; 0x01
    1146:	04 c0       	rjmp	.+8      	; 0x1150 <_ZN12Adafruit_GFX9writeLineEiiiij+0xde>
    1148:	a1 e0       	ldi	r26, 0x01	; 1
    114a:	b0 e0       	ldi	r27, 0x00	; 0
    114c:	ba 83       	std	Y+2, r27	; 0x02
    114e:	a9 83       	std	Y+1, r26	; 0x01
    1150:	2d 81       	ldd	r18, Y+5	; 0x05
    1152:	3e 81       	ldd	r19, Y+6	; 0x06
    1154:	a2 16       	cp	r10, r18
    1156:	b3 06       	cpc	r11, r19
    1158:	24 f1       	brlt	.+72     	; 0x11a2 <_ZN12Adafruit_GFX9writeLineEiiiij+0x130>
    115a:	d2 01       	movw	r26, r4
    115c:	ed 91       	ld	r30, X+
    115e:	fc 91       	ld	r31, X
    1160:	04 84       	ldd	r0, Z+12	; 0x0c
    1162:	f5 85       	ldd	r31, Z+13	; 0x0d
    1164:	e0 2d       	mov	r30, r0
    1166:	2b 81       	ldd	r18, Y+3	; 0x03
    1168:	3c 81       	ldd	r19, Y+4	; 0x04
    116a:	68 14       	cp	r6, r8
    116c:	79 04       	cpc	r7, r9
    116e:	24 f4       	brge	.+8      	; 0x1178 <_ZN12Adafruit_GFX9writeLineEiiiij+0x106>
    1170:	4d 81       	ldd	r20, Y+5	; 0x05
    1172:	5e 81       	ldd	r21, Y+6	; 0x06
    1174:	b6 01       	movw	r22, r12
    1176:	03 c0       	rjmp	.+6      	; 0x117e <_ZN12Adafruit_GFX9writeLineEiiiij+0x10c>
    1178:	a6 01       	movw	r20, r12
    117a:	6d 81       	ldd	r22, Y+5	; 0x05
    117c:	7e 81       	ldd	r23, Y+6	; 0x06
    117e:	c2 01       	movw	r24, r4
    1180:	19 95       	eicall
    1182:	e2 18       	sub	r14, r2
    1184:	f3 08       	sbc	r15, r3
    1186:	f7 fe       	sbrs	r15, 7
    1188:	06 c0       	rjmp	.+12     	; 0x1196 <_ZN12Adafruit_GFX9writeLineEiiiij+0x124>
    118a:	29 81       	ldd	r18, Y+1	; 0x01
    118c:	3a 81       	ldd	r19, Y+2	; 0x02
    118e:	c2 0e       	add	r12, r18
    1190:	d3 1e       	adc	r13, r19
    1192:	e0 0e       	add	r14, r16
    1194:	f1 1e       	adc	r15, r17
    1196:	8d 81       	ldd	r24, Y+5	; 0x05
    1198:	9e 81       	ldd	r25, Y+6	; 0x06
    119a:	01 96       	adiw	r24, 0x01	; 1
    119c:	9e 83       	std	Y+6, r25	; 0x06
    119e:	8d 83       	std	Y+5, r24	; 0x05
    11a0:	d7 cf       	rjmp	.-82     	; 0x1150 <_ZN12Adafruit_GFX9writeLineEiiiij+0xde>
    11a2:	26 96       	adiw	r28, 0x06	; 6
    11a4:	0f b6       	in	r0, 0x3f	; 63
    11a6:	f8 94       	cli
    11a8:	de bf       	out	0x3e, r29	; 62
    11aa:	0f be       	out	0x3f, r0	; 63
    11ac:	cd bf       	out	0x3d, r28	; 61
    11ae:	df 91       	pop	r29
    11b0:	cf 91       	pop	r28
    11b2:	1f 91       	pop	r17
    11b4:	0f 91       	pop	r16
    11b6:	ff 90       	pop	r15
    11b8:	ef 90       	pop	r14
    11ba:	df 90       	pop	r13
    11bc:	cf 90       	pop	r12
    11be:	bf 90       	pop	r11
    11c0:	af 90       	pop	r10
    11c2:	9f 90       	pop	r9
    11c4:	8f 90       	pop	r8
    11c6:	7f 90       	pop	r7
    11c8:	6f 90       	pop	r6
    11ca:	5f 90       	pop	r5
    11cc:	4f 90       	pop	r4
    11ce:	3f 90       	pop	r3
    11d0:	2f 90       	pop	r2
    11d2:	08 95       	ret

000011d4 <_ZN12Adafruit_GFX10writePixelEiij>:
    11d4:	dc 01       	movw	r26, r24
    11d6:	ed 91       	ld	r30, X+
    11d8:	fc 91       	ld	r31, X
    11da:	00 84       	ldd	r0, Z+8	; 0x08
    11dc:	f1 85       	ldd	r31, Z+9	; 0x09
    11de:	e0 2d       	mov	r30, r0
    11e0:	19 94       	eijmp

000011e2 <_ZN12Adafruit_GFX14writeFastVLineEiiij>:
    11e2:	0f 93       	push	r16
    11e4:	1f 93       	push	r17
    11e6:	dc 01       	movw	r26, r24
    11e8:	ed 91       	ld	r30, X+
    11ea:	fc 91       	ld	r31, X
    11ec:	04 8c       	ldd	r0, Z+28	; 0x1c
    11ee:	f5 8d       	ldd	r31, Z+29	; 0x1d
    11f0:	e0 2d       	mov	r30, r0
    11f2:	19 95       	eicall
    11f4:	1f 91       	pop	r17
    11f6:	0f 91       	pop	r16
    11f8:	08 95       	ret

000011fa <_ZN12Adafruit_GFX14writeFastHLineEiiij>:
    11fa:	0f 93       	push	r16
    11fc:	1f 93       	push	r17
    11fe:	dc 01       	movw	r26, r24
    1200:	ed 91       	ld	r30, X+
    1202:	fc 91       	ld	r31, X
    1204:	06 8c       	ldd	r0, Z+30	; 0x1e
    1206:	f7 8d       	ldd	r31, Z+31	; 0x1f
    1208:	e0 2d       	mov	r30, r0
    120a:	19 95       	eicall
    120c:	1f 91       	pop	r17
    120e:	0f 91       	pop	r16
    1210:	08 95       	ret

00001212 <_ZN12Adafruit_GFX13writeFillRectEiiiij>:
    1212:	ef 92       	push	r14
    1214:	ff 92       	push	r15
    1216:	0f 93       	push	r16
    1218:	1f 93       	push	r17
    121a:	dc 01       	movw	r26, r24
    121c:	ed 91       	ld	r30, X+
    121e:	fc 91       	ld	r31, X
    1220:	00 a0       	ldd	r0, Z+32	; 0x20
    1222:	f1 a1       	ldd	r31, Z+33	; 0x21
    1224:	e0 2d       	mov	r30, r0
    1226:	19 95       	eicall
    1228:	1f 91       	pop	r17
    122a:	0f 91       	pop	r16
    122c:	ff 90       	pop	r15
    122e:	ef 90       	pop	r14
    1230:	08 95       	ret

00001232 <_ZN12Adafruit_GFX10startWriteEv>:
    1232:	08 95       	ret

00001234 <_ZN12Adafruit_GFX13drawFastVLineEiiij>:
    1234:	8f 92       	push	r8
    1236:	9f 92       	push	r9
    1238:	af 92       	push	r10
    123a:	bf 92       	push	r11
    123c:	cf 92       	push	r12
    123e:	df 92       	push	r13
    1240:	ef 92       	push	r14
    1242:	ff 92       	push	r15
    1244:	0f 93       	push	r16
    1246:	1f 93       	push	r17
    1248:	cf 93       	push	r28
    124a:	df 93       	push	r29
    124c:	ec 01       	movw	r28, r24
    124e:	5b 01       	movw	r10, r22
    1250:	4a 01       	movw	r8, r20
    1252:	69 01       	movw	r12, r18
    1254:	78 01       	movw	r14, r16
    1256:	e8 81       	ld	r30, Y
    1258:	f9 81       	ldd	r31, Y+1	; 0x01
    125a:	02 84       	ldd	r0, Z+10	; 0x0a
    125c:	f3 85       	ldd	r31, Z+11	; 0x0b
    125e:	e0 2d       	mov	r30, r0
    1260:	19 95       	eicall
    1262:	c8 0c       	add	r12, r8
    1264:	d9 1c       	adc	r13, r9
    1266:	86 01       	movw	r16, r12
    1268:	01 50       	subi	r16, 0x01	; 1
    126a:	11 09       	sbc	r17, r1
    126c:	e8 81       	ld	r30, Y
    126e:	f9 81       	ldd	r31, Y+1	; 0x01
    1270:	04 88       	ldd	r0, Z+20	; 0x14
    1272:	f5 89       	ldd	r31, Z+21	; 0x15
    1274:	e0 2d       	mov	r30, r0
    1276:	95 01       	movw	r18, r10
    1278:	a4 01       	movw	r20, r8
    127a:	b5 01       	movw	r22, r10
    127c:	ce 01       	movw	r24, r28
    127e:	19 95       	eicall
    1280:	e8 81       	ld	r30, Y
    1282:	f9 81       	ldd	r31, Y+1	; 0x01
    1284:	06 88       	ldd	r0, Z+22	; 0x16
    1286:	f7 89       	ldd	r31, Z+23	; 0x17
    1288:	e0 2d       	mov	r30, r0
    128a:	ce 01       	movw	r24, r28
    128c:	df 91       	pop	r29
    128e:	cf 91       	pop	r28
    1290:	1f 91       	pop	r17
    1292:	0f 91       	pop	r16
    1294:	ff 90       	pop	r15
    1296:	ef 90       	pop	r14
    1298:	df 90       	pop	r13
    129a:	cf 90       	pop	r12
    129c:	bf 90       	pop	r11
    129e:	af 90       	pop	r10
    12a0:	9f 90       	pop	r9
    12a2:	8f 90       	pop	r8
    12a4:	19 94       	eijmp

000012a6 <_ZN12Adafruit_GFX13drawFastHLineEiiij>:
    12a6:	8f 92       	push	r8
    12a8:	9f 92       	push	r9
    12aa:	af 92       	push	r10
    12ac:	bf 92       	push	r11
    12ae:	cf 92       	push	r12
    12b0:	df 92       	push	r13
    12b2:	ef 92       	push	r14
    12b4:	ff 92       	push	r15
    12b6:	0f 93       	push	r16
    12b8:	1f 93       	push	r17
    12ba:	cf 93       	push	r28
    12bc:	df 93       	push	r29
    12be:	ec 01       	movw	r28, r24
    12c0:	5b 01       	movw	r10, r22
    12c2:	4a 01       	movw	r8, r20
    12c4:	69 01       	movw	r12, r18
    12c6:	e8 81       	ld	r30, Y
    12c8:	f9 81       	ldd	r31, Y+1	; 0x01
    12ca:	02 84       	ldd	r0, Z+10	; 0x0a
    12cc:	f3 85       	ldd	r31, Z+11	; 0x0b
    12ce:	e0 2d       	mov	r30, r0
    12d0:	19 95       	eicall
    12d2:	95 01       	movw	r18, r10
    12d4:	2c 0d       	add	r18, r12
    12d6:	3d 1d       	adc	r19, r13
    12d8:	21 50       	subi	r18, 0x01	; 1
    12da:	31 09       	sbc	r19, r1
    12dc:	e8 81       	ld	r30, Y
    12de:	f9 81       	ldd	r31, Y+1	; 0x01
    12e0:	04 88       	ldd	r0, Z+20	; 0x14
    12e2:	f5 89       	ldd	r31, Z+21	; 0x15
    12e4:	e0 2d       	mov	r30, r0
    12e6:	78 01       	movw	r14, r16
    12e8:	84 01       	movw	r16, r8
    12ea:	a4 01       	movw	r20, r8
    12ec:	b5 01       	movw	r22, r10
    12ee:	ce 01       	movw	r24, r28
    12f0:	19 95       	eicall
    12f2:	e8 81       	ld	r30, Y
    12f4:	f9 81       	ldd	r31, Y+1	; 0x01
    12f6:	06 88       	ldd	r0, Z+22	; 0x16
    12f8:	f7 89       	ldd	r31, Z+23	; 0x17
    12fa:	e0 2d       	mov	r30, r0
    12fc:	ce 01       	movw	r24, r28
    12fe:	df 91       	pop	r29
    1300:	cf 91       	pop	r28
    1302:	1f 91       	pop	r17
    1304:	0f 91       	pop	r16
    1306:	ff 90       	pop	r15
    1308:	ef 90       	pop	r14
    130a:	df 90       	pop	r13
    130c:	cf 90       	pop	r12
    130e:	bf 90       	pop	r11
    1310:	af 90       	pop	r10
    1312:	9f 90       	pop	r9
    1314:	8f 90       	pop	r8
    1316:	19 94       	eijmp

00001318 <_ZN12Adafruit_GFX8fillRectEiiiij>:
    1318:	4f 92       	push	r4
    131a:	5f 92       	push	r5
    131c:	6f 92       	push	r6
    131e:	7f 92       	push	r7
    1320:	8f 92       	push	r8
    1322:	9f 92       	push	r9
    1324:	af 92       	push	r10
    1326:	bf 92       	push	r11
    1328:	cf 92       	push	r12
    132a:	df 92       	push	r13
    132c:	ef 92       	push	r14
    132e:	ff 92       	push	r15
    1330:	0f 93       	push	r16
    1332:	1f 93       	push	r17
    1334:	cf 93       	push	r28
    1336:	df 93       	push	r29
    1338:	6c 01       	movw	r12, r24
    133a:	2b 01       	movw	r4, r22
    133c:	5a 01       	movw	r10, r20
    133e:	39 01       	movw	r6, r18
    1340:	48 01       	movw	r8, r16
    1342:	dc 01       	movw	r26, r24
    1344:	ed 91       	ld	r30, X+
    1346:	fc 91       	ld	r31, X
    1348:	02 84       	ldd	r0, Z+10	; 0x0a
    134a:	f3 85       	ldd	r31, Z+11	; 0x0b
    134c:	e0 2d       	mov	r30, r0
    134e:	19 95       	eicall
    1350:	e2 01       	movw	r28, r4
    1352:	64 0c       	add	r6, r4
    1354:	75 1c       	adc	r7, r5
    1356:	d6 01       	movw	r26, r12
    1358:	ed 91       	ld	r30, X+
    135a:	fc 91       	ld	r31, X
    135c:	c6 15       	cp	r28, r6
    135e:	d7 05       	cpc	r29, r7
    1360:	5c f4       	brge	.+22     	; 0x1378 <_ZN12Adafruit_GFX8fillRectEiiiij+0x60>
    1362:	00 88       	ldd	r0, Z+16	; 0x10
    1364:	f1 89       	ldd	r31, Z+17	; 0x11
    1366:	e0 2d       	mov	r30, r0
    1368:	87 01       	movw	r16, r14
    136a:	94 01       	movw	r18, r8
    136c:	a5 01       	movw	r20, r10
    136e:	be 01       	movw	r22, r28
    1370:	c6 01       	movw	r24, r12
    1372:	19 95       	eicall
    1374:	21 96       	adiw	r28, 0x01	; 1
    1376:	ef cf       	rjmp	.-34     	; 0x1356 <_ZN12Adafruit_GFX8fillRectEiiiij+0x3e>
    1378:	06 88       	ldd	r0, Z+22	; 0x16
    137a:	f7 89       	ldd	r31, Z+23	; 0x17
    137c:	e0 2d       	mov	r30, r0
    137e:	c6 01       	movw	r24, r12
    1380:	df 91       	pop	r29
    1382:	cf 91       	pop	r28
    1384:	1f 91       	pop	r17
    1386:	0f 91       	pop	r16
    1388:	ff 90       	pop	r15
    138a:	ef 90       	pop	r14
    138c:	df 90       	pop	r13
    138e:	cf 90       	pop	r12
    1390:	bf 90       	pop	r11
    1392:	af 90       	pop	r10
    1394:	9f 90       	pop	r9
    1396:	8f 90       	pop	r8
    1398:	7f 90       	pop	r7
    139a:	6f 90       	pop	r6
    139c:	5f 90       	pop	r5
    139e:	4f 90       	pop	r4
    13a0:	19 94       	eijmp

000013a2 <_ZN12Adafruit_GFX10fillScreenEj>:
    13a2:	ef 92       	push	r14
    13a4:	ff 92       	push	r15
    13a6:	0f 93       	push	r16
    13a8:	1f 93       	push	r17
    13aa:	dc 01       	movw	r26, r24
    13ac:	1a 96       	adiw	r26, 0x0a	; 10
    13ae:	0d 91       	ld	r16, X+
    13b0:	1c 91       	ld	r17, X
    13b2:	1b 97       	sbiw	r26, 0x0b	; 11
    13b4:	18 96       	adiw	r26, 0x08	; 8
    13b6:	2d 91       	ld	r18, X+
    13b8:	3c 91       	ld	r19, X
    13ba:	19 97       	sbiw	r26, 0x09	; 9
    13bc:	ed 91       	ld	r30, X+
    13be:	fc 91       	ld	r31, X
    13c0:	00 a0       	ldd	r0, Z+32	; 0x20
    13c2:	f1 a1       	ldd	r31, Z+33	; 0x21
    13c4:	e0 2d       	mov	r30, r0
    13c6:	7b 01       	movw	r14, r22
    13c8:	40 e0       	ldi	r20, 0x00	; 0
    13ca:	50 e0       	ldi	r21, 0x00	; 0
    13cc:	60 e0       	ldi	r22, 0x00	; 0
    13ce:	70 e0       	ldi	r23, 0x00	; 0
    13d0:	19 95       	eicall
    13d2:	1f 91       	pop	r17
    13d4:	0f 91       	pop	r16
    13d6:	ff 90       	pop	r15
    13d8:	ef 90       	pop	r14
    13da:	08 95       	ret

000013dc <_ZN12Adafruit_GFX8drawLineEiiiij>:
    13dc:	8f 92       	push	r8
    13de:	9f 92       	push	r9
    13e0:	af 92       	push	r10
    13e2:	bf 92       	push	r11
    13e4:	cf 92       	push	r12
    13e6:	df 92       	push	r13
    13e8:	ef 92       	push	r14
    13ea:	ff 92       	push	r15
    13ec:	0f 93       	push	r16
    13ee:	1f 93       	push	r17
    13f0:	cf 93       	push	r28
    13f2:	df 93       	push	r29
    13f4:	4c 01       	movw	r8, r24
    13f6:	6b 01       	movw	r12, r22
    13f8:	5a 01       	movw	r10, r20
    13fa:	e9 01       	movw	r28, r18
    13fc:	dc 01       	movw	r26, r24
    13fe:	ed 91       	ld	r30, X+
    1400:	fc 91       	ld	r31, X
    1402:	62 17       	cp	r22, r18
    1404:	73 07       	cpc	r23, r19
    1406:	81 f4       	brne	.+32     	; 0x1428 <_ZN12Adafruit_GFX8drawLineEiiiij+0x4c>
    1408:	04 17       	cp	r16, r20
    140a:	15 07       	cpc	r17, r21
    140c:	24 f4       	brge	.+8      	; 0x1416 <_ZN12Adafruit_GFX8drawLineEiiiij+0x3a>
    140e:	8b 2d       	mov	r24, r11
    1410:	58 01       	movw	r10, r16
    1412:	04 2f       	mov	r16, r20
    1414:	18 2f       	mov	r17, r24
    1416:	0a 19       	sub	r16, r10
    1418:	1b 09       	sbc	r17, r11
    141a:	98 01       	movw	r18, r16
    141c:	2f 5f       	subi	r18, 0xFF	; 255
    141e:	3f 4f       	sbci	r19, 0xFF	; 255
    1420:	04 8c       	ldd	r0, Z+28	; 0x1c
    1422:	f5 8d       	ldd	r31, Z+29	; 0x1d
    1424:	e0 2d       	mov	r30, r0
    1426:	12 c0       	rjmp	.+36     	; 0x144c <_ZN12Adafruit_GFX8drawLineEiiiij+0x70>
    1428:	40 17       	cp	r20, r16
    142a:	51 07       	cpc	r21, r17
    142c:	09 f5       	brne	.+66     	; 0x1470 <_ZN12Adafruit_GFX8drawLineEiiiij+0x94>
    142e:	26 17       	cp	r18, r22
    1430:	37 07       	cpc	r19, r23
    1432:	24 f4       	brge	.+8      	; 0x143c <_ZN12Adafruit_GFX8drawLineEiiiij+0x60>
    1434:	8d 2d       	mov	r24, r13
    1436:	69 01       	movw	r12, r18
    1438:	c6 2f       	mov	r28, r22
    143a:	d8 2f       	mov	r29, r24
    143c:	9e 01       	movw	r18, r28
    143e:	2c 19       	sub	r18, r12
    1440:	3d 09       	sbc	r19, r13
    1442:	2f 5f       	subi	r18, 0xFF	; 255
    1444:	3f 4f       	sbci	r19, 0xFF	; 255
    1446:	06 8c       	ldd	r0, Z+30	; 0x1e
    1448:	f7 8d       	ldd	r31, Z+31	; 0x1f
    144a:	e0 2d       	mov	r30, r0
    144c:	87 01       	movw	r16, r14
    144e:	a5 01       	movw	r20, r10
    1450:	b6 01       	movw	r22, r12
    1452:	c4 01       	movw	r24, r8
    1454:	19 95       	eicall
    1456:	df 91       	pop	r29
    1458:	cf 91       	pop	r28
    145a:	1f 91       	pop	r17
    145c:	0f 91       	pop	r16
    145e:	ff 90       	pop	r15
    1460:	ef 90       	pop	r14
    1462:	df 90       	pop	r13
    1464:	cf 90       	pop	r12
    1466:	bf 90       	pop	r11
    1468:	af 90       	pop	r10
    146a:	9f 90       	pop	r9
    146c:	8f 90       	pop	r8
    146e:	08 95       	ret
    1470:	02 84       	ldd	r0, Z+10	; 0x0a
    1472:	f3 85       	ldd	r31, Z+11	; 0x0b
    1474:	e0 2d       	mov	r30, r0
    1476:	19 95       	eicall
    1478:	d4 01       	movw	r26, r8
    147a:	ed 91       	ld	r30, X+
    147c:	fc 91       	ld	r31, X
    147e:	04 88       	ldd	r0, Z+20	; 0x14
    1480:	f5 89       	ldd	r31, Z+21	; 0x15
    1482:	e0 2d       	mov	r30, r0
    1484:	9e 01       	movw	r18, r28
    1486:	a5 01       	movw	r20, r10
    1488:	b6 01       	movw	r22, r12
    148a:	c4 01       	movw	r24, r8
    148c:	19 95       	eicall
    148e:	d4 01       	movw	r26, r8
    1490:	ed 91       	ld	r30, X+
    1492:	fc 91       	ld	r31, X
    1494:	06 88       	ldd	r0, Z+22	; 0x16
    1496:	f7 89       	ldd	r31, Z+23	; 0x17
    1498:	e0 2d       	mov	r30, r0
    149a:	c4 01       	movw	r24, r8
    149c:	df 91       	pop	r29
    149e:	cf 91       	pop	r28
    14a0:	1f 91       	pop	r17
    14a2:	0f 91       	pop	r16
    14a4:	ff 90       	pop	r15
    14a6:	ef 90       	pop	r14
    14a8:	df 90       	pop	r13
    14aa:	cf 90       	pop	r12
    14ac:	bf 90       	pop	r11
    14ae:	af 90       	pop	r10
    14b0:	9f 90       	pop	r9
    14b2:	8f 90       	pop	r8
    14b4:	19 94       	eijmp

000014b6 <_ZN12Adafruit_GFX8drawRectEiiiij>:
    14b6:	6f 92       	push	r6
    14b8:	7f 92       	push	r7
    14ba:	8f 92       	push	r8
    14bc:	9f 92       	push	r9
    14be:	af 92       	push	r10
    14c0:	bf 92       	push	r11
    14c2:	cf 92       	push	r12
    14c4:	df 92       	push	r13
    14c6:	ef 92       	push	r14
    14c8:	ff 92       	push	r15
    14ca:	0f 93       	push	r16
    14cc:	1f 93       	push	r17
    14ce:	cf 93       	push	r28
    14d0:	df 93       	push	r29
    14d2:	ec 01       	movw	r28, r24
    14d4:	4b 01       	movw	r8, r22
    14d6:	5a 01       	movw	r10, r20
    14d8:	69 01       	movw	r12, r18
    14da:	38 01       	movw	r6, r16
    14dc:	e8 81       	ld	r30, Y
    14de:	f9 81       	ldd	r31, Y+1	; 0x01
    14e0:	02 84       	ldd	r0, Z+10	; 0x0a
    14e2:	f3 85       	ldd	r31, Z+11	; 0x0b
    14e4:	e0 2d       	mov	r30, r0
    14e6:	19 95       	eicall
    14e8:	e8 81       	ld	r30, Y
    14ea:	f9 81       	ldd	r31, Y+1	; 0x01
    14ec:	02 88       	ldd	r0, Z+18	; 0x12
    14ee:	f3 89       	ldd	r31, Z+19	; 0x13
    14f0:	e0 2d       	mov	r30, r0
    14f2:	87 01       	movw	r16, r14
    14f4:	96 01       	movw	r18, r12
    14f6:	a5 01       	movw	r20, r10
    14f8:	b4 01       	movw	r22, r8
    14fa:	ce 01       	movw	r24, r28
    14fc:	19 95       	eicall
    14fe:	a5 01       	movw	r20, r10
    1500:	46 0d       	add	r20, r6
    1502:	57 1d       	adc	r21, r7
    1504:	41 50       	subi	r20, 0x01	; 1
    1506:	51 09       	sbc	r21, r1
    1508:	e8 81       	ld	r30, Y
    150a:	f9 81       	ldd	r31, Y+1	; 0x01
    150c:	02 88       	ldd	r0, Z+18	; 0x12
    150e:	f3 89       	ldd	r31, Z+19	; 0x13
    1510:	e0 2d       	mov	r30, r0
    1512:	96 01       	movw	r18, r12
    1514:	b4 01       	movw	r22, r8
    1516:	ce 01       	movw	r24, r28
    1518:	19 95       	eicall
    151a:	e8 81       	ld	r30, Y
    151c:	f9 81       	ldd	r31, Y+1	; 0x01
    151e:	00 88       	ldd	r0, Z+16	; 0x10
    1520:	f1 89       	ldd	r31, Z+17	; 0x11
    1522:	e0 2d       	mov	r30, r0
    1524:	93 01       	movw	r18, r6
    1526:	a5 01       	movw	r20, r10
    1528:	b4 01       	movw	r22, r8
    152a:	ce 01       	movw	r24, r28
    152c:	19 95       	eicall
    152e:	c8 0c       	add	r12, r8
    1530:	d9 1c       	adc	r13, r9
    1532:	b6 01       	movw	r22, r12
    1534:	61 50       	subi	r22, 0x01	; 1
    1536:	71 09       	sbc	r23, r1
    1538:	e8 81       	ld	r30, Y
    153a:	f9 81       	ldd	r31, Y+1	; 0x01
    153c:	00 88       	ldd	r0, Z+16	; 0x10
    153e:	f1 89       	ldd	r31, Z+17	; 0x11
    1540:	e0 2d       	mov	r30, r0
    1542:	93 01       	movw	r18, r6
    1544:	a5 01       	movw	r20, r10
    1546:	ce 01       	movw	r24, r28
    1548:	19 95       	eicall
    154a:	e8 81       	ld	r30, Y
    154c:	f9 81       	ldd	r31, Y+1	; 0x01
    154e:	06 88       	ldd	r0, Z+22	; 0x16
    1550:	f7 89       	ldd	r31, Z+23	; 0x17
    1552:	e0 2d       	mov	r30, r0
    1554:	ce 01       	movw	r24, r28
    1556:	df 91       	pop	r29
    1558:	cf 91       	pop	r28
    155a:	1f 91       	pop	r17
    155c:	0f 91       	pop	r16
    155e:	ff 90       	pop	r15
    1560:	ef 90       	pop	r14
    1562:	df 90       	pop	r13
    1564:	cf 90       	pop	r12
    1566:	bf 90       	pop	r11
    1568:	af 90       	pop	r10
    156a:	9f 90       	pop	r9
    156c:	8f 90       	pop	r8
    156e:	7f 90       	pop	r7
    1570:	6f 90       	pop	r6
    1572:	19 94       	eijmp

00001574 <_ZN12Adafruit_GFX13invertDisplayEb>:
    1574:	08 95       	ret

00001576 <_ZN12Adafruit_GFX11setRotationEh>:
    1576:	fc 01       	movw	r30, r24
    1578:	63 70       	andi	r22, 0x03	; 3
    157a:	66 8b       	std	Z+22, r22	; 0x16
    157c:	84 81       	ldd	r24, Z+4	; 0x04
    157e:	95 81       	ldd	r25, Z+5	; 0x05
    1580:	26 81       	ldd	r18, Z+6	; 0x06
    1582:	37 81       	ldd	r19, Z+7	; 0x07
    1584:	61 30       	cpi	r22, 0x01	; 1
    1586:	39 f0       	breq	.+14     	; 0x1596 <_ZN12Adafruit_GFX11setRotationEh+0x20>
    1588:	63 30       	cpi	r22, 0x03	; 3
    158a:	29 f0       	breq	.+10     	; 0x1596 <_ZN12Adafruit_GFX11setRotationEh+0x20>
    158c:	91 87       	std	Z+9, r25	; 0x09
    158e:	80 87       	std	Z+8, r24	; 0x08
    1590:	33 87       	std	Z+11, r19	; 0x0b
    1592:	22 87       	std	Z+10, r18	; 0x0a
    1594:	08 95       	ret
    1596:	31 87       	std	Z+9, r19	; 0x09
    1598:	20 87       	std	Z+8, r18	; 0x08
    159a:	93 87       	std	Z+11, r25	; 0x0b
    159c:	82 87       	std	Z+10, r24	; 0x0a
    159e:	08 95       	ret

000015a0 <_ZN12Adafruit_GFXC1Eii>:
    15a0:	fc 01       	movw	r30, r24
    15a2:	13 82       	std	Z+3, r1	; 0x03
    15a4:	12 82       	std	Z+2, r1	; 0x02
    15a6:	8f e8       	ldi	r24, 0x8F	; 143
    15a8:	92 e0       	ldi	r25, 0x02	; 2
    15aa:	91 83       	std	Z+1, r25	; 0x01
    15ac:	80 83       	st	Z, r24
    15ae:	75 83       	std	Z+5, r23	; 0x05
    15b0:	64 83       	std	Z+4, r22	; 0x04
    15b2:	57 83       	std	Z+7, r21	; 0x07
    15b4:	46 83       	std	Z+6, r20	; 0x06
    15b6:	71 87       	std	Z+9, r23	; 0x09
    15b8:	60 87       	std	Z+8, r22	; 0x08
    15ba:	53 87       	std	Z+11, r21	; 0x0b
    15bc:	42 87       	std	Z+10, r20	; 0x0a
    15be:	16 8a       	std	Z+22, r1	; 0x16
    15c0:	15 86       	std	Z+13, r1	; 0x0d
    15c2:	14 86       	std	Z+12, r1	; 0x0c
    15c4:	17 86       	std	Z+15, r1	; 0x0f
    15c6:	16 86       	std	Z+14, r1	; 0x0e
    15c8:	81 e0       	ldi	r24, 0x01	; 1
    15ca:	85 8b       	std	Z+21, r24	; 0x15
    15cc:	84 8b       	std	Z+20, r24	; 0x14
    15ce:	2f ef       	ldi	r18, 0xFF	; 255
    15d0:	3f ef       	ldi	r19, 0xFF	; 255
    15d2:	33 8b       	std	Z+19, r19	; 0x13
    15d4:	22 8b       	std	Z+18, r18	; 0x12
    15d6:	31 8b       	std	Z+17, r19	; 0x11
    15d8:	20 8b       	std	Z+16, r18	; 0x10
    15da:	87 8b       	std	Z+23, r24	; 0x17
    15dc:	10 8e       	std	Z+24, r1	; 0x18
    15de:	12 8e       	std	Z+26, r1	; 0x1a
    15e0:	11 8e       	std	Z+25, r1	; 0x19
    15e2:	08 95       	ret

000015e4 <_ZN12Adafruit_GFX10drawBitmapEiiPKhiij>:
    15e4:	3f 92       	push	r3
    15e6:	4f 92       	push	r4
    15e8:	5f 92       	push	r5
    15ea:	6f 92       	push	r6
    15ec:	7f 92       	push	r7
    15ee:	8f 92       	push	r8
    15f0:	9f 92       	push	r9
    15f2:	af 92       	push	r10
    15f4:	bf 92       	push	r11
    15f6:	cf 92       	push	r12
    15f8:	df 92       	push	r13
    15fa:	ef 92       	push	r14
    15fc:	ff 92       	push	r15
    15fe:	0f 93       	push	r16
    1600:	1f 93       	push	r17
    1602:	cf 93       	push	r28
    1604:	df 93       	push	r29
    1606:	cd b7       	in	r28, 0x3d	; 61
    1608:	de b7       	in	r29, 0x3e	; 62
    160a:	2a 97       	sbiw	r28, 0x0a	; 10
    160c:	0f b6       	in	r0, 0x3f	; 63
    160e:	f8 94       	cli
    1610:	de bf       	out	0x3e, r29	; 62
    1612:	0f be       	out	0x3f, r0	; 63
    1614:	cd bf       	out	0x3d, r28	; 61
    1616:	5c 01       	movw	r10, r24
    1618:	7e 83       	std	Y+6, r23	; 0x06
    161a:	6d 83       	std	Y+5, r22	; 0x05
    161c:	58 87       	std	Y+8, r21	; 0x08
    161e:	4f 83       	std	Y+7, r20	; 0x07
    1620:	29 01       	movw	r4, r18
    1622:	37 01       	movw	r6, r14
    1624:	dc 01       	movw	r26, r24
    1626:	ed 91       	ld	r30, X+
    1628:	fc 91       	ld	r31, X
    162a:	02 84       	ldd	r0, Z+10	; 0x0a
    162c:	f3 85       	ldd	r31, Z+11	; 0x0b
    162e:	e0 2d       	mov	r30, r0
    1630:	19 95       	eicall
    1632:	c8 01       	movw	r24, r16
    1634:	07 96       	adiw	r24, 0x07	; 7
    1636:	97 fd       	sbrc	r25, 7
    1638:	07 96       	adiw	r24, 0x07	; 7
    163a:	9c 01       	movw	r18, r24
    163c:	93 e0       	ldi	r25, 0x03	; 3
    163e:	35 95       	asr	r19
    1640:	27 95       	ror	r18
    1642:	9a 95       	dec	r25
    1644:	e1 f7       	brne	.-8      	; 0x163e <_ZN12Adafruit_GFX10drawBitmapEiiPKhiij+0x5a>
    1646:	3a 83       	std	Y+2, r19	; 0x02
    1648:	29 83       	std	Y+1, r18	; 0x01
    164a:	81 2c       	mov	r8, r1
    164c:	91 2c       	mov	r9, r1
    164e:	e1 2c       	mov	r14, r1
    1650:	f1 2c       	mov	r15, r1
    1652:	31 2c       	mov	r3, r1
    1654:	8f 81       	ldd	r24, Y+7	; 0x07
    1656:	98 85       	ldd	r25, Y+8	; 0x08
    1658:	8e 0d       	add	r24, r14
    165a:	9f 1d       	adc	r25, r15
    165c:	9c 83       	std	Y+4, r25	; 0x04
    165e:	8b 83       	std	Y+3, r24	; 0x03
    1660:	e6 14       	cp	r14, r6
    1662:	f7 04       	cpc	r15, r7
    1664:	0c f0       	brlt	.+2      	; 0x1668 <_ZN12Adafruit_GFX10drawBitmapEiiPKhiij+0x84>
    1666:	3d c0       	rjmp	.+122    	; 0x16e2 <_ZN12Adafruit_GFX10drawBitmapEiiPKhiij+0xfe>
    1668:	1a 86       	std	Y+10, r1	; 0x0a
    166a:	19 86       	std	Y+9, r1	; 0x09
    166c:	a9 85       	ldd	r26, Y+9	; 0x09
    166e:	ba 85       	ldd	r27, Y+10	; 0x0a
    1670:	a0 17       	cp	r26, r16
    1672:	b1 07       	cpc	r27, r17
    1674:	74 f5       	brge	.+92     	; 0x16d2 <_ZN12Adafruit_GFX10drawBitmapEiiPKhiij+0xee>
    1676:	cd 01       	movw	r24, r26
    1678:	87 70       	andi	r24, 0x07	; 7
    167a:	99 27       	eor	r25, r25
    167c:	89 2b       	or	r24, r25
    167e:	11 f0       	breq	.+4      	; 0x1684 <_ZN12Adafruit_GFX10drawBitmapEiiPKhiij+0xa0>
    1680:	33 0c       	add	r3, r3
    1682:	0e c0       	rjmp	.+28     	; 0x16a0 <_ZN12Adafruit_GFX10drawBitmapEiiPKhiij+0xbc>
    1684:	e9 85       	ldd	r30, Y+9	; 0x09
    1686:	fa 85       	ldd	r31, Y+10	; 0x0a
    1688:	f7 fd       	sbrc	r31, 7
    168a:	37 96       	adiw	r30, 0x07	; 7
    168c:	83 e0       	ldi	r24, 0x03	; 3
    168e:	f5 95       	asr	r31
    1690:	e7 95       	ror	r30
    1692:	8a 95       	dec	r24
    1694:	e1 f7       	brne	.-8      	; 0x168e <_ZN12Adafruit_GFX10drawBitmapEiiPKhiij+0xaa>
    1696:	e8 0d       	add	r30, r8
    1698:	f9 1d       	adc	r31, r9
    169a:	e4 0d       	add	r30, r4
    169c:	f5 1d       	adc	r31, r5
    169e:	34 90       	lpm	r3, Z
    16a0:	37 fe       	sbrs	r3, 7
    16a2:	11 c0       	rjmp	.+34     	; 0x16c6 <_ZN12Adafruit_GFX10drawBitmapEiiPKhiij+0xe2>
    16a4:	d5 01       	movw	r26, r10
    16a6:	ed 91       	ld	r30, X+
    16a8:	fc 91       	ld	r31, X
    16aa:	04 84       	ldd	r0, Z+12	; 0x0c
    16ac:	f5 85       	ldd	r31, Z+13	; 0x0d
    16ae:	e0 2d       	mov	r30, r0
    16b0:	96 01       	movw	r18, r12
    16b2:	4b 81       	ldd	r20, Y+3	; 0x03
    16b4:	5c 81       	ldd	r21, Y+4	; 0x04
    16b6:	6d 81       	ldd	r22, Y+5	; 0x05
    16b8:	7e 81       	ldd	r23, Y+6	; 0x06
    16ba:	89 85       	ldd	r24, Y+9	; 0x09
    16bc:	9a 85       	ldd	r25, Y+10	; 0x0a
    16be:	68 0f       	add	r22, r24
    16c0:	79 1f       	adc	r23, r25
    16c2:	c5 01       	movw	r24, r10
    16c4:	19 95       	eicall
    16c6:	a9 85       	ldd	r26, Y+9	; 0x09
    16c8:	ba 85       	ldd	r27, Y+10	; 0x0a
    16ca:	11 96       	adiw	r26, 0x01	; 1
    16cc:	ba 87       	std	Y+10, r27	; 0x0a
    16ce:	a9 87       	std	Y+9, r26	; 0x09
    16d0:	cd cf       	rjmp	.-102    	; 0x166c <_ZN12Adafruit_GFX10drawBitmapEiiPKhiij+0x88>
    16d2:	bf ef       	ldi	r27, 0xFF	; 255
    16d4:	eb 1a       	sub	r14, r27
    16d6:	fb 0a       	sbc	r15, r27
    16d8:	29 81       	ldd	r18, Y+1	; 0x01
    16da:	3a 81       	ldd	r19, Y+2	; 0x02
    16dc:	82 0e       	add	r8, r18
    16de:	93 1e       	adc	r9, r19
    16e0:	b9 cf       	rjmp	.-142    	; 0x1654 <_ZN12Adafruit_GFX10drawBitmapEiiPKhiij+0x70>
    16e2:	d5 01       	movw	r26, r10
    16e4:	ed 91       	ld	r30, X+
    16e6:	fc 91       	ld	r31, X
    16e8:	06 88       	ldd	r0, Z+22	; 0x16
    16ea:	f7 89       	ldd	r31, Z+23	; 0x17
    16ec:	e0 2d       	mov	r30, r0
    16ee:	c5 01       	movw	r24, r10
    16f0:	2a 96       	adiw	r28, 0x0a	; 10
    16f2:	0f b6       	in	r0, 0x3f	; 63
    16f4:	f8 94       	cli
    16f6:	de bf       	out	0x3e, r29	; 62
    16f8:	0f be       	out	0x3f, r0	; 63
    16fa:	cd bf       	out	0x3d, r28	; 61
    16fc:	df 91       	pop	r29
    16fe:	cf 91       	pop	r28
    1700:	1f 91       	pop	r17
    1702:	0f 91       	pop	r16
    1704:	ff 90       	pop	r15
    1706:	ef 90       	pop	r14
    1708:	df 90       	pop	r13
    170a:	cf 90       	pop	r12
    170c:	bf 90       	pop	r11
    170e:	af 90       	pop	r10
    1710:	9f 90       	pop	r9
    1712:	8f 90       	pop	r8
    1714:	7f 90       	pop	r7
    1716:	6f 90       	pop	r6
    1718:	5f 90       	pop	r5
    171a:	4f 90       	pop	r4
    171c:	3f 90       	pop	r3
    171e:	19 94       	eijmp

00001720 <_ZN12Adafruit_GFX8drawCharEiihjjhh>:
    1720:	2f 92       	push	r2
    1722:	3f 92       	push	r3
    1724:	4f 92       	push	r4
    1726:	5f 92       	push	r5
    1728:	6f 92       	push	r6
    172a:	7f 92       	push	r7
    172c:	8f 92       	push	r8
    172e:	9f 92       	push	r9
    1730:	af 92       	push	r10
    1732:	bf 92       	push	r11
    1734:	cf 92       	push	r12
    1736:	df 92       	push	r13
    1738:	ef 92       	push	r14
    173a:	ff 92       	push	r15
    173c:	0f 93       	push	r16
    173e:	1f 93       	push	r17
    1740:	cf 93       	push	r28
    1742:	df 93       	push	r29
    1744:	cd b7       	in	r28, 0x3d	; 61
    1746:	de b7       	in	r29, 0x3e	; 62
    1748:	6b 97       	sbiw	r28, 0x1b	; 27
    174a:	0f b6       	in	r0, 0x3f	; 63
    174c:	f8 94       	cli
    174e:	de bf       	out	0x3e, r29	; 62
    1750:	0f be       	out	0x3f, r0	; 63
    1752:	cd bf       	out	0x3d, r28	; 61
    1754:	9b 8f       	std	Y+27, r25	; 0x1b
    1756:	8a 8f       	std	Y+26, r24	; 0x1a
    1758:	2b 01       	movw	r4, r22
    175a:	5a 83       	std	Y+2, r21	; 0x02
    175c:	49 83       	std	Y+1, r20	; 0x01
    175e:	d2 2e       	mov	r13, r18
    1760:	19 87       	std	Y+9, r17	; 0x09
    1762:	08 87       	std	Y+8, r16	; 0x08
    1764:	47 01       	movw	r8, r14
    1766:	ab 82       	std	Y+3, r10	; 0x03
    1768:	dc 01       	movw	r26, r24
    176a:	59 96       	adiw	r26, 0x19	; 25
    176c:	2d 91       	ld	r18, X+
    176e:	3c 91       	ld	r19, X
    1770:	5a 97       	sbiw	r26, 0x1a	; 26
    1772:	21 15       	cp	r18, r1
    1774:	31 05       	cpc	r19, r1
    1776:	09 f0       	breq	.+2      	; 0x177a <_ZN12Adafruit_GFX8drawCharEiihjjhh+0x5a>
    1778:	00 c1       	rjmp	.+512    	; 0x197a <_ZN12Adafruit_GFX8drawCharEiihjjhh+0x25a>
    177a:	18 96       	adiw	r26, 0x08	; 8
    177c:	8d 91       	ld	r24, X+
    177e:	9c 91       	ld	r25, X
    1780:	19 97       	sbiw	r26, 0x09	; 9
    1782:	68 17       	cp	r22, r24
    1784:	79 07       	cpc	r23, r25
    1786:	0c f0       	brlt	.+2      	; 0x178a <_ZN12Adafruit_GFX8drawCharEiihjjhh+0x6a>
    1788:	e7 c1       	rjmp	.+974    	; 0x1b58 <_ZN12Adafruit_GFX8drawCharEiihjjhh+0x438>
    178a:	1a 96       	adiw	r26, 0x0a	; 10
    178c:	8d 91       	ld	r24, X+
    178e:	9c 91       	ld	r25, X
    1790:	1b 97       	sbiw	r26, 0x0b	; 11
    1792:	48 17       	cp	r20, r24
    1794:	59 07       	cpc	r21, r25
    1796:	0c f0       	brlt	.+2      	; 0x179a <_ZN12Adafruit_GFX8drawCharEiihjjhh+0x7a>
    1798:	df c1       	rjmp	.+958    	; 0x1b58 <_ZN12Adafruit_GFX8drawCharEiihjjhh+0x438>
    179a:	2c 2c       	mov	r2, r12
    179c:	31 2c       	mov	r3, r1
    179e:	fb 01       	movw	r30, r22
    17a0:	26 e0       	ldi	r18, 0x06	; 6
    17a2:	c2 9e       	mul	r12, r18
    17a4:	e0 0d       	add	r30, r0
    17a6:	f1 1d       	adc	r31, r1
    17a8:	11 24       	eor	r1, r1
    17aa:	fd 87       	std	Y+13, r31	; 0x0d
    17ac:	ec 87       	std	Y+12, r30	; 0x0c
    17ae:	1e 16       	cp	r1, r30
    17b0:	1f 06       	cpc	r1, r31
    17b2:	0c f0       	brlt	.+2      	; 0x17b6 <_ZN12Adafruit_GFX8drawCharEiihjjhh+0x96>
    17b4:	d1 c1       	rjmp	.+930    	; 0x1b58 <_ZN12Adafruit_GFX8drawCharEiihjjhh+0x438>
    17b6:	4a 2d       	mov	r20, r10
    17b8:	50 e0       	ldi	r21, 0x00	; 0
    17ba:	5b 87       	std	Y+11, r21	; 0x0b
    17bc:	4a 87       	std	Y+10, r20	; 0x0a
    17be:	83 e0       	ldi	r24, 0x03	; 3
    17c0:	44 0f       	add	r20, r20
    17c2:	55 1f       	adc	r21, r21
    17c4:	8a 95       	dec	r24
    17c6:	e1 f7       	brne	.-8      	; 0x17c0 <_ZN12Adafruit_GFX8drawCharEiihjjhh+0xa0>
    17c8:	5f 87       	std	Y+15, r21	; 0x0f
    17ca:	4e 87       	std	Y+14, r20	; 0x0e
    17cc:	89 81       	ldd	r24, Y+1	; 0x01
    17ce:	9a 81       	ldd	r25, Y+2	; 0x02
    17d0:	84 0f       	add	r24, r20
    17d2:	95 1f       	adc	r25, r21
    17d4:	18 16       	cp	r1, r24
    17d6:	19 06       	cpc	r1, r25
    17d8:	0c f0       	brlt	.+2      	; 0x17dc <_ZN12Adafruit_GFX8drawCharEiihjjhh+0xbc>
    17da:	be c1       	rjmp	.+892    	; 0x1b58 <_ZN12Adafruit_GFX8drawCharEiihjjhh+0x438>
    17dc:	58 96       	adiw	r26, 0x18	; 24
    17de:	8c 91       	ld	r24, X
    17e0:	81 11       	cpse	r24, r1
    17e2:	04 c0       	rjmp	.+8      	; 0x17ec <_ZN12Adafruit_GFX8drawCharEiihjjhh+0xcc>
    17e4:	6f ea       	ldi	r22, 0xAF	; 175
    17e6:	6d 15       	cp	r22, r13
    17e8:	08 f4       	brcc	.+2      	; 0x17ec <_ZN12Adafruit_GFX8drawCharEiihjjhh+0xcc>
    17ea:	d3 94       	inc	r13
    17ec:	aa 8d       	ldd	r26, Y+26	; 0x1a
    17ee:	bb 8d       	ldd	r27, Y+27	; 0x1b
    17f0:	ed 91       	ld	r30, X+
    17f2:	fc 91       	ld	r31, X
    17f4:	11 97       	sbiw	r26, 0x01	; 1
    17f6:	02 84       	ldd	r0, Z+10	; 0x0a
    17f8:	f3 85       	ldd	r31, Z+11	; 0x0b
    17fa:	e0 2d       	mov	r30, r0
    17fc:	cd 01       	movw	r24, r26
    17fe:	19 95       	eicall
    1800:	b5 e0       	ldi	r27, 0x05	; 5
    1802:	db 9e       	mul	r13, r27
    1804:	c0 01       	movw	r24, r0
    1806:	11 24       	eor	r1, r1
    1808:	ec 2d       	mov	r30, r12
    180a:	f0 e0       	ldi	r31, 0x00	; 0
    180c:	f9 8b       	std	Y+17, r31	; 0x11
    180e:	e8 8b       	std	Y+16, r30	; 0x10
    1810:	92 01       	movw	r18, r4
    1812:	2b 5f       	subi	r18, 0xFB	; 251
    1814:	3f 4f       	sbci	r19, 0xFF	; 255
    1816:	3b 8b       	std	Y+19, r19	; 0x13
    1818:	2a 8b       	std	Y+18, r18	; 0x12
    181a:	32 01       	movw	r6, r4
    181c:	5d 82       	std	Y+5, r5	; 0x05
    181e:	4c 82       	std	Y+4, r4	; 0x04
    1820:	ac 01       	movw	r20, r24
    1822:	44 19       	sub	r20, r4
    1824:	55 09       	sbc	r21, r5
    1826:	5d 8b       	std	Y+21, r21	; 0x15
    1828:	4c 8b       	std	Y+20, r20	; 0x14
    182a:	7b 81       	ldd	r23, Y+3	; 0x03
    182c:	67 2f       	mov	r22, r23
    182e:	70 e0       	ldi	r23, 0x00	; 0
    1830:	7f 8b       	std	Y+23, r23	; 0x17
    1832:	6e 8b       	std	Y+22, r22	; 0x16
    1834:	89 81       	ldd	r24, Y+1	; 0x01
    1836:	9a 81       	ldd	r25, Y+2	; 0x02
    1838:	08 96       	adiw	r24, 0x08	; 8
    183a:	99 8f       	std	Y+25, r25	; 0x19
    183c:	88 8f       	std	Y+24, r24	; 0x18
    183e:	ec 89       	ldd	r30, Y+20	; 0x14
    1840:	fd 89       	ldd	r31, Y+21	; 0x15
    1842:	e6 0d       	add	r30, r6
    1844:	f7 1d       	adc	r31, r7
    1846:	ef 5a       	subi	r30, 0xAF	; 175
    1848:	fe 4f       	sbci	r31, 0xFE	; 254
    184a:	d4 90       	lpm	r13, Z
    184c:	a9 81       	ldd	r26, Y+1	; 0x01
    184e:	ba 81       	ldd	r27, Y+2	; 0x02
    1850:	bf 83       	std	Y+7, r27	; 0x07
    1852:	ae 83       	std	Y+6, r26	; 0x06
    1854:	5d 01       	movw	r10, r26
    1856:	d0 fe       	sbrs	r13, 0
    1858:	16 c0       	rjmp	.+44     	; 0x1886 <_ZN12Adafruit_GFX8drawCharEiihjjhh+0x166>
    185a:	aa 8d       	ldd	r26, Y+26	; 0x1a
    185c:	bb 8d       	ldd	r27, Y+27	; 0x1b
    185e:	ed 91       	ld	r30, X+
    1860:	fc 91       	ld	r31, X
    1862:	b1 e0       	ldi	r27, 0x01	; 1
    1864:	cb 12       	cpse	r12, r27
    1866:	09 c0       	rjmp	.+18     	; 0x187a <_ZN12Adafruit_GFX8drawCharEiihjjhh+0x15a>
    1868:	2b 81       	ldd	r18, Y+3	; 0x03
    186a:	21 30       	cpi	r18, 0x01	; 1
    186c:	31 f4       	brne	.+12     	; 0x187a <_ZN12Adafruit_GFX8drawCharEiihjjhh+0x15a>
    186e:	04 84       	ldd	r0, Z+12	; 0x0c
    1870:	f5 85       	ldd	r31, Z+13	; 0x0d
    1872:	e0 2d       	mov	r30, r0
    1874:	28 85       	ldd	r18, Y+8	; 0x08
    1876:	39 85       	ldd	r19, Y+9	; 0x09
    1878:	19 c0       	rjmp	.+50     	; 0x18ac <_ZN12Adafruit_GFX8drawCharEiihjjhh+0x18c>
    187a:	06 84       	ldd	r0, Z+14	; 0x0e
    187c:	f7 85       	ldd	r31, Z+15	; 0x0f
    187e:	e0 2d       	mov	r30, r0
    1880:	e8 84       	ldd	r14, Y+8	; 0x08
    1882:	f9 84       	ldd	r15, Y+9	; 0x09
    1884:	1d c0       	rjmp	.+58     	; 0x18c0 <_ZN12Adafruit_GFX8drawCharEiihjjhh+0x1a0>
    1886:	48 85       	ldd	r20, Y+8	; 0x08
    1888:	59 85       	ldd	r21, Y+9	; 0x09
    188a:	48 15       	cp	r20, r8
    188c:	59 05       	cpc	r21, r9
    188e:	11 f1       	breq	.+68     	; 0x18d4 <_ZN12Adafruit_GFX8drawCharEiihjjhh+0x1b4>
    1890:	aa 8d       	ldd	r26, Y+26	; 0x1a
    1892:	bb 8d       	ldd	r27, Y+27	; 0x1b
    1894:	ed 91       	ld	r30, X+
    1896:	fc 91       	ld	r31, X
    1898:	b1 e0       	ldi	r27, 0x01	; 1
    189a:	cb 12       	cpse	r12, r27
    189c:	0d c0       	rjmp	.+26     	; 0x18b8 <_ZN12Adafruit_GFX8drawCharEiihjjhh+0x198>
    189e:	2b 81       	ldd	r18, Y+3	; 0x03
    18a0:	21 30       	cpi	r18, 0x01	; 1
    18a2:	51 f4       	brne	.+20     	; 0x18b8 <_ZN12Adafruit_GFX8drawCharEiihjjhh+0x198>
    18a4:	04 84       	ldd	r0, Z+12	; 0x0c
    18a6:	f5 85       	ldd	r31, Z+13	; 0x0d
    18a8:	e0 2d       	mov	r30, r0
    18aa:	94 01       	movw	r18, r8
    18ac:	a5 01       	movw	r20, r10
    18ae:	b3 01       	movw	r22, r6
    18b0:	8a 8d       	ldd	r24, Y+26	; 0x1a
    18b2:	9b 8d       	ldd	r25, Y+27	; 0x1b
    18b4:	19 95       	eicall
    18b6:	0e c0       	rjmp	.+28     	; 0x18d4 <_ZN12Adafruit_GFX8drawCharEiihjjhh+0x1b4>
    18b8:	06 84       	ldd	r0, Z+14	; 0x0e
    18ba:	f7 85       	ldd	r31, Z+15	; 0x0f
    18bc:	e0 2d       	mov	r30, r0
    18be:	74 01       	movw	r14, r8
    18c0:	0a 85       	ldd	r16, Y+10	; 0x0a
    18c2:	1b 85       	ldd	r17, Y+11	; 0x0b
    18c4:	91 01       	movw	r18, r2
    18c6:	4e 81       	ldd	r20, Y+6	; 0x06
    18c8:	5f 81       	ldd	r21, Y+7	; 0x07
    18ca:	6c 81       	ldd	r22, Y+4	; 0x04
    18cc:	7d 81       	ldd	r23, Y+5	; 0x05
    18ce:	8a 8d       	ldd	r24, Y+26	; 0x1a
    18d0:	9b 8d       	ldd	r25, Y+27	; 0x1b
    18d2:	19 95       	eicall
    18d4:	d6 94       	lsr	r13
    18d6:	4e 81       	ldd	r20, Y+6	; 0x06
    18d8:	5f 81       	ldd	r21, Y+7	; 0x07
    18da:	6e 89       	ldd	r22, Y+22	; 0x16
    18dc:	7f 89       	ldd	r23, Y+23	; 0x17
    18de:	46 0f       	add	r20, r22
    18e0:	57 1f       	adc	r21, r23
    18e2:	5f 83       	std	Y+7, r21	; 0x07
    18e4:	4e 83       	std	Y+6, r20	; 0x06
    18e6:	7f ef       	ldi	r23, 0xFF	; 255
    18e8:	a7 1a       	sub	r10, r23
    18ea:	b7 0a       	sbc	r11, r23
    18ec:	88 8d       	ldd	r24, Y+24	; 0x18
    18ee:	99 8d       	ldd	r25, Y+25	; 0x19
    18f0:	a8 16       	cp	r10, r24
    18f2:	b9 06       	cpc	r11, r25
    18f4:	09 f0       	breq	.+2      	; 0x18f8 <_ZN12Adafruit_GFX8drawCharEiihjjhh+0x1d8>
    18f6:	af cf       	rjmp	.-162    	; 0x1856 <_ZN12Adafruit_GFX8drawCharEiihjjhh+0x136>
    18f8:	ac 81       	ldd	r26, Y+4	; 0x04
    18fa:	bd 81       	ldd	r27, Y+5	; 0x05
    18fc:	e8 89       	ldd	r30, Y+16	; 0x10
    18fe:	f9 89       	ldd	r31, Y+17	; 0x11
    1900:	ae 0f       	add	r26, r30
    1902:	bf 1f       	adc	r27, r31
    1904:	bd 83       	std	Y+5, r27	; 0x05
    1906:	ac 83       	std	Y+4, r26	; 0x04
    1908:	ff ef       	ldi	r31, 0xFF	; 255
    190a:	6f 1a       	sub	r6, r31
    190c:	7f 0a       	sbc	r7, r31
    190e:	2a 89       	ldd	r18, Y+18	; 0x12
    1910:	3b 89       	ldd	r19, Y+19	; 0x13
    1912:	62 16       	cp	r6, r18
    1914:	73 06       	cpc	r7, r19
    1916:	09 f0       	breq	.+2      	; 0x191a <_ZN12Adafruit_GFX8drawCharEiihjjhh+0x1fa>
    1918:	92 cf       	rjmp	.-220    	; 0x183e <_ZN12Adafruit_GFX8drawCharEiihjjhh+0x11e>
    191a:	48 85       	ldd	r20, Y+8	; 0x08
    191c:	59 85       	ldd	r21, Y+9	; 0x09
    191e:	48 15       	cp	r20, r8
    1920:	59 05       	cpc	r21, r9
    1922:	09 f4       	brne	.+2      	; 0x1926 <_ZN12Adafruit_GFX8drawCharEiihjjhh+0x206>
    1924:	f7 c0       	rjmp	.+494    	; 0x1b14 <_ZN12Adafruit_GFX8drawCharEiihjjhh+0x3f4>
    1926:	aa 8d       	ldd	r26, Y+26	; 0x1a
    1928:	bb 8d       	ldd	r27, Y+27	; 0x1b
    192a:	ed 91       	ld	r30, X+
    192c:	fc 91       	ld	r31, X
    192e:	b1 e0       	ldi	r27, 0x01	; 1
    1930:	cb 12       	cpse	r12, r27
    1932:	12 c0       	rjmp	.+36     	; 0x1958 <_ZN12Adafruit_GFX8drawCharEiihjjhh+0x238>
    1934:	2b 81       	ldd	r18, Y+3	; 0x03
    1936:	21 30       	cpi	r18, 0x01	; 1
    1938:	79 f4       	brne	.+30     	; 0x1958 <_ZN12Adafruit_GFX8drawCharEiihjjhh+0x238>
    193a:	b2 01       	movw	r22, r4
    193c:	6b 5f       	subi	r22, 0xFB	; 251
    193e:	7f 4f       	sbci	r23, 0xFF	; 255
    1940:	00 88       	ldd	r0, Z+16	; 0x10
    1942:	f1 89       	ldd	r31, Z+17	; 0x11
    1944:	e0 2d       	mov	r30, r0
    1946:	84 01       	movw	r16, r8
    1948:	28 e0       	ldi	r18, 0x08	; 8
    194a:	30 e0       	ldi	r19, 0x00	; 0
    194c:	49 81       	ldd	r20, Y+1	; 0x01
    194e:	5a 81       	ldd	r21, Y+2	; 0x02
    1950:	8a 8d       	ldd	r24, Y+26	; 0x1a
    1952:	9b 8d       	ldd	r25, Y+27	; 0x1b
    1954:	19 95       	eicall
    1956:	de c0       	rjmp	.+444    	; 0x1b14 <_ZN12Adafruit_GFX8drawCharEiihjjhh+0x3f4>
    1958:	6c 85       	ldd	r22, Y+12	; 0x0c
    195a:	7d 85       	ldd	r23, Y+13	; 0x0d
    195c:	62 19       	sub	r22, r2
    195e:	73 09       	sbc	r23, r3
    1960:	06 84       	ldd	r0, Z+14	; 0x0e
    1962:	f7 85       	ldd	r31, Z+15	; 0x0f
    1964:	e0 2d       	mov	r30, r0
    1966:	74 01       	movw	r14, r8
    1968:	0e 85       	ldd	r16, Y+14	; 0x0e
    196a:	1f 85       	ldd	r17, Y+15	; 0x0f
    196c:	91 01       	movw	r18, r2
    196e:	49 81       	ldd	r20, Y+1	; 0x01
    1970:	5a 81       	ldd	r21, Y+2	; 0x02
    1972:	8a 8d       	ldd	r24, Y+26	; 0x1a
    1974:	9b 8d       	ldd	r25, Y+27	; 0x1b
    1976:	19 95       	eicall
    1978:	cd c0       	rjmp	.+410    	; 0x1b14 <_ZN12Adafruit_GFX8drawCharEiihjjhh+0x3f4>
    197a:	f9 01       	movw	r30, r18
    197c:	34 96       	adiw	r30, 0x04	; 4
    197e:	e4 91       	lpm	r30, Z
    1980:	de 1a       	sub	r13, r30
    1982:	f9 01       	movw	r30, r18
    1984:	32 96       	adiw	r30, 0x02	; 2
    1986:	85 91       	lpm	r24, Z+
    1988:	94 91       	lpm	r25, Z
    198a:	b7 e0       	ldi	r27, 0x07	; 7
    198c:	db 9e       	mul	r13, r27
    198e:	80 0d       	add	r24, r0
    1990:	91 1d       	adc	r25, r1
    1992:	11 24       	eor	r1, r1
    1994:	f9 01       	movw	r30, r18
    1996:	25 91       	lpm	r18, Z+
    1998:	34 91       	lpm	r19, Z
    199a:	39 8b       	std	Y+17, r19	; 0x11
    199c:	28 8b       	std	Y+16, r18	; 0x10
    199e:	fc 01       	movw	r30, r24
    19a0:	25 90       	lpm	r2, Z+
    19a2:	34 90       	lpm	r3, Z
    19a4:	fc 01       	movw	r30, r24
    19a6:	32 96       	adiw	r30, 0x02	; 2
    19a8:	74 90       	lpm	r7, Z
    19aa:	31 96       	adiw	r30, 0x01	; 1
    19ac:	a4 90       	lpm	r10, Z
    19ae:	32 96       	adiw	r30, 0x02	; 2
    19b0:	94 90       	lpm	r9, Z
    19b2:	31 96       	adiw	r30, 0x01	; 1
    19b4:	b4 90       	lpm	r11, Z
    19b6:	31 e0       	ldi	r19, 0x01	; 1
    19b8:	3c 15       	cp	r19, r12
    19ba:	18 f0       	brcs	.+6      	; 0x19c2 <_ZN12Adafruit_GFX8drawCharEiihjjhh+0x2a2>
    19bc:	4b 81       	ldd	r20, Y+3	; 0x03
    19be:	42 30       	cpi	r20, 0x02	; 2
    19c0:	68 f0       	brcs	.+26     	; 0x19dc <_ZN12Adafruit_GFX8drawCharEiihjjhh+0x2bc>
    19c2:	69 2d       	mov	r22, r9
    19c4:	09 2c       	mov	r0, r9
    19c6:	00 0c       	add	r0, r0
    19c8:	77 0b       	sbc	r23, r23
    19ca:	7d 83       	std	Y+5, r23	; 0x05
    19cc:	6c 83       	std	Y+4, r22	; 0x04
    19ce:	8b 2d       	mov	r24, r11
    19d0:	0b 2c       	mov	r0, r11
    19d2:	00 0c       	add	r0, r0
    19d4:	99 0b       	sbc	r25, r25
    19d6:	9f 83       	std	Y+7, r25	; 0x07
    19d8:	8e 83       	std	Y+6, r24	; 0x06
    19da:	04 c0       	rjmp	.+8      	; 0x19e4 <_ZN12Adafruit_GFX8drawCharEiihjjhh+0x2c4>
    19dc:	1f 82       	std	Y+7, r1	; 0x07
    19de:	1e 82       	std	Y+6, r1	; 0x06
    19e0:	1d 82       	std	Y+5, r1	; 0x05
    19e2:	1c 82       	std	Y+4, r1	; 0x04
    19e4:	aa 8d       	ldd	r26, Y+26	; 0x1a
    19e6:	bb 8d       	ldd	r27, Y+27	; 0x1b
    19e8:	ed 91       	ld	r30, X+
    19ea:	fc 91       	ld	r31, X
    19ec:	11 97       	sbiw	r26, 0x01	; 1
    19ee:	02 84       	ldd	r0, Z+10	; 0x0a
    19f0:	f3 85       	ldd	r31, Z+11	; 0x0b
    19f2:	e0 2d       	mov	r30, r0
    19f4:	cd 01       	movw	r24, r26
    19f6:	19 95       	eicall
    19f8:	61 2c       	mov	r6, r1
    19fa:	d1 2c       	mov	r13, r1
    19fc:	81 2c       	mov	r8, r1
    19fe:	fb 81       	ldd	r31, Y+3	; 0x03
    1a00:	ef 2f       	mov	r30, r31
    1a02:	f0 e0       	ldi	r31, 0x00	; 0
    1a04:	fb 87       	std	Y+11, r31	; 0x0b
    1a06:	ea 87       	std	Y+10, r30	; 0x0a
    1a08:	2c 2d       	mov	r18, r12
    1a0a:	30 e0       	ldi	r19, 0x00	; 0
    1a0c:	3d 87       	std	Y+13, r19	; 0x0d
    1a0e:	2c 87       	std	Y+12, r18	; 0x0c
    1a10:	49 81       	ldd	r20, Y+1	; 0x01
    1a12:	5a 81       	ldd	r21, Y+2	; 0x02
    1a14:	4b 0d       	add	r20, r11
    1a16:	51 1d       	adc	r21, r1
    1a18:	b7 fc       	sbrc	r11, 7
    1a1a:	5a 95       	dec	r21
    1a1c:	5d 8b       	std	Y+21, r21	; 0x15
    1a1e:	4c 8b       	std	Y+20, r20	; 0x14
    1a20:	b2 01       	movw	r22, r4
    1a22:	69 0d       	add	r22, r9
    1a24:	71 1d       	adc	r23, r1
    1a26:	97 fc       	sbrc	r9, 7
    1a28:	7a 95       	dec	r23
    1a2a:	7f 8b       	std	Y+23, r23	; 0x17
    1a2c:	6e 8b       	std	Y+22, r22	; 0x16
    1a2e:	8a 14       	cp	r8, r10
    1a30:	08 f0       	brcs	.+2      	; 0x1a34 <_ZN12Adafruit_GFX8drawCharEiihjjhh+0x314>
    1a32:	70 c0       	rjmp	.+224    	; 0x1b14 <_ZN12Adafruit_GFX8drawCharEiihjjhh+0x3f4>
    1a34:	28 2d       	mov	r18, r8
    1a36:	30 e0       	ldi	r19, 0x00	; 0
    1a38:	4e 81       	ldd	r20, Y+6	; 0x06
    1a3a:	5f 81       	ldd	r21, Y+7	; 0x07
    1a3c:	42 0f       	add	r20, r18
    1a3e:	53 1f       	adc	r21, r19
    1a40:	aa 85       	ldd	r26, Y+10	; 0x0a
    1a42:	bb 85       	ldd	r27, Y+11	; 0x0b
    1a44:	a4 9f       	mul	r26, r20
    1a46:	c0 01       	movw	r24, r0
    1a48:	a5 9f       	mul	r26, r21
    1a4a:	90 0d       	add	r25, r0
    1a4c:	b4 9f       	mul	r27, r20
    1a4e:	90 0d       	add	r25, r0
    1a50:	11 24       	eor	r1, r1
    1a52:	e9 81       	ldd	r30, Y+1	; 0x01
    1a54:	fa 81       	ldd	r31, Y+2	; 0x02
    1a56:	e8 0f       	add	r30, r24
    1a58:	f9 1f       	adc	r31, r25
    1a5a:	ff 87       	std	Y+15, r31	; 0x0f
    1a5c:	ee 87       	std	Y+14, r30	; 0x0e
    1a5e:	86 2d       	mov	r24, r6
    1a60:	91 2c       	mov	r9, r1
    1a62:	4c 89       	ldd	r20, Y+20	; 0x14
    1a64:	5d 89       	ldd	r21, Y+21	; 0x15
    1a66:	42 0f       	add	r20, r18
    1a68:	53 1f       	adc	r21, r19
    1a6a:	5b 8b       	std	Y+19, r21	; 0x13
    1a6c:	4a 8b       	std	Y+18, r20	; 0x12
    1a6e:	97 14       	cp	r9, r7
    1a70:	08 f0       	brcs	.+2      	; 0x1a74 <_ZN12Adafruit_GFX8drawCharEiihjjhh+0x354>
    1a72:	4d c0       	rjmp	.+154    	; 0x1b0e <_ZN12Adafruit_GFX8drawCharEiihjjhh+0x3ee>
    1a74:	bb 24       	eor	r11, r11
    1a76:	b3 94       	inc	r11
    1a78:	b8 0e       	add	r11, r24
    1a7a:	87 70       	andi	r24, 0x07	; 7
    1a7c:	41 f4       	brne	.+16     	; 0x1a8e <_ZN12Adafruit_GFX8drawCharEiihjjhh+0x36e>
    1a7e:	c1 01       	movw	r24, r2
    1a80:	01 96       	adiw	r24, 0x01	; 1
    1a82:	e8 89       	ldd	r30, Y+16	; 0x10
    1a84:	f9 89       	ldd	r31, Y+17	; 0x11
    1a86:	e2 0d       	add	r30, r2
    1a88:	f3 1d       	adc	r31, r3
    1a8a:	d4 90       	lpm	r13, Z
    1a8c:	1c 01       	movw	r2, r24
    1a8e:	d7 fe       	sbrs	r13, 7
    1a90:	3a c0       	rjmp	.+116    	; 0x1b06 <_ZN12Adafruit_GFX8drawCharEiihjjhh+0x3e6>
    1a92:	51 e0       	ldi	r21, 0x01	; 1
    1a94:	c5 12       	cpse	r12, r21
    1a96:	16 c0       	rjmp	.+44     	; 0x1ac4 <_ZN12Adafruit_GFX8drawCharEiihjjhh+0x3a4>
    1a98:	6b 81       	ldd	r22, Y+3	; 0x03
    1a9a:	61 30       	cpi	r22, 0x01	; 1
    1a9c:	99 f4       	brne	.+38     	; 0x1ac4 <_ZN12Adafruit_GFX8drawCharEiihjjhh+0x3a4>
    1a9e:	aa 8d       	ldd	r26, Y+26	; 0x1a
    1aa0:	bb 8d       	ldd	r27, Y+27	; 0x1b
    1aa2:	ed 91       	ld	r30, X+
    1aa4:	fc 91       	ld	r31, X
    1aa6:	11 97       	sbiw	r26, 0x01	; 1
    1aa8:	04 84       	ldd	r0, Z+12	; 0x0c
    1aaa:	f5 85       	ldd	r31, Z+13	; 0x0d
    1aac:	e0 2d       	mov	r30, r0
    1aae:	28 85       	ldd	r18, Y+8	; 0x08
    1ab0:	39 85       	ldd	r19, Y+9	; 0x09
    1ab2:	4a 89       	ldd	r20, Y+18	; 0x12
    1ab4:	5b 89       	ldd	r21, Y+19	; 0x13
    1ab6:	6e 89       	ldd	r22, Y+22	; 0x16
    1ab8:	7f 89       	ldd	r23, Y+23	; 0x17
    1aba:	69 0d       	add	r22, r9
    1abc:	71 1d       	adc	r23, r1
    1abe:	cd 01       	movw	r24, r26
    1ac0:	19 95       	eicall
    1ac2:	21 c0       	rjmp	.+66     	; 0x1b06 <_ZN12Adafruit_GFX8drawCharEiihjjhh+0x3e6>
    1ac4:	8c 81       	ldd	r24, Y+4	; 0x04
    1ac6:	9d 81       	ldd	r25, Y+5	; 0x05
    1ac8:	89 0d       	add	r24, r9
    1aca:	91 1d       	adc	r25, r1
    1acc:	ec 85       	ldd	r30, Y+12	; 0x0c
    1ace:	fd 85       	ldd	r31, Y+13	; 0x0d
    1ad0:	8e 9f       	mul	r24, r30
    1ad2:	b0 01       	movw	r22, r0
    1ad4:	8f 9f       	mul	r24, r31
    1ad6:	70 0d       	add	r23, r0
    1ad8:	9e 9f       	mul	r25, r30
    1ada:	70 0d       	add	r23, r0
    1adc:	11 24       	eor	r1, r1
    1ade:	64 0d       	add	r22, r4
    1ae0:	75 1d       	adc	r23, r5
    1ae2:	aa 8d       	ldd	r26, Y+26	; 0x1a
    1ae4:	bb 8d       	ldd	r27, Y+27	; 0x1b
    1ae6:	ed 91       	ld	r30, X+
    1ae8:	fc 91       	ld	r31, X
    1aea:	11 97       	sbiw	r26, 0x01	; 1
    1aec:	06 84       	ldd	r0, Z+14	; 0x0e
    1aee:	f7 85       	ldd	r31, Z+15	; 0x0f
    1af0:	e0 2d       	mov	r30, r0
    1af2:	e8 84       	ldd	r14, Y+8	; 0x08
    1af4:	f9 84       	ldd	r15, Y+9	; 0x09
    1af6:	0a 85       	ldd	r16, Y+10	; 0x0a
    1af8:	1b 85       	ldd	r17, Y+11	; 0x0b
    1afa:	2c 85       	ldd	r18, Y+12	; 0x0c
    1afc:	3d 85       	ldd	r19, Y+13	; 0x0d
    1afe:	4e 85       	ldd	r20, Y+14	; 0x0e
    1b00:	5f 85       	ldd	r21, Y+15	; 0x0f
    1b02:	cd 01       	movw	r24, r26
    1b04:	19 95       	eicall
    1b06:	dd 0c       	add	r13, r13
    1b08:	93 94       	inc	r9
    1b0a:	8b 2d       	mov	r24, r11
    1b0c:	b0 cf       	rjmp	.-160    	; 0x1a6e <_ZN12Adafruit_GFX8drawCharEiihjjhh+0x34e>
    1b0e:	67 0c       	add	r6, r7
    1b10:	83 94       	inc	r8
    1b12:	8d cf       	rjmp	.-230    	; 0x1a2e <_ZN12Adafruit_GFX8drawCharEiihjjhh+0x30e>
    1b14:	aa 8d       	ldd	r26, Y+26	; 0x1a
    1b16:	bb 8d       	ldd	r27, Y+27	; 0x1b
    1b18:	ed 91       	ld	r30, X+
    1b1a:	fc 91       	ld	r31, X
    1b1c:	11 97       	sbiw	r26, 0x01	; 1
    1b1e:	06 88       	ldd	r0, Z+22	; 0x16
    1b20:	f7 89       	ldd	r31, Z+23	; 0x17
    1b22:	e0 2d       	mov	r30, r0
    1b24:	cd 01       	movw	r24, r26
    1b26:	6b 96       	adiw	r28, 0x1b	; 27
    1b28:	0f b6       	in	r0, 0x3f	; 63
    1b2a:	f8 94       	cli
    1b2c:	de bf       	out	0x3e, r29	; 62
    1b2e:	0f be       	out	0x3f, r0	; 63
    1b30:	cd bf       	out	0x3d, r28	; 61
    1b32:	df 91       	pop	r29
    1b34:	cf 91       	pop	r28
    1b36:	1f 91       	pop	r17
    1b38:	0f 91       	pop	r16
    1b3a:	ff 90       	pop	r15
    1b3c:	ef 90       	pop	r14
    1b3e:	df 90       	pop	r13
    1b40:	cf 90       	pop	r12
    1b42:	bf 90       	pop	r11
    1b44:	af 90       	pop	r10
    1b46:	9f 90       	pop	r9
    1b48:	8f 90       	pop	r8
    1b4a:	7f 90       	pop	r7
    1b4c:	6f 90       	pop	r6
    1b4e:	5f 90       	pop	r5
    1b50:	4f 90       	pop	r4
    1b52:	3f 90       	pop	r3
    1b54:	2f 90       	pop	r2
    1b56:	19 94       	eijmp
    1b58:	6b 96       	adiw	r28, 0x1b	; 27
    1b5a:	0f b6       	in	r0, 0x3f	; 63
    1b5c:	f8 94       	cli
    1b5e:	de bf       	out	0x3e, r29	; 62
    1b60:	0f be       	out	0x3f, r0	; 63
    1b62:	cd bf       	out	0x3d, r28	; 61
    1b64:	df 91       	pop	r29
    1b66:	cf 91       	pop	r28
    1b68:	1f 91       	pop	r17
    1b6a:	0f 91       	pop	r16
    1b6c:	ff 90       	pop	r15
    1b6e:	ef 90       	pop	r14
    1b70:	df 90       	pop	r13
    1b72:	cf 90       	pop	r12
    1b74:	bf 90       	pop	r11
    1b76:	af 90       	pop	r10
    1b78:	9f 90       	pop	r9
    1b7a:	8f 90       	pop	r8
    1b7c:	7f 90       	pop	r7
    1b7e:	6f 90       	pop	r6
    1b80:	5f 90       	pop	r5
    1b82:	4f 90       	pop	r4
    1b84:	3f 90       	pop	r3
    1b86:	2f 90       	pop	r2
    1b88:	08 95       	ret

00001b8a <_ZN12Adafruit_GFX5writeEh>:
    1b8a:	8f 92       	push	r8
    1b8c:	9f 92       	push	r9
    1b8e:	af 92       	push	r10
    1b90:	cf 92       	push	r12
    1b92:	ef 92       	push	r14
    1b94:	ff 92       	push	r15
    1b96:	0f 93       	push	r16
    1b98:	1f 93       	push	r17
    1b9a:	cf 93       	push	r28
    1b9c:	df 93       	push	r29
    1b9e:	ec 01       	movw	r28, r24
    1ba0:	26 2f       	mov	r18, r22
    1ba2:	89 8d       	ldd	r24, Y+25	; 0x19
    1ba4:	9a 8d       	ldd	r25, Y+26	; 0x1a
    1ba6:	00 97       	sbiw	r24, 0x00	; 0
    1ba8:	09 f0       	breq	.+2      	; 0x1bac <_ZN12Adafruit_GFX5writeEh+0x22>
    1baa:	41 c0       	rjmp	.+130    	; 0x1c2e <_ZN12Adafruit_GFX5writeEh+0xa4>
    1bac:	6a 30       	cpi	r22, 0x0A	; 10
    1bae:	59 f4       	brne	.+22     	; 0x1bc6 <_ZN12Adafruit_GFX5writeEh+0x3c>
    1bb0:	1d 86       	std	Y+13, r1	; 0x0d
    1bb2:	1c 86       	std	Y+12, r1	; 0x0c
    1bb4:	2d 89       	ldd	r18, Y+21	; 0x15
    1bb6:	8e 85       	ldd	r24, Y+14	; 0x0e
    1bb8:	9f 85       	ldd	r25, Y+15	; 0x0f
    1bba:	38 e0       	ldi	r19, 0x08	; 8
    1bbc:	23 9f       	mul	r18, r19
    1bbe:	80 0d       	add	r24, r0
    1bc0:	91 1d       	adc	r25, r1
    1bc2:	11 24       	eor	r1, r1
    1bc4:	42 c0       	rjmp	.+132    	; 0x1c4a <_ZN12Adafruit_GFX5writeEh+0xc0>
    1bc6:	6d 30       	cpi	r22, 0x0D	; 13
    1bc8:	09 f4       	brne	.+2      	; 0x1bcc <_ZN12Adafruit_GFX5writeEh+0x42>
    1bca:	a8 c0       	rjmp	.+336    	; 0x1d1c <_ZN12Adafruit_GFX5writeEh+0x192>
    1bcc:	8f 89       	ldd	r24, Y+23	; 0x17
    1bce:	88 23       	and	r24, r24
    1bd0:	c9 f0       	breq	.+50     	; 0x1c04 <_ZN12Adafruit_GFX5writeEh+0x7a>
    1bd2:	3c 89       	ldd	r19, Y+20	; 0x14
    1bd4:	8c 85       	ldd	r24, Y+12	; 0x0c
    1bd6:	9d 85       	ldd	r25, Y+13	; 0x0d
    1bd8:	46 e0       	ldi	r20, 0x06	; 6
    1bda:	34 9f       	mul	r19, r20
    1bdc:	80 0d       	add	r24, r0
    1bde:	91 1d       	adc	r25, r1
    1be0:	11 24       	eor	r1, r1
    1be2:	48 85       	ldd	r20, Y+8	; 0x08
    1be4:	59 85       	ldd	r21, Y+9	; 0x09
    1be6:	48 17       	cp	r20, r24
    1be8:	59 07       	cpc	r21, r25
    1bea:	64 f4       	brge	.+24     	; 0x1c04 <_ZN12Adafruit_GFX5writeEh+0x7a>
    1bec:	1d 86       	std	Y+13, r1	; 0x0d
    1bee:	1c 86       	std	Y+12, r1	; 0x0c
    1bf0:	3d 89       	ldd	r19, Y+21	; 0x15
    1bf2:	8e 85       	ldd	r24, Y+14	; 0x0e
    1bf4:	9f 85       	ldd	r25, Y+15	; 0x0f
    1bf6:	48 e0       	ldi	r20, 0x08	; 8
    1bf8:	34 9f       	mul	r19, r20
    1bfa:	80 0d       	add	r24, r0
    1bfc:	91 1d       	adc	r25, r1
    1bfe:	11 24       	eor	r1, r1
    1c00:	9f 87       	std	Y+15, r25	; 0x0f
    1c02:	8e 87       	std	Y+14, r24	; 0x0e
    1c04:	ea 88       	ldd	r14, Y+18	; 0x12
    1c06:	fb 88       	ldd	r15, Y+19	; 0x13
    1c08:	08 89       	ldd	r16, Y+16	; 0x10
    1c0a:	19 89       	ldd	r17, Y+17	; 0x11
    1c0c:	4e 85       	ldd	r20, Y+14	; 0x0e
    1c0e:	5f 85       	ldd	r21, Y+15	; 0x0f
    1c10:	6c 85       	ldd	r22, Y+12	; 0x0c
    1c12:	7d 85       	ldd	r23, Y+13	; 0x0d
    1c14:	ad 88       	ldd	r10, Y+21	; 0x15
    1c16:	cc 88       	ldd	r12, Y+20	; 0x14
    1c18:	ce 01       	movw	r24, r28
    1c1a:	82 dd       	rcall	.-1276   	; 0x1720 <_ZN12Adafruit_GFX8drawCharEiihjjhh>
    1c1c:	2c 89       	ldd	r18, Y+20	; 0x14
    1c1e:	8c 85       	ldd	r24, Y+12	; 0x0c
    1c20:	9d 85       	ldd	r25, Y+13	; 0x0d
    1c22:	36 e0       	ldi	r19, 0x06	; 6
    1c24:	23 9f       	mul	r18, r19
    1c26:	80 0d       	add	r24, r0
    1c28:	91 1d       	adc	r25, r1
    1c2a:	11 24       	eor	r1, r1
    1c2c:	3e c0       	rjmp	.+124    	; 0x1caa <_ZN12Adafruit_GFX5writeEh+0x120>
    1c2e:	6a 30       	cpi	r22, 0x0A	; 10
    1c30:	79 f4       	brne	.+30     	; 0x1c50 <_ZN12Adafruit_GFX5writeEh+0xc6>
    1c32:	1d 86       	std	Y+13, r1	; 0x0d
    1c34:	1c 86       	std	Y+12, r1	; 0x0c
    1c36:	2d 89       	ldd	r18, Y+21	; 0x15
    1c38:	fc 01       	movw	r30, r24
    1c3a:	38 96       	adiw	r30, 0x08	; 8
    1c3c:	e4 91       	lpm	r30, Z
    1c3e:	8e 85       	ldd	r24, Y+14	; 0x0e
    1c40:	9f 85       	ldd	r25, Y+15	; 0x0f
    1c42:	2e 9f       	mul	r18, r30
    1c44:	80 0d       	add	r24, r0
    1c46:	91 1d       	adc	r25, r1
    1c48:	11 24       	eor	r1, r1
    1c4a:	9f 87       	std	Y+15, r25	; 0x0f
    1c4c:	8e 87       	std	Y+14, r24	; 0x0e
    1c4e:	66 c0       	rjmp	.+204    	; 0x1d1c <_ZN12Adafruit_GFX5writeEh+0x192>
    1c50:	6d 30       	cpi	r22, 0x0D	; 13
    1c52:	09 f4       	brne	.+2      	; 0x1c56 <_ZN12Adafruit_GFX5writeEh+0xcc>
    1c54:	63 c0       	rjmp	.+198    	; 0x1d1c <_ZN12Adafruit_GFX5writeEh+0x192>
    1c56:	fc 01       	movw	r30, r24
    1c58:	34 96       	adiw	r30, 0x04	; 4
    1c5a:	34 91       	lpm	r19, Z
    1c5c:	63 17       	cp	r22, r19
    1c5e:	08 f4       	brcc	.+2      	; 0x1c62 <_ZN12Adafruit_GFX5writeEh+0xd8>
    1c60:	5d c0       	rjmp	.+186    	; 0x1d1c <_ZN12Adafruit_GFX5writeEh+0x192>
    1c62:	32 96       	adiw	r30, 0x02	; 2
    1c64:	e4 91       	lpm	r30, Z
    1c66:	e6 17       	cp	r30, r22
    1c68:	08 f4       	brcc	.+2      	; 0x1c6c <_ZN12Adafruit_GFX5writeEh+0xe2>
    1c6a:	58 c0       	rjmp	.+176    	; 0x1d1c <_ZN12Adafruit_GFX5writeEh+0x192>
    1c6c:	46 2f       	mov	r20, r22
    1c6e:	43 1b       	sub	r20, r19
    1c70:	34 2f       	mov	r19, r20
    1c72:	fc 01       	movw	r30, r24
    1c74:	32 96       	adiw	r30, 0x02	; 2
    1c76:	85 90       	lpm	r8, Z+
    1c78:	94 90       	lpm	r9, Z
    1c7a:	47 e0       	ldi	r20, 0x07	; 7
    1c7c:	34 9f       	mul	r19, r20
    1c7e:	80 0c       	add	r8, r0
    1c80:	91 1c       	adc	r9, r1
    1c82:	11 24       	eor	r1, r1
    1c84:	f4 01       	movw	r30, r8
    1c86:	32 96       	adiw	r30, 0x02	; 2
    1c88:	34 91       	lpm	r19, Z
    1c8a:	31 96       	adiw	r30, 0x01	; 1
    1c8c:	e4 91       	lpm	r30, Z
    1c8e:	33 23       	and	r19, r19
    1c90:	11 f0       	breq	.+4      	; 0x1c96 <_ZN12Adafruit_GFX5writeEh+0x10c>
    1c92:	e1 11       	cpse	r30, r1
    1c94:	0d c0       	rjmp	.+26     	; 0x1cb0 <_ZN12Adafruit_GFX5writeEh+0x126>
    1c96:	f4 01       	movw	r30, r8
    1c98:	34 96       	adiw	r30, 0x04	; 4
    1c9a:	e4 91       	lpm	r30, Z
    1c9c:	2c 89       	ldd	r18, Y+20	; 0x14
    1c9e:	8c 85       	ldd	r24, Y+12	; 0x0c
    1ca0:	9d 85       	ldd	r25, Y+13	; 0x0d
    1ca2:	e2 9f       	mul	r30, r18
    1ca4:	80 0d       	add	r24, r0
    1ca6:	91 1d       	adc	r25, r1
    1ca8:	11 24       	eor	r1, r1
    1caa:	9d 87       	std	Y+13, r25	; 0x0d
    1cac:	8c 87       	std	Y+12, r24	; 0x0c
    1cae:	36 c0       	rjmp	.+108    	; 0x1d1c <_ZN12Adafruit_GFX5writeEh+0x192>
    1cb0:	f4 01       	movw	r30, r8
    1cb2:	35 96       	adiw	r30, 0x05	; 5
    1cb4:	44 91       	lpm	r20, Z
    1cb6:	5f 89       	ldd	r21, Y+23	; 0x17
    1cb8:	55 23       	and	r21, r21
    1cba:	19 f1       	breq	.+70     	; 0x1d02 <_ZN12Adafruit_GFX5writeEh+0x178>
    1cbc:	5c 89       	ldd	r21, Y+20	; 0x14
    1cbe:	e3 2f       	mov	r30, r19
    1cc0:	f0 e0       	ldi	r31, 0x00	; 0
    1cc2:	e4 0f       	add	r30, r20
    1cc4:	f1 1d       	adc	r31, r1
    1cc6:	47 fd       	sbrc	r20, 7
    1cc8:	fa 95       	dec	r31
    1cca:	5e 9f       	mul	r21, r30
    1ccc:	b0 01       	movw	r22, r0
    1cce:	5f 9f       	mul	r21, r31
    1cd0:	70 0d       	add	r23, r0
    1cd2:	11 24       	eor	r1, r1
    1cd4:	4c 85       	ldd	r20, Y+12	; 0x0c
    1cd6:	5d 85       	ldd	r21, Y+13	; 0x0d
    1cd8:	46 0f       	add	r20, r22
    1cda:	57 1f       	adc	r21, r23
    1cdc:	68 85       	ldd	r22, Y+8	; 0x08
    1cde:	79 85       	ldd	r23, Y+9	; 0x09
    1ce0:	64 17       	cp	r22, r20
    1ce2:	75 07       	cpc	r23, r21
    1ce4:	74 f4       	brge	.+28     	; 0x1d02 <_ZN12Adafruit_GFX5writeEh+0x178>
    1ce6:	1d 86       	std	Y+13, r1	; 0x0d
    1ce8:	1c 86       	std	Y+12, r1	; 0x0c
    1cea:	3d 89       	ldd	r19, Y+21	; 0x15
    1cec:	fc 01       	movw	r30, r24
    1cee:	38 96       	adiw	r30, 0x08	; 8
    1cf0:	e4 91       	lpm	r30, Z
    1cf2:	8e 85       	ldd	r24, Y+14	; 0x0e
    1cf4:	9f 85       	ldd	r25, Y+15	; 0x0f
    1cf6:	3e 9f       	mul	r19, r30
    1cf8:	80 0d       	add	r24, r0
    1cfa:	91 1d       	adc	r25, r1
    1cfc:	11 24       	eor	r1, r1
    1cfe:	9f 87       	std	Y+15, r25	; 0x0f
    1d00:	8e 87       	std	Y+14, r24	; 0x0e
    1d02:	ea 88       	ldd	r14, Y+18	; 0x12
    1d04:	fb 88       	ldd	r15, Y+19	; 0x13
    1d06:	08 89       	ldd	r16, Y+16	; 0x10
    1d08:	19 89       	ldd	r17, Y+17	; 0x11
    1d0a:	4e 85       	ldd	r20, Y+14	; 0x0e
    1d0c:	5f 85       	ldd	r21, Y+15	; 0x0f
    1d0e:	6c 85       	ldd	r22, Y+12	; 0x0c
    1d10:	7d 85       	ldd	r23, Y+13	; 0x0d
    1d12:	ad 88       	ldd	r10, Y+21	; 0x15
    1d14:	cc 88       	ldd	r12, Y+20	; 0x14
    1d16:	ce 01       	movw	r24, r28
    1d18:	03 dd       	rcall	.-1530   	; 0x1720 <_ZN12Adafruit_GFX8drawCharEiihjjhh>
    1d1a:	bd cf       	rjmp	.-134    	; 0x1c96 <_ZN12Adafruit_GFX5writeEh+0x10c>
    1d1c:	81 e0       	ldi	r24, 0x01	; 1
    1d1e:	90 e0       	ldi	r25, 0x00	; 0
    1d20:	df 91       	pop	r29
    1d22:	cf 91       	pop	r28
    1d24:	1f 91       	pop	r17
    1d26:	0f 91       	pop	r16
    1d28:	ff 90       	pop	r15
    1d2a:	ef 90       	pop	r14
    1d2c:	cf 90       	pop	r12
    1d2e:	af 90       	pop	r10
    1d30:	9f 90       	pop	r9
    1d32:	8f 90       	pop	r8
    1d34:	08 95       	ret

00001d36 <_ZN12Adafruit_GFX11setTextSizeEhh>:
    1d36:	61 11       	cpse	r22, r1
    1d38:	01 c0       	rjmp	.+2      	; 0x1d3c <_ZN12Adafruit_GFX11setTextSizeEhh+0x6>
    1d3a:	61 e0       	ldi	r22, 0x01	; 1
    1d3c:	fc 01       	movw	r30, r24
    1d3e:	64 8b       	std	Z+20, r22	; 0x14
    1d40:	41 11       	cpse	r20, r1
    1d42:	01 c0       	rjmp	.+2      	; 0x1d46 <_ZN12Adafruit_GFX11setTextSizeEhh+0x10>
    1d44:	41 e0       	ldi	r20, 0x01	; 1
    1d46:	fc 01       	movw	r30, r24
    1d48:	45 8b       	std	Z+21, r20	; 0x15
    1d4a:	08 95       	ret

00001d4c <_ZN12Adafruit_GFX11setTextSizeEh>:
    1d4c:	46 2f       	mov	r20, r22
    1d4e:	f3 cf       	rjmp	.-26     	; 0x1d36 <_ZN12Adafruit_GFX11setTextSizeEhh>

00001d50 <_ZN16Adafruit_SSD13069drawPixelEiij>:
    1d50:	fc 01       	movw	r30, r24
    1d52:	77 fd       	sbrc	r23, 7
    1d54:	b9 c0       	rjmp	.+370    	; 0x1ec8 <_ZN16Adafruit_SSD13069drawPixelEiij+0x178>
    1d56:	80 85       	ldd	r24, Z+8	; 0x08
    1d58:	91 85       	ldd	r25, Z+9	; 0x09
    1d5a:	68 17       	cp	r22, r24
    1d5c:	79 07       	cpc	r23, r25
    1d5e:	0c f0       	brlt	.+2      	; 0x1d62 <_ZN16Adafruit_SSD13069drawPixelEiij+0x12>
    1d60:	b3 c0       	rjmp	.+358    	; 0x1ec8 <_ZN16Adafruit_SSD13069drawPixelEiij+0x178>
    1d62:	57 fd       	sbrc	r21, 7
    1d64:	b1 c0       	rjmp	.+354    	; 0x1ec8 <_ZN16Adafruit_SSD13069drawPixelEiij+0x178>
    1d66:	82 85       	ldd	r24, Z+10	; 0x0a
    1d68:	93 85       	ldd	r25, Z+11	; 0x0b
    1d6a:	48 17       	cp	r20, r24
    1d6c:	59 07       	cpc	r21, r25
    1d6e:	0c f0       	brlt	.+2      	; 0x1d72 <_ZN16Adafruit_SSD13069drawPixelEiij+0x22>
    1d70:	08 95       	ret
    1d72:	86 89       	ldd	r24, Z+22	; 0x16
    1d74:	82 30       	cpi	r24, 0x02	; 2
    1d76:	79 f4       	brne	.+30     	; 0x1d96 <_ZN16Adafruit_SSD13069drawPixelEiij+0x46>
    1d78:	84 81       	ldd	r24, Z+4	; 0x04
    1d7a:	95 81       	ldd	r25, Z+5	; 0x05
    1d7c:	dc 01       	movw	r26, r24
    1d7e:	a6 1b       	sub	r26, r22
    1d80:	b7 0b       	sbc	r27, r23
    1d82:	bd 01       	movw	r22, r26
    1d84:	61 50       	subi	r22, 0x01	; 1
    1d86:	71 09       	sbc	r23, r1
    1d88:	86 81       	ldd	r24, Z+6	; 0x06
    1d8a:	97 81       	ldd	r25, Z+7	; 0x07
    1d8c:	dc 01       	movw	r26, r24
    1d8e:	a4 1b       	sub	r26, r20
    1d90:	b5 0b       	sbc	r27, r21
    1d92:	ad 01       	movw	r20, r26
    1d94:	0e c0       	rjmp	.+28     	; 0x1db2 <_ZN16Adafruit_SSD13069drawPixelEiij+0x62>
    1d96:	83 30       	cpi	r24, 0x03	; 3
    1d98:	09 f0       	breq	.+2      	; 0x1d9c <_ZN16Adafruit_SSD13069drawPixelEiij+0x4c>
    1d9a:	84 c0       	rjmp	.+264    	; 0x1ea4 <_ZN16Adafruit_SSD13069drawPixelEiij+0x154>
    1d9c:	64 27       	eor	r22, r20
    1d9e:	75 27       	eor	r23, r21
    1da0:	ca 01       	movw	r24, r20
    1da2:	86 27       	eor	r24, r22
    1da4:	97 27       	eor	r25, r23
    1da6:	68 27       	eor	r22, r24
    1da8:	79 27       	eor	r23, r25
    1daa:	46 81       	ldd	r20, Z+6	; 0x06
    1dac:	57 81       	ldd	r21, Z+7	; 0x07
    1dae:	48 1b       	sub	r20, r24
    1db0:	59 0b       	sbc	r21, r25
    1db2:	41 50       	subi	r20, 0x01	; 1
    1db4:	51 09       	sbc	r21, r1
    1db6:	21 30       	cpi	r18, 0x01	; 1
    1db8:	31 05       	cpc	r19, r1
    1dba:	31 f0       	breq	.+12     	; 0x1dc8 <_ZN16Adafruit_SSD13069drawPixelEiij+0x78>
    1dbc:	48 f1       	brcs	.+82     	; 0x1e10 <_ZN16Adafruit_SSD13069drawPixelEiij+0xc0>
    1dbe:	22 30       	cpi	r18, 0x02	; 2
    1dc0:	31 05       	cpc	r19, r1
    1dc2:	09 f4       	brne	.+2      	; 0x1dc6 <_ZN16Adafruit_SSD13069drawPixelEiij+0x76>
    1dc4:	4a c0       	rjmp	.+148    	; 0x1e5a <_ZN16Adafruit_SSD13069drawPixelEiij+0x10a>
    1dc6:	08 95       	ret
    1dc8:	ca 01       	movw	r24, r20
    1dca:	57 fd       	sbrc	r21, 7
    1dcc:	07 96       	adiw	r24, 0x07	; 7
    1dce:	9c 01       	movw	r18, r24
    1dd0:	a3 e0       	ldi	r26, 0x03	; 3
    1dd2:	35 95       	asr	r19
    1dd4:	27 95       	ror	r18
    1dd6:	aa 95       	dec	r26
    1dd8:	e1 f7       	brne	.-8      	; 0x1dd2 <_ZN16Adafruit_SSD13069drawPixelEiij+0x82>
    1dda:	a4 81       	ldd	r26, Z+4	; 0x04
    1ddc:	b5 81       	ldd	r27, Z+5	; 0x05
    1dde:	2a 9f       	mul	r18, r26
    1de0:	c0 01       	movw	r24, r0
    1de2:	2b 9f       	mul	r18, r27
    1de4:	90 0d       	add	r25, r0
    1de6:	3a 9f       	mul	r19, r26
    1de8:	90 0d       	add	r25, r0
    1dea:	11 24       	eor	r1, r1
    1dec:	68 0f       	add	r22, r24
    1dee:	79 1f       	adc	r23, r25
    1df0:	07 8c       	ldd	r0, Z+31	; 0x1f
    1df2:	f0 a1       	ldd	r31, Z+32	; 0x20
    1df4:	e0 2d       	mov	r30, r0
    1df6:	e6 0f       	add	r30, r22
    1df8:	f7 1f       	adc	r31, r23
    1dfa:	47 70       	andi	r20, 0x07	; 7
    1dfc:	55 27       	eor	r21, r21
    1dfe:	81 e0       	ldi	r24, 0x01	; 1
    1e00:	90 e0       	ldi	r25, 0x00	; 0
    1e02:	01 c0       	rjmp	.+2      	; 0x1e06 <_ZN16Adafruit_SSD13069drawPixelEiij+0xb6>
    1e04:	88 0f       	add	r24, r24
    1e06:	4a 95       	dec	r20
    1e08:	ea f7       	brpl	.-6      	; 0x1e04 <_ZN16Adafruit_SSD13069drawPixelEiij+0xb4>
    1e0a:	90 81       	ld	r25, Z
    1e0c:	89 2b       	or	r24, r25
    1e0e:	48 c0       	rjmp	.+144    	; 0x1ea0 <_ZN16Adafruit_SSD13069drawPixelEiij+0x150>
    1e10:	ca 01       	movw	r24, r20
    1e12:	57 fd       	sbrc	r21, 7
    1e14:	07 96       	adiw	r24, 0x07	; 7
    1e16:	9c 01       	movw	r18, r24
    1e18:	93 e0       	ldi	r25, 0x03	; 3
    1e1a:	35 95       	asr	r19
    1e1c:	27 95       	ror	r18
    1e1e:	9a 95       	dec	r25
    1e20:	e1 f7       	brne	.-8      	; 0x1e1a <_ZN16Adafruit_SSD13069drawPixelEiij+0xca>
    1e22:	a4 81       	ldd	r26, Z+4	; 0x04
    1e24:	b5 81       	ldd	r27, Z+5	; 0x05
    1e26:	2a 9f       	mul	r18, r26
    1e28:	c0 01       	movw	r24, r0
    1e2a:	2b 9f       	mul	r18, r27
    1e2c:	90 0d       	add	r25, r0
    1e2e:	3a 9f       	mul	r19, r26
    1e30:	90 0d       	add	r25, r0
    1e32:	11 24       	eor	r1, r1
    1e34:	68 0f       	add	r22, r24
    1e36:	79 1f       	adc	r23, r25
    1e38:	07 8c       	ldd	r0, Z+31	; 0x1f
    1e3a:	f0 a1       	ldd	r31, Z+32	; 0x20
    1e3c:	e0 2d       	mov	r30, r0
    1e3e:	e6 0f       	add	r30, r22
    1e40:	f7 1f       	adc	r31, r23
    1e42:	47 70       	andi	r20, 0x07	; 7
    1e44:	55 27       	eor	r21, r21
    1e46:	81 e0       	ldi	r24, 0x01	; 1
    1e48:	90 e0       	ldi	r25, 0x00	; 0
    1e4a:	01 c0       	rjmp	.+2      	; 0x1e4e <_ZN16Adafruit_SSD13069drawPixelEiij+0xfe>
    1e4c:	88 0f       	add	r24, r24
    1e4e:	4a 95       	dec	r20
    1e50:	ea f7       	brpl	.-6      	; 0x1e4c <_ZN16Adafruit_SSD13069drawPixelEiij+0xfc>
    1e52:	80 95       	com	r24
    1e54:	90 81       	ld	r25, Z
    1e56:	89 23       	and	r24, r25
    1e58:	23 c0       	rjmp	.+70     	; 0x1ea0 <_ZN16Adafruit_SSD13069drawPixelEiij+0x150>
    1e5a:	ca 01       	movw	r24, r20
    1e5c:	57 fd       	sbrc	r21, 7
    1e5e:	07 96       	adiw	r24, 0x07	; 7
    1e60:	9c 01       	movw	r18, r24
    1e62:	83 e0       	ldi	r24, 0x03	; 3
    1e64:	35 95       	asr	r19
    1e66:	27 95       	ror	r18
    1e68:	8a 95       	dec	r24
    1e6a:	e1 f7       	brne	.-8      	; 0x1e64 <_ZN16Adafruit_SSD13069drawPixelEiij+0x114>
    1e6c:	a4 81       	ldd	r26, Z+4	; 0x04
    1e6e:	b5 81       	ldd	r27, Z+5	; 0x05
    1e70:	2a 9f       	mul	r18, r26
    1e72:	c0 01       	movw	r24, r0
    1e74:	2b 9f       	mul	r18, r27
    1e76:	90 0d       	add	r25, r0
    1e78:	3a 9f       	mul	r19, r26
    1e7a:	90 0d       	add	r25, r0
    1e7c:	11 24       	eor	r1, r1
    1e7e:	68 0f       	add	r22, r24
    1e80:	79 1f       	adc	r23, r25
    1e82:	07 8c       	ldd	r0, Z+31	; 0x1f
    1e84:	f0 a1       	ldd	r31, Z+32	; 0x20
    1e86:	e0 2d       	mov	r30, r0
    1e88:	e6 0f       	add	r30, r22
    1e8a:	f7 1f       	adc	r31, r23
    1e8c:	47 70       	andi	r20, 0x07	; 7
    1e8e:	55 27       	eor	r21, r21
    1e90:	81 e0       	ldi	r24, 0x01	; 1
    1e92:	90 e0       	ldi	r25, 0x00	; 0
    1e94:	01 c0       	rjmp	.+2      	; 0x1e98 <_ZN16Adafruit_SSD13069drawPixelEiij+0x148>
    1e96:	88 0f       	add	r24, r24
    1e98:	4a 95       	dec	r20
    1e9a:	ea f7       	brpl	.-6      	; 0x1e96 <_ZN16Adafruit_SSD13069drawPixelEiij+0x146>
    1e9c:	90 81       	ld	r25, Z
    1e9e:	89 27       	eor	r24, r25
    1ea0:	80 83       	st	Z, r24
    1ea2:	08 95       	ret
    1ea4:	81 30       	cpi	r24, 0x01	; 1
    1ea6:	09 f0       	breq	.+2      	; 0x1eaa <_ZN16Adafruit_SSD13069drawPixelEiij+0x15a>
    1ea8:	86 cf       	rjmp	.-244    	; 0x1db6 <_ZN16Adafruit_SSD13069drawPixelEiij+0x66>
    1eaa:	64 27       	eor	r22, r20
    1eac:	75 27       	eor	r23, r21
    1eae:	46 27       	eor	r20, r22
    1eb0:	57 27       	eor	r21, r23
    1eb2:	64 27       	eor	r22, r20
    1eb4:	75 27       	eor	r23, r21
    1eb6:	84 81       	ldd	r24, Z+4	; 0x04
    1eb8:	95 81       	ldd	r25, Z+5	; 0x05
    1eba:	dc 01       	movw	r26, r24
    1ebc:	a6 1b       	sub	r26, r22
    1ebe:	b7 0b       	sbc	r27, r23
    1ec0:	bd 01       	movw	r22, r26
    1ec2:	61 50       	subi	r22, 0x01	; 1
    1ec4:	71 09       	sbc	r23, r1
    1ec6:	77 cf       	rjmp	.-274    	; 0x1db6 <_ZN16Adafruit_SSD13069drawPixelEiij+0x66>
    1ec8:	08 95       	ret

00001eca <_ZN8SPIClass8transferEh>:
    1eca:	8e bd       	out	0x2e, r24	; 46
    1ecc:	00 00       	nop
    1ece:	0d b4       	in	r0, 0x2d	; 45
    1ed0:	07 fe       	sbrs	r0, 7
    1ed2:	fd cf       	rjmp	.-6      	; 0x1ece <_ZN8SPIClass8transferEh+0x4>
    1ed4:	8e b5       	in	r24, 0x2e	; 46
    1ed6:	08 95       	ret

00001ed8 <_ZN16Adafruit_SSD1306C1EhhP7TwoWireamm>:
    1ed8:	4f 92       	push	r4
    1eda:	5f 92       	push	r5
    1edc:	6f 92       	push	r6
    1ede:	7f 92       	push	r7
    1ee0:	8f 92       	push	r8
    1ee2:	9f 92       	push	r9
    1ee4:	af 92       	push	r10
    1ee6:	bf 92       	push	r11
    1ee8:	cf 92       	push	r12
    1eea:	df 92       	push	r13
    1eec:	ef 92       	push	r14
    1eee:	ff 92       	push	r15
    1ef0:	0f 93       	push	r16
    1ef2:	cf 93       	push	r28
    1ef4:	df 93       	push	r29
    1ef6:	cd b7       	in	r28, 0x3d	; 61
    1ef8:	de b7       	in	r29, 0x3e	; 62
    1efa:	3c 01       	movw	r6, r24
    1efc:	29 01       	movw	r4, r18
    1efe:	50 e0       	ldi	r21, 0x00	; 0
    1f00:	70 e0       	ldi	r23, 0x00	; 0
    1f02:	4e db       	rcall	.-2404   	; 0x15a0 <_ZN12Adafruit_GFXC1Eii>
    1f04:	8b eb       	ldi	r24, 0xBB	; 187
    1f06:	92 e0       	ldi	r25, 0x02	; 2
    1f08:	f3 01       	movw	r30, r6
    1f0a:	91 83       	std	Z+1, r25	; 0x01
    1f0c:	80 83       	st	Z, r24
    1f0e:	14 8e       	std	Z+28, r1	; 0x1c
    1f10:	13 8e       	std	Z+27, r1	; 0x1b
    1f12:	41 14       	cp	r4, r1
    1f14:	51 04       	cpc	r5, r1
    1f16:	11 f0       	breq	.+4      	; 0x1f1c <_ZN16Adafruit_SSD1306C1EhhP7TwoWireamm+0x44>
    1f18:	c2 01       	movw	r24, r4
    1f1a:	02 c0       	rjmp	.+4      	; 0x1f20 <_ZN16Adafruit_SSD1306C1EhhP7TwoWireamm+0x48>
    1f1c:	84 e1       	ldi	r24, 0x14	; 20
    1f1e:	95 e0       	ldi	r25, 0x05	; 5
    1f20:	f3 01       	movw	r30, r6
    1f22:	96 8f       	std	Z+30, r25	; 0x1e
    1f24:	85 8f       	std	Z+29, r24	; 0x1d
    1f26:	10 a2       	std	Z+32, r1	; 0x20
    1f28:	17 8e       	std	Z+31, r1	; 0x1f
    1f2a:	8f ef       	ldi	r24, 0xFF	; 255
    1f2c:	84 a3       	std	Z+36, r24	; 0x24
    1f2e:	85 a3       	std	Z+37, r24	; 0x25
    1f30:	86 a3       	std	Z+38, r24	; 0x26
    1f32:	87 a3       	std	Z+39, r24	; 0x27
    1f34:	00 a7       	std	Z+40, r16	; 0x28
    1f36:	c5 aa       	std	Z+53, r12	; 0x35
    1f38:	d6 aa       	std	Z+54, r13	; 0x36
    1f3a:	e7 aa       	std	Z+55, r14	; 0x37
    1f3c:	f0 ae       	std	Z+56, r15	; 0x38
    1f3e:	81 ae       	std	Z+57, r8	; 0x39
    1f40:	92 ae       	std	Z+58, r9	; 0x3a
    1f42:	a3 ae       	std	Z+59, r10	; 0x3b
    1f44:	b4 ae       	std	Z+60, r11	; 0x3c
    1f46:	80 e5       	ldi	r24, 0x50	; 80
    1f48:	86 af       	std	Z+62, r24	; 0x3e
    1f4a:	17 ae       	std	Z+63, r1	; 0x3f
    1f4c:	df 91       	pop	r29
    1f4e:	cf 91       	pop	r28
    1f50:	0f 91       	pop	r16
    1f52:	ff 90       	pop	r15
    1f54:	ef 90       	pop	r14
    1f56:	df 90       	pop	r13
    1f58:	cf 90       	pop	r12
    1f5a:	bf 90       	pop	r11
    1f5c:	af 90       	pop	r10
    1f5e:	9f 90       	pop	r9
    1f60:	8f 90       	pop	r8
    1f62:	7f 90       	pop	r7
    1f64:	6f 90       	pop	r6
    1f66:	5f 90       	pop	r5
    1f68:	4f 90       	pop	r4
    1f6a:	08 95       	ret

00001f6c <_ZN16Adafruit_SSD1306D1Ev>:
    1f6c:	2b eb       	ldi	r18, 0xBB	; 187
    1f6e:	32 e0       	ldi	r19, 0x02	; 2
    1f70:	fc 01       	movw	r30, r24
    1f72:	31 83       	std	Z+1, r19	; 0x01
    1f74:	20 83       	st	Z, r18
    1f76:	87 8d       	ldd	r24, Z+31	; 0x1f
    1f78:	90 a1       	ldd	r25, Z+32	; 0x20
    1f7a:	00 97       	sbiw	r24, 0x00	; 0
    1f7c:	11 f0       	breq	.+4      	; 0x1f82 <_ZN16Adafruit_SSD1306D1Ev+0x16>
    1f7e:	0c 94 6d 2b 	jmp	0x56da	; 0x56da <free>
    1f82:	08 95       	ret

00001f84 <_ZN16Adafruit_SSD130616ssd1306_command1Eh>:
    1f84:	1f 93       	push	r17
    1f86:	cf 93       	push	r28
    1f88:	df 93       	push	r29
    1f8a:	fc 01       	movw	r30, r24
    1f8c:	85 8d       	ldd	r24, Z+29	; 0x1d
    1f8e:	96 8d       	ldd	r25, Z+30	; 0x1e
    1f90:	00 97       	sbiw	r24, 0x00	; 0
    1f92:	19 f1       	breq	.+70     	; 0x1fda <_ZN16Adafruit_SSD130616ssd1306_command1Eh+0x56>
    1f94:	16 2f       	mov	r17, r22
    1f96:	ef 01       	movw	r28, r30
    1f98:	61 a1       	ldd	r22, Z+33	; 0x21
    1f9a:	06 2e       	mov	r0, r22
    1f9c:	00 0c       	add	r0, r0
    1f9e:	77 0b       	sbc	r23, r23
    1fa0:	0e 94 73 24 	call	0x48e6	; 0x48e6 <_ZN7TwoWire17beginTransmissionEi>
    1fa4:	8d 8d       	ldd	r24, Y+29	; 0x1d
    1fa6:	9e 8d       	ldd	r25, Y+30	; 0x1e
    1fa8:	dc 01       	movw	r26, r24
    1faa:	ed 91       	ld	r30, X+
    1fac:	fc 91       	ld	r31, X
    1fae:	01 90       	ld	r0, Z+
    1fb0:	f0 81       	ld	r31, Z
    1fb2:	e0 2d       	mov	r30, r0
    1fb4:	60 e0       	ldi	r22, 0x00	; 0
    1fb6:	19 95       	eicall
    1fb8:	8d 8d       	ldd	r24, Y+29	; 0x1d
    1fba:	9e 8d       	ldd	r25, Y+30	; 0x1e
    1fbc:	dc 01       	movw	r26, r24
    1fbe:	ed 91       	ld	r30, X+
    1fc0:	fc 91       	ld	r31, X
    1fc2:	01 90       	ld	r0, Z+
    1fc4:	f0 81       	ld	r31, Z
    1fc6:	e0 2d       	mov	r30, r0
    1fc8:	61 2f       	mov	r22, r17
    1fca:	19 95       	eicall
    1fcc:	8d 8d       	ldd	r24, Y+29	; 0x1d
    1fce:	9e 8d       	ldd	r25, Y+30	; 0x1e
    1fd0:	df 91       	pop	r29
    1fd2:	cf 91       	pop	r28
    1fd4:	1f 91       	pop	r17
    1fd6:	0c 94 86 24 	jmp	0x490c	; 0x490c <_ZN7TwoWire15endTransmissionEv>
    1fda:	a5 a5       	ldd	r26, Z+45	; 0x2d
    1fdc:	b6 a5       	ldd	r27, Z+46	; 0x2e
    1fde:	9c 91       	ld	r25, X
    1fe0:	83 a9       	ldd	r24, Z+51	; 0x33
    1fe2:	80 95       	com	r24
    1fe4:	89 23       	and	r24, r25
    1fe6:	8c 93       	st	X, r24
    1fe8:	83 8d       	ldd	r24, Z+27	; 0x1b
    1fea:	94 8d       	ldd	r25, Z+28	; 0x1c
    1fec:	89 2b       	or	r24, r25
    1fee:	29 f0       	breq	.+10     	; 0x1ffa <_ZN16Adafruit_SSD130616ssd1306_command1Eh+0x76>
    1ff0:	86 2f       	mov	r24, r22
    1ff2:	df 91       	pop	r29
    1ff4:	cf 91       	pop	r28
    1ff6:	1f 91       	pop	r17
    1ff8:	68 cf       	rjmp	.-304    	; 0x1eca <_ZN8SPIClass8transferEh>
    1ffa:	28 e0       	ldi	r18, 0x08	; 8
    1ffc:	30 e0       	ldi	r19, 0x00	; 0
    1ffe:	80 e8       	ldi	r24, 0x80	; 128
    2000:	a1 a5       	ldd	r26, Z+41	; 0x29
    2002:	b2 a5       	ldd	r27, Z+42	; 0x2a
    2004:	91 a9       	ldd	r25, Z+49	; 0x31
    2006:	46 2f       	mov	r20, r22
    2008:	48 23       	and	r20, r24
    200a:	19 f0       	breq	.+6      	; 0x2012 <__DATA_REGION_LENGTH__+0x12>
    200c:	4c 91       	ld	r20, X
    200e:	94 2b       	or	r25, r20
    2010:	03 c0       	rjmp	.+6      	; 0x2018 <__DATA_REGION_LENGTH__+0x18>
    2012:	4c 91       	ld	r20, X
    2014:	90 95       	com	r25
    2016:	94 23       	and	r25, r20
    2018:	9c 93       	st	X, r25
    201a:	a3 a5       	ldd	r26, Z+43	; 0x2b
    201c:	b4 a5       	ldd	r27, Z+44	; 0x2c
    201e:	4c 91       	ld	r20, X
    2020:	92 a9       	ldd	r25, Z+50	; 0x32
    2022:	94 2b       	or	r25, r20
    2024:	9c 93       	st	X, r25
    2026:	a3 a5       	ldd	r26, Z+43	; 0x2b
    2028:	b4 a5       	ldd	r27, Z+44	; 0x2c
    202a:	4c 91       	ld	r20, X
    202c:	92 a9       	ldd	r25, Z+50	; 0x32
    202e:	90 95       	com	r25
    2030:	94 23       	and	r25, r20
    2032:	9c 93       	st	X, r25
    2034:	86 95       	lsr	r24
    2036:	21 50       	subi	r18, 0x01	; 1
    2038:	31 09       	sbc	r19, r1
    203a:	11 f7       	brne	.-60     	; 0x2000 <__DATA_REGION_LENGTH__>
    203c:	df 91       	pop	r29
    203e:	cf 91       	pop	r28
    2040:	1f 91       	pop	r17
    2042:	08 95       	ret

00002044 <_ZN16Adafruit_SSD130613invertDisplayEb>:
    2044:	1f 93       	push	r17
    2046:	cf 93       	push	r28
    2048:	df 93       	push	r29
    204a:	ec 01       	movw	r28, r24
    204c:	16 2f       	mov	r17, r22
    204e:	8d 8d       	ldd	r24, Y+29	; 0x1d
    2050:	9e 8d       	ldd	r25, Y+30	; 0x1e
    2052:	00 97       	sbiw	r24, 0x00	; 0
    2054:	39 f0       	breq	.+14     	; 0x2064 <_ZN16Adafruit_SSD130613invertDisplayEb+0x20>
    2056:	4d a9       	ldd	r20, Y+53	; 0x35
    2058:	5e a9       	ldd	r21, Y+54	; 0x36
    205a:	6f a9       	ldd	r22, Y+55	; 0x37
    205c:	78 ad       	ldd	r23, Y+56	; 0x38
    205e:	0e 94 66 24 	call	0x48cc	; 0x48cc <_ZN7TwoWire8setClockEm>
    2062:	0f c0       	rjmp	.+30     	; 0x2082 <_ZN16Adafruit_SSD130613invertDisplayEb+0x3e>
    2064:	8b 8d       	ldd	r24, Y+27	; 0x1b
    2066:	9c 8d       	ldd	r25, Y+28	; 0x1c
    2068:	89 2b       	or	r24, r25
    206a:	21 f0       	breq	.+8      	; 0x2074 <_ZN16Adafruit_SSD130613invertDisplayEb+0x30>
    206c:	8e ad       	ldd	r24, Y+62	; 0x3e
    206e:	9f ad       	ldd	r25, Y+63	; 0x3f
    2070:	0e 94 0a 08 	call	0x1014	; 0x1014 <_ZN8SPIClass16beginTransactionE11SPISettings>
    2074:	ef a5       	ldd	r30, Y+47	; 0x2f
    2076:	f8 a9       	ldd	r31, Y+48	; 0x30
    2078:	90 81       	ld	r25, Z
    207a:	8c a9       	ldd	r24, Y+52	; 0x34
    207c:	80 95       	com	r24
    207e:	89 23       	and	r24, r25
    2080:	80 83       	st	Z, r24
    2082:	11 11       	cpse	r17, r1
    2084:	02 c0       	rjmp	.+4      	; 0x208a <_ZN16Adafruit_SSD130613invertDisplayEb+0x46>
    2086:	66 ea       	ldi	r22, 0xA6	; 166
    2088:	01 c0       	rjmp	.+2      	; 0x208c <_ZN16Adafruit_SSD130613invertDisplayEb+0x48>
    208a:	67 ea       	ldi	r22, 0xA7	; 167
    208c:	ce 01       	movw	r24, r28
    208e:	7a df       	rcall	.-268    	; 0x1f84 <_ZN16Adafruit_SSD130616ssd1306_command1Eh>
    2090:	8d 8d       	ldd	r24, Y+29	; 0x1d
    2092:	9e 8d       	ldd	r25, Y+30	; 0x1e
    2094:	00 97       	sbiw	r24, 0x00	; 0
    2096:	49 f0       	breq	.+18     	; 0x20aa <_ZN16Adafruit_SSD130613invertDisplayEb+0x66>
    2098:	49 ad       	ldd	r20, Y+57	; 0x39
    209a:	5a ad       	ldd	r21, Y+58	; 0x3a
    209c:	6b ad       	ldd	r22, Y+59	; 0x3b
    209e:	7c ad       	ldd	r23, Y+60	; 0x3c
    20a0:	df 91       	pop	r29
    20a2:	cf 91       	pop	r28
    20a4:	1f 91       	pop	r17
    20a6:	0c 94 66 24 	jmp	0x48cc	; 0x48cc <_ZN7TwoWire8setClockEm>
    20aa:	ef a5       	ldd	r30, Y+47	; 0x2f
    20ac:	f8 a9       	ldd	r31, Y+48	; 0x30
    20ae:	90 81       	ld	r25, Z
    20b0:	8c a9       	ldd	r24, Y+52	; 0x34
    20b2:	89 2b       	or	r24, r25
    20b4:	80 83       	st	Z, r24
    20b6:	8b 8d       	ldd	r24, Y+27	; 0x1b
    20b8:	9c 8d       	ldd	r25, Y+28	; 0x1c
    20ba:	89 2b       	or	r24, r25
    20bc:	29 f0       	breq	.+10     	; 0x20c8 <_ZN16Adafruit_SSD130613invertDisplayEb+0x84>
    20be:	df 91       	pop	r29
    20c0:	cf 91       	pop	r28
    20c2:	1f 91       	pop	r17
    20c4:	0c 94 24 08 	jmp	0x1048	; 0x1048 <_ZN8SPIClass14endTransactionEv>
    20c8:	df 91       	pop	r29
    20ca:	cf 91       	pop	r28
    20cc:	1f 91       	pop	r17
    20ce:	08 95       	ret

000020d0 <_ZN16Adafruit_SSD130619ssd1306_commandListEPKhh>:
    20d0:	bf 92       	push	r11
    20d2:	cf 92       	push	r12
    20d4:	df 92       	push	r13
    20d6:	ef 92       	push	r14
    20d8:	ff 92       	push	r15
    20da:	0f 93       	push	r16
    20dc:	1f 93       	push	r17
    20de:	cf 93       	push	r28
    20e0:	df 93       	push	r29
    20e2:	ec 01       	movw	r28, r24
    20e4:	b6 2e       	mov	r11, r22
    20e6:	07 2f       	mov	r16, r23
    20e8:	14 2f       	mov	r17, r20
    20ea:	8d 8d       	ldd	r24, Y+29	; 0x1d
    20ec:	9e 8d       	ldd	r25, Y+30	; 0x1e
    20ee:	00 97       	sbiw	r24, 0x00	; 0
    20f0:	09 f4       	brne	.+2      	; 0x20f4 <_ZN16Adafruit_SSD130619ssd1306_commandListEPKhh+0x24>
    20f2:	52 c0       	rjmp	.+164    	; 0x2198 <_ZN16Adafruit_SSD130619ssd1306_commandListEPKhh+0xc8>
    20f4:	69 a1       	ldd	r22, Y+33	; 0x21
    20f6:	06 2e       	mov	r0, r22
    20f8:	00 0c       	add	r0, r0
    20fa:	77 0b       	sbc	r23, r23
    20fc:	0e 94 73 24 	call	0x48e6	; 0x48e6 <_ZN7TwoWire17beginTransmissionEi>
    2100:	8d 8d       	ldd	r24, Y+29	; 0x1d
    2102:	9e 8d       	ldd	r25, Y+30	; 0x1e
    2104:	dc 01       	movw	r26, r24
    2106:	ed 91       	ld	r30, X+
    2108:	fc 91       	ld	r31, X
    210a:	01 90       	ld	r0, Z+
    210c:	f0 81       	ld	r31, Z
    210e:	e0 2d       	mov	r30, r0
    2110:	60 e0       	ldi	r22, 0x00	; 0
    2112:	19 95       	eicall
    2114:	cb 2c       	mov	r12, r11
    2116:	d0 2e       	mov	r13, r16
    2118:	ee 24       	eor	r14, r14
    211a:	e3 94       	inc	r14
    211c:	f1 2c       	mov	r15, r1
    211e:	8d 8d       	ldd	r24, Y+29	; 0x1d
    2120:	9e 8d       	ldd	r25, Y+30	; 0x1e
    2122:	11 23       	and	r17, r17
    2124:	71 f1       	breq	.+92     	; 0x2182 <_ZN16Adafruit_SSD130619ssd1306_commandListEPKhh+0xb2>
    2126:	b0 e2       	ldi	r27, 0x20	; 32
    2128:	eb 16       	cp	r14, r27
    212a:	f1 04       	cpc	r15, r1
    212c:	b8 f0       	brcs	.+46     	; 0x215c <_ZN16Adafruit_SSD130619ssd1306_commandListEPKhh+0x8c>
    212e:	0e 94 86 24 	call	0x490c	; 0x490c <_ZN7TwoWire15endTransmissionEv>
    2132:	69 a1       	ldd	r22, Y+33	; 0x21
    2134:	06 2e       	mov	r0, r22
    2136:	00 0c       	add	r0, r0
    2138:	77 0b       	sbc	r23, r23
    213a:	8d 8d       	ldd	r24, Y+29	; 0x1d
    213c:	9e 8d       	ldd	r25, Y+30	; 0x1e
    213e:	0e 94 73 24 	call	0x48e6	; 0x48e6 <_ZN7TwoWire17beginTransmissionEi>
    2142:	8d 8d       	ldd	r24, Y+29	; 0x1d
    2144:	9e 8d       	ldd	r25, Y+30	; 0x1e
    2146:	dc 01       	movw	r26, r24
    2148:	ed 91       	ld	r30, X+
    214a:	fc 91       	ld	r31, X
    214c:	01 90       	ld	r0, Z+
    214e:	f0 81       	ld	r31, Z
    2150:	e0 2d       	mov	r30, r0
    2152:	60 e0       	ldi	r22, 0x00	; 0
    2154:	19 95       	eicall
    2156:	ee 24       	eor	r14, r14
    2158:	e3 94       	inc	r14
    215a:	f1 2c       	mov	r15, r1
    215c:	8d 8d       	ldd	r24, Y+29	; 0x1d
    215e:	9e 8d       	ldd	r25, Y+30	; 0x1e
    2160:	f6 01       	movw	r30, r12
    2162:	64 91       	lpm	r22, Z
    2164:	dc 01       	movw	r26, r24
    2166:	ed 91       	ld	r30, X+
    2168:	fc 91       	ld	r31, X
    216a:	01 90       	ld	r0, Z+
    216c:	f0 81       	ld	r31, Z
    216e:	e0 2d       	mov	r30, r0
    2170:	19 95       	eicall
    2172:	bf ef       	ldi	r27, 0xFF	; 255
    2174:	eb 1a       	sub	r14, r27
    2176:	fb 0a       	sbc	r15, r27
    2178:	11 50       	subi	r17, 0x01	; 1
    217a:	f6 01       	movw	r30, r12
    217c:	31 96       	adiw	r30, 0x01	; 1
    217e:	6f 01       	movw	r12, r30
    2180:	ce cf       	rjmp	.-100    	; 0x211e <_ZN16Adafruit_SSD130619ssd1306_commandListEPKhh+0x4e>
    2182:	df 91       	pop	r29
    2184:	cf 91       	pop	r28
    2186:	1f 91       	pop	r17
    2188:	0f 91       	pop	r16
    218a:	ff 90       	pop	r15
    218c:	ef 90       	pop	r14
    218e:	df 90       	pop	r13
    2190:	cf 90       	pop	r12
    2192:	bf 90       	pop	r11
    2194:	0c 94 86 24 	jmp	0x490c	; 0x490c <_ZN7TwoWire15endTransmissionEv>
    2198:	ed a5       	ldd	r30, Y+45	; 0x2d
    219a:	fe a5       	ldd	r31, Y+46	; 0x2e
    219c:	90 81       	ld	r25, Z
    219e:	8b a9       	ldd	r24, Y+51	; 0x33
    21a0:	80 95       	com	r24
    21a2:	89 23       	and	r24, r25
    21a4:	80 83       	st	Z, r24
    21a6:	e6 2e       	mov	r14, r22
    21a8:	f7 2e       	mov	r15, r23
    21aa:	11 23       	and	r17, r17
    21ac:	71 f1       	breq	.+92     	; 0x220a <__stack+0xb>
    21ae:	f7 01       	movw	r30, r14
    21b0:	84 91       	lpm	r24, Z
    21b2:	2b 8d       	ldd	r18, Y+27	; 0x1b
    21b4:	3c 8d       	ldd	r19, Y+28	; 0x1c
    21b6:	23 2b       	or	r18, r19
    21b8:	31 f0       	breq	.+12     	; 0x21c6 <_ZN16Adafruit_SSD130619ssd1306_commandListEPKhh+0xf6>
    21ba:	87 de       	rcall	.-754    	; 0x1eca <_ZN8SPIClass8transferEh>
    21bc:	11 50       	subi	r17, 0x01	; 1
    21be:	c7 01       	movw	r24, r14
    21c0:	01 96       	adiw	r24, 0x01	; 1
    21c2:	7c 01       	movw	r14, r24
    21c4:	f2 cf       	rjmp	.-28     	; 0x21aa <_ZN16Adafruit_SSD130619ssd1306_commandListEPKhh+0xda>
    21c6:	28 e0       	ldi	r18, 0x08	; 8
    21c8:	30 e0       	ldi	r19, 0x00	; 0
    21ca:	40 e8       	ldi	r20, 0x80	; 128
    21cc:	e9 a5       	ldd	r30, Y+41	; 0x29
    21ce:	fa a5       	ldd	r31, Y+42	; 0x2a
    21d0:	99 a9       	ldd	r25, Y+49	; 0x31
    21d2:	58 2f       	mov	r21, r24
    21d4:	54 23       	and	r21, r20
    21d6:	19 f0       	breq	.+6      	; 0x21de <_ZN16Adafruit_SSD130619ssd1306_commandListEPKhh+0x10e>
    21d8:	50 81       	ld	r21, Z
    21da:	95 2b       	or	r25, r21
    21dc:	03 c0       	rjmp	.+6      	; 0x21e4 <_ZN16Adafruit_SSD130619ssd1306_commandListEPKhh+0x114>
    21de:	50 81       	ld	r21, Z
    21e0:	90 95       	com	r25
    21e2:	95 23       	and	r25, r21
    21e4:	90 83       	st	Z, r25
    21e6:	eb a5       	ldd	r30, Y+43	; 0x2b
    21e8:	fc a5       	ldd	r31, Y+44	; 0x2c
    21ea:	50 81       	ld	r21, Z
    21ec:	9a a9       	ldd	r25, Y+50	; 0x32
    21ee:	95 2b       	or	r25, r21
    21f0:	90 83       	st	Z, r25
    21f2:	eb a5       	ldd	r30, Y+43	; 0x2b
    21f4:	fc a5       	ldd	r31, Y+44	; 0x2c
    21f6:	50 81       	ld	r21, Z
    21f8:	9a a9       	ldd	r25, Y+50	; 0x32
    21fa:	90 95       	com	r25
    21fc:	95 23       	and	r25, r21
    21fe:	90 83       	st	Z, r25
    2200:	46 95       	lsr	r20
    2202:	21 50       	subi	r18, 0x01	; 1
    2204:	31 09       	sbc	r19, r1
    2206:	11 f7       	brne	.-60     	; 0x21cc <_ZN16Adafruit_SSD130619ssd1306_commandListEPKhh+0xfc>
    2208:	d9 cf       	rjmp	.-78     	; 0x21bc <_ZN16Adafruit_SSD130619ssd1306_commandListEPKhh+0xec>
    220a:	df 91       	pop	r29
    220c:	cf 91       	pop	r28
    220e:	1f 91       	pop	r17
    2210:	0f 91       	pop	r16
    2212:	ff 90       	pop	r15
    2214:	ef 90       	pop	r14
    2216:	df 90       	pop	r13
    2218:	cf 90       	pop	r12
    221a:	bf 90       	pop	r11
    221c:	08 95       	ret

0000221e <_ZN16Adafruit_SSD130612clearDisplayEv>:
    221e:	fc 01       	movw	r30, r24
    2220:	86 81       	ldd	r24, Z+6	; 0x06
    2222:	97 81       	ldd	r25, Z+7	; 0x07
    2224:	9c 01       	movw	r18, r24
    2226:	29 5f       	subi	r18, 0xF9	; 249
    2228:	3f 4f       	sbci	r19, 0xFF	; 255
    222a:	37 ff       	sbrs	r19, 7
    222c:	02 c0       	rjmp	.+4      	; 0x2232 <_ZN16Adafruit_SSD130612clearDisplayEv+0x14>
    222e:	29 5f       	subi	r18, 0xF9	; 249
    2230:	3f 4f       	sbci	r19, 0xFF	; 255
    2232:	83 e0       	ldi	r24, 0x03	; 3
    2234:	35 95       	asr	r19
    2236:	27 95       	ror	r18
    2238:	8a 95       	dec	r24
    223a:	e1 f7       	brne	.-8      	; 0x2234 <_ZN16Adafruit_SSD130612clearDisplayEv+0x16>
    223c:	84 81       	ldd	r24, Z+4	; 0x04
    223e:	95 81       	ldd	r25, Z+5	; 0x05
    2240:	28 9f       	mul	r18, r24
    2242:	a0 01       	movw	r20, r0
    2244:	29 9f       	mul	r18, r25
    2246:	50 0d       	add	r21, r0
    2248:	38 9f       	mul	r19, r24
    224a:	50 0d       	add	r21, r0
    224c:	11 24       	eor	r1, r1
    224e:	60 e0       	ldi	r22, 0x00	; 0
    2250:	70 e0       	ldi	r23, 0x00	; 0
    2252:	87 8d       	ldd	r24, Z+31	; 0x1f
    2254:	90 a1       	ldd	r25, Z+32	; 0x20
    2256:	0c 94 eb 2c 	jmp	0x59d6	; 0x59d6 <memset>

0000225a <_ZN16Adafruit_SSD13065beginEhhbb>:
    225a:	8f 92       	push	r8
    225c:	9f 92       	push	r9
    225e:	af 92       	push	r10
    2260:	bf 92       	push	r11
    2262:	cf 92       	push	r12
    2264:	df 92       	push	r13
    2266:	ef 92       	push	r14
    2268:	ff 92       	push	r15
    226a:	0f 93       	push	r16
    226c:	1f 93       	push	r17
    226e:	cf 93       	push	r28
    2270:	df 93       	push	r29
    2272:	ec 01       	movw	r28, r24
    2274:	86 2e       	mov	r8, r22
    2276:	b4 2e       	mov	r11, r20
    2278:	a2 2e       	mov	r10, r18
    227a:	90 2e       	mov	r9, r16
    227c:	8f 8d       	ldd	r24, Y+31	; 0x1f
    227e:	98 a1       	ldd	r25, Y+32	; 0x20
    2280:	89 2b       	or	r24, r25
    2282:	e9 f4       	brne	.+58     	; 0x22be <_ZN16Adafruit_SSD13065beginEhhbb+0x64>
    2284:	2e 81       	ldd	r18, Y+6	; 0x06
    2286:	3f 81       	ldd	r19, Y+7	; 0x07
    2288:	c9 01       	movw	r24, r18
    228a:	07 96       	adiw	r24, 0x07	; 7
    228c:	97 fd       	sbrc	r25, 7
    228e:	07 96       	adiw	r24, 0x07	; 7
    2290:	23 e0       	ldi	r18, 0x03	; 3
    2292:	95 95       	asr	r25
    2294:	87 95       	ror	r24
    2296:	2a 95       	dec	r18
    2298:	e1 f7       	brne	.-8      	; 0x2292 <_ZN16Adafruit_SSD13065beginEhhbb+0x38>
    229a:	2c 81       	ldd	r18, Y+4	; 0x04
    229c:	3d 81       	ldd	r19, Y+5	; 0x05
    229e:	ac 01       	movw	r20, r24
    22a0:	42 9f       	mul	r20, r18
    22a2:	c0 01       	movw	r24, r0
    22a4:	43 9f       	mul	r20, r19
    22a6:	90 0d       	add	r25, r0
    22a8:	52 9f       	mul	r21, r18
    22aa:	90 0d       	add	r25, r0
    22ac:	11 24       	eor	r1, r1
    22ae:	0e 94 d5 2a 	call	0x55aa	; 0x55aa <malloc>
    22b2:	98 a3       	std	Y+32, r25	; 0x20
    22b4:	8f 8f       	std	Y+31, r24	; 0x1f
    22b6:	89 2b       	or	r24, r25
    22b8:	11 f4       	brne	.+4      	; 0x22be <_ZN16Adafruit_SSD13065beginEhhbb+0x64>
    22ba:	80 e0       	ldi	r24, 0x00	; 0
    22bc:	84 c1       	rjmp	.+776    	; 0x25c6 <_ZN16Adafruit_SSD13065beginEhhbb+0x36c>
    22be:	ce 01       	movw	r24, r28
    22c0:	ae df       	rcall	.-164    	; 0x221e <_ZN16Adafruit_SSD130612clearDisplayEv>
    22c2:	8e 81       	ldd	r24, Y+6	; 0x06
    22c4:	9f 81       	ldd	r25, Y+7	; 0x07
    22c6:	6c 81       	ldd	r22, Y+4	; 0x04
    22c8:	7d 81       	ldd	r23, Y+5	; 0x05
    22ca:	81 32       	cpi	r24, 0x21	; 33
    22cc:	91 05       	cpc	r25, r1
    22ce:	e4 f0       	brlt	.+56     	; 0x2308 <_ZN16Adafruit_SSD13065beginEhhbb+0xae>
    22d0:	ac 01       	movw	r20, r24
    22d2:	40 54       	subi	r20, 0x40	; 64
    22d4:	51 09       	sbc	r21, r1
    22d6:	57 ff       	sbrs	r21, 7
    22d8:	02 c0       	rjmp	.+4      	; 0x22de <_ZN16Adafruit_SSD13065beginEhhbb+0x84>
    22da:	4f 5f       	subi	r20, 0xFF	; 255
    22dc:	5f 4f       	sbci	r21, 0xFF	; 255
    22de:	55 95       	asr	r21
    22e0:	47 95       	ror	r20
    22e2:	62 55       	subi	r22, 0x52	; 82
    22e4:	71 09       	sbc	r23, r1
    22e6:	77 ff       	sbrs	r23, 7
    22e8:	02 c0       	rjmp	.+4      	; 0x22ee <_ZN16Adafruit_SSD13065beginEhhbb+0x94>
    22ea:	6f 5f       	subi	r22, 0xFF	; 255
    22ec:	7f 4f       	sbci	r23, 0xFF	; 255
    22ee:	75 95       	asr	r23
    22f0:	67 95       	ror	r22
    22f2:	cc 24       	eor	r12, r12
    22f4:	c3 94       	inc	r12
    22f6:	d1 2c       	mov	r13, r1
    22f8:	80 e4       	ldi	r24, 0x40	; 64
    22fa:	e8 2e       	mov	r14, r24
    22fc:	f1 2c       	mov	r15, r1
    22fe:	02 e5       	ldi	r16, 0x52	; 82
    2300:	10 e0       	ldi	r17, 0x00	; 0
    2302:	28 e5       	ldi	r18, 0x58	; 88
    2304:	38 e0       	ldi	r19, 0x08	; 8
    2306:	1b c0       	rjmp	.+54     	; 0x233e <_ZN16Adafruit_SSD13065beginEhhbb+0xe4>
    2308:	ac 01       	movw	r20, r24
    230a:	40 52       	subi	r20, 0x20	; 32
    230c:	51 09       	sbc	r21, r1
    230e:	57 ff       	sbrs	r21, 7
    2310:	02 c0       	rjmp	.+4      	; 0x2316 <_ZN16Adafruit_SSD13065beginEhhbb+0xbc>
    2312:	4f 5f       	subi	r20, 0xFF	; 255
    2314:	5f 4f       	sbci	r21, 0xFF	; 255
    2316:	55 95       	asr	r21
    2318:	47 95       	ror	r20
    231a:	63 57       	subi	r22, 0x73	; 115
    231c:	71 09       	sbc	r23, r1
    231e:	77 ff       	sbrs	r23, 7
    2320:	02 c0       	rjmp	.+4      	; 0x2326 <_ZN16Adafruit_SSD13065beginEhhbb+0xcc>
    2322:	6f 5f       	subi	r22, 0xFF	; 255
    2324:	7f 4f       	sbci	r23, 0xFF	; 255
    2326:	75 95       	asr	r23
    2328:	67 95       	ror	r22
    232a:	cc 24       	eor	r12, r12
    232c:	c3 94       	inc	r12
    232e:	d1 2c       	mov	r13, r1
    2330:	a0 e2       	ldi	r26, 0x20	; 32
    2332:	ea 2e       	mov	r14, r26
    2334:	f1 2c       	mov	r15, r1
    2336:	03 e7       	ldi	r16, 0x73	; 115
    2338:	10 e0       	ldi	r17, 0x00	; 0
    233a:	28 e7       	ldi	r18, 0x78	; 120
    233c:	36 e0       	ldi	r19, 0x06	; 6
    233e:	ce 01       	movw	r24, r28
    2340:	51 d9       	rcall	.-3422   	; 0x15e4 <_ZN12Adafruit_GFX10drawBitmapEiiPKhiij>
    2342:	8a a2       	std	Y+34, r8	; 0x22
    2344:	8d 8d       	ldd	r24, Y+29	; 0x1d
    2346:	9e 8d       	ldd	r25, Y+30	; 0x1e
    2348:	00 97       	sbiw	r24, 0x00	; 0
    234a:	99 f0       	breq	.+38     	; 0x2372 <_ZN16Adafruit_SSD13065beginEhhbb+0x118>
    234c:	b1 10       	cpse	r11, r1
    234e:	07 c0       	rjmp	.+14     	; 0x235e <_ZN16Adafruit_SSD13065beginEhhbb+0x104>
    2350:	2e 81       	ldd	r18, Y+6	; 0x06
    2352:	3f 81       	ldd	r19, Y+7	; 0x07
    2354:	20 32       	cpi	r18, 0x20	; 32
    2356:	31 05       	cpc	r19, r1
    2358:	21 f4       	brne	.+8      	; 0x2362 <_ZN16Adafruit_SSD13065beginEhhbb+0x108>
    235a:	2c e3       	ldi	r18, 0x3C	; 60
    235c:	03 c0       	rjmp	.+6      	; 0x2364 <_ZN16Adafruit_SSD13065beginEhhbb+0x10a>
    235e:	2b 2d       	mov	r18, r11
    2360:	01 c0       	rjmp	.+2      	; 0x2364 <_ZN16Adafruit_SSD13065beginEhhbb+0x10a>
    2362:	2d e3       	ldi	r18, 0x3D	; 61
    2364:	29 a3       	std	Y+33, r18	; 0x21
    2366:	99 20       	and	r9, r9
    2368:	09 f4       	brne	.+2      	; 0x236c <_ZN16Adafruit_SSD13065beginEhhbb+0x112>
    236a:	2a c1       	rjmp	.+596    	; 0x25c0 <_ZN16Adafruit_SSD13065beginEhhbb+0x366>
    236c:	0e 94 57 24 	call	0x48ae	; 0x48ae <_ZN7TwoWire5beginEv>
    2370:	79 c0       	rjmp	.+242    	; 0x2464 <_ZN16Adafruit_SSD13065beginEhhbb+0x20a>
    2372:	61 e0       	ldi	r22, 0x01	; 1
    2374:	8e a1       	ldd	r24, Y+38	; 0x26
    2376:	0e 94 ad 28 	call	0x515a	; 0x515a <pinMode>
    237a:	61 e0       	ldi	r22, 0x01	; 1
    237c:	8f a1       	ldd	r24, Y+39	; 0x27
    237e:	0e 94 ad 28 	call	0x515a	; 0x515a <pinMode>
    2382:	8e a1       	ldd	r24, Y+38	; 0x26
    2384:	08 2e       	mov	r0, r24
    2386:	00 0c       	add	r0, r0
    2388:	99 0b       	sbc	r25, r25
    238a:	fc 01       	movw	r30, r24
    238c:	ec 55       	subi	r30, 0x5C	; 92
    238e:	f4 4f       	sbci	r31, 0xF4	; 244
    2390:	e4 91       	lpm	r30, Z
    2392:	f0 e0       	ldi	r31, 0x00	; 0
    2394:	ee 0f       	add	r30, r30
    2396:	ff 1f       	adc	r31, r31
    2398:	ec 5f       	subi	r30, 0xFC	; 252
    239a:	f3 4f       	sbci	r31, 0xF3	; 243
    239c:	25 91       	lpm	r18, Z+
    239e:	34 91       	lpm	r19, Z
    23a0:	3e a7       	std	Y+46, r19	; 0x2e
    23a2:	2d a7       	std	Y+45, r18	; 0x2d
    23a4:	fc 01       	movw	r30, r24
    23a6:	e2 5a       	subi	r30, 0xA2	; 162
    23a8:	f4 4f       	sbci	r31, 0xF4	; 244
    23aa:	e4 91       	lpm	r30, Z
    23ac:	eb ab       	std	Y+51, r30	; 0x33
    23ae:	8f a1       	ldd	r24, Y+39	; 0x27
    23b0:	08 2e       	mov	r0, r24
    23b2:	00 0c       	add	r0, r0
    23b4:	99 0b       	sbc	r25, r25
    23b6:	fc 01       	movw	r30, r24
    23b8:	ec 55       	subi	r30, 0x5C	; 92
    23ba:	f4 4f       	sbci	r31, 0xF4	; 244
    23bc:	e4 91       	lpm	r30, Z
    23be:	f0 e0       	ldi	r31, 0x00	; 0
    23c0:	ee 0f       	add	r30, r30
    23c2:	ff 1f       	adc	r31, r31
    23c4:	ec 5f       	subi	r30, 0xFC	; 252
    23c6:	f3 4f       	sbci	r31, 0xF3	; 243
    23c8:	a5 91       	lpm	r26, Z+
    23ca:	b4 91       	lpm	r27, Z
    23cc:	b8 ab       	std	Y+48, r27	; 0x30
    23ce:	af a7       	std	Y+47, r26	; 0x2f
    23d0:	fc 01       	movw	r30, r24
    23d2:	e2 5a       	subi	r30, 0xA2	; 162
    23d4:	f4 4f       	sbci	r31, 0xF4	; 244
    23d6:	e4 91       	lpm	r30, Z
    23d8:	ec ab       	std	Y+52, r30	; 0x34
    23da:	8c 91       	ld	r24, X
    23dc:	e8 2b       	or	r30, r24
    23de:	ec 93       	st	X, r30
    23e0:	8b 8d       	ldd	r24, Y+27	; 0x1b
    23e2:	9c 8d       	ldd	r25, Y+28	; 0x1c
    23e4:	89 2b       	or	r24, r25
    23e6:	31 f0       	breq	.+12     	; 0x23f4 <_ZN16Adafruit_SSD13065beginEhhbb+0x19a>
    23e8:	99 20       	and	r9, r9
    23ea:	09 f4       	brne	.+2      	; 0x23ee <_ZN16Adafruit_SSD13065beginEhhbb+0x194>
    23ec:	3b c0       	rjmp	.+118    	; 0x2464 <_ZN16Adafruit_SSD13065beginEhhbb+0x20a>
    23ee:	0e 94 26 20 	call	0x404c	; 0x404c <_ZN8SPIClass5beginEv>
    23f2:	38 c0       	rjmp	.+112    	; 0x2464 <_ZN16Adafruit_SSD13065beginEhhbb+0x20a>
    23f4:	61 e0       	ldi	r22, 0x01	; 1
    23f6:	8c a1       	ldd	r24, Y+36	; 0x24
    23f8:	0e 94 ad 28 	call	0x515a	; 0x515a <pinMode>
    23fc:	61 e0       	ldi	r22, 0x01	; 1
    23fe:	8d a1       	ldd	r24, Y+37	; 0x25
    2400:	0e 94 ad 28 	call	0x515a	; 0x515a <pinMode>
    2404:	8c a1       	ldd	r24, Y+36	; 0x24
    2406:	08 2e       	mov	r0, r24
    2408:	00 0c       	add	r0, r0
    240a:	99 0b       	sbc	r25, r25
    240c:	fc 01       	movw	r30, r24
    240e:	ec 55       	subi	r30, 0x5C	; 92
    2410:	f4 4f       	sbci	r31, 0xF4	; 244
    2412:	e4 91       	lpm	r30, Z
    2414:	f0 e0       	ldi	r31, 0x00	; 0
    2416:	ee 0f       	add	r30, r30
    2418:	ff 1f       	adc	r31, r31
    241a:	ec 5f       	subi	r30, 0xFC	; 252
    241c:	f3 4f       	sbci	r31, 0xF3	; 243
    241e:	25 91       	lpm	r18, Z+
    2420:	34 91       	lpm	r19, Z
    2422:	3a a7       	std	Y+42, r19	; 0x2a
    2424:	29 a7       	std	Y+41, r18	; 0x29
    2426:	fc 01       	movw	r30, r24
    2428:	e2 5a       	subi	r30, 0xA2	; 162
    242a:	f4 4f       	sbci	r31, 0xF4	; 244
    242c:	e4 91       	lpm	r30, Z
    242e:	e9 ab       	std	Y+49, r30	; 0x31
    2430:	8d a1       	ldd	r24, Y+37	; 0x25
    2432:	08 2e       	mov	r0, r24
    2434:	00 0c       	add	r0, r0
    2436:	99 0b       	sbc	r25, r25
    2438:	fc 01       	movw	r30, r24
    243a:	ec 55       	subi	r30, 0x5C	; 92
    243c:	f4 4f       	sbci	r31, 0xF4	; 244
    243e:	e4 91       	lpm	r30, Z
    2440:	f0 e0       	ldi	r31, 0x00	; 0
    2442:	ee 0f       	add	r30, r30
    2444:	ff 1f       	adc	r31, r31
    2446:	ec 5f       	subi	r30, 0xFC	; 252
    2448:	f3 4f       	sbci	r31, 0xF3	; 243
    244a:	a5 91       	lpm	r26, Z+
    244c:	b4 91       	lpm	r27, Z
    244e:	bc a7       	std	Y+44, r27	; 0x2c
    2450:	ab a7       	std	Y+43, r26	; 0x2b
    2452:	fc 01       	movw	r30, r24
    2454:	e2 5a       	subi	r30, 0xA2	; 162
    2456:	f4 4f       	sbci	r31, 0xF4	; 244
    2458:	e4 91       	lpm	r30, Z
    245a:	ea ab       	std	Y+50, r30	; 0x32
    245c:	8c 91       	ld	r24, X
    245e:	e0 95       	com	r30
    2460:	e8 23       	and	r30, r24
    2462:	ec 93       	st	X, r30
    2464:	aa 20       	and	r10, r10
    2466:	f1 f0       	breq	.+60     	; 0x24a4 <_ZN16Adafruit_SSD13065beginEhhbb+0x24a>
    2468:	88 a5       	ldd	r24, Y+40	; 0x28
    246a:	87 fd       	sbrc	r24, 7
    246c:	1b c0       	rjmp	.+54     	; 0x24a4 <_ZN16Adafruit_SSD13065beginEhhbb+0x24a>
    246e:	61 e0       	ldi	r22, 0x01	; 1
    2470:	0e 94 ad 28 	call	0x515a	; 0x515a <pinMode>
    2474:	61 e0       	ldi	r22, 0x01	; 1
    2476:	88 a5       	ldd	r24, Y+40	; 0x28
    2478:	0e 94 e9 28 	call	0x51d2	; 0x51d2 <digitalWrite>
    247c:	61 e0       	ldi	r22, 0x01	; 1
    247e:	70 e0       	ldi	r23, 0x00	; 0
    2480:	80 e0       	ldi	r24, 0x00	; 0
    2482:	90 e0       	ldi	r25, 0x00	; 0
    2484:	0e 94 b2 27 	call	0x4f64	; 0x4f64 <delay>
    2488:	60 e0       	ldi	r22, 0x00	; 0
    248a:	88 a5       	ldd	r24, Y+40	; 0x28
    248c:	0e 94 e9 28 	call	0x51d2	; 0x51d2 <digitalWrite>
    2490:	6a e0       	ldi	r22, 0x0A	; 10
    2492:	70 e0       	ldi	r23, 0x00	; 0
    2494:	80 e0       	ldi	r24, 0x00	; 0
    2496:	90 e0       	ldi	r25, 0x00	; 0
    2498:	0e 94 b2 27 	call	0x4f64	; 0x4f64 <delay>
    249c:	61 e0       	ldi	r22, 0x01	; 1
    249e:	88 a5       	ldd	r24, Y+40	; 0x28
    24a0:	0e 94 e9 28 	call	0x51d2	; 0x51d2 <digitalWrite>
    24a4:	8d 8d       	ldd	r24, Y+29	; 0x1d
    24a6:	9e 8d       	ldd	r25, Y+30	; 0x1e
    24a8:	00 97       	sbiw	r24, 0x00	; 0
    24aa:	39 f0       	breq	.+14     	; 0x24ba <_ZN16Adafruit_SSD13065beginEhhbb+0x260>
    24ac:	4d a9       	ldd	r20, Y+53	; 0x35
    24ae:	5e a9       	ldd	r21, Y+54	; 0x36
    24b0:	6f a9       	ldd	r22, Y+55	; 0x37
    24b2:	78 ad       	ldd	r23, Y+56	; 0x38
    24b4:	0e 94 66 24 	call	0x48cc	; 0x48cc <_ZN7TwoWire8setClockEm>
    24b8:	0f c0       	rjmp	.+30     	; 0x24d8 <_ZN16Adafruit_SSD13065beginEhhbb+0x27e>
    24ba:	8b 8d       	ldd	r24, Y+27	; 0x1b
    24bc:	9c 8d       	ldd	r25, Y+28	; 0x1c
    24be:	89 2b       	or	r24, r25
    24c0:	21 f0       	breq	.+8      	; 0x24ca <_ZN16Adafruit_SSD13065beginEhhbb+0x270>
    24c2:	8e ad       	ldd	r24, Y+62	; 0x3e
    24c4:	9f ad       	ldd	r25, Y+63	; 0x3f
    24c6:	0e 94 0a 08 	call	0x1014	; 0x1014 <_ZN8SPIClass16beginTransactionE11SPISettings>
    24ca:	ef a5       	ldd	r30, Y+47	; 0x2f
    24cc:	f8 a9       	ldd	r31, Y+48	; 0x30
    24ce:	90 81       	ld	r25, Z
    24d0:	8c a9       	ldd	r24, Y+52	; 0x34
    24d2:	80 95       	com	r24
    24d4:	89 23       	and	r24, r25
    24d6:	80 83       	st	Z, r24
    24d8:	44 e0       	ldi	r20, 0x04	; 4
    24da:	64 e7       	ldi	r22, 0x74	; 116
    24dc:	76 e0       	ldi	r23, 0x06	; 6
    24de:	ce 01       	movw	r24, r28
    24e0:	f7 dd       	rcall	.-1042   	; 0x20d0 <_ZN16Adafruit_SSD130619ssd1306_commandListEPKhh>
    24e2:	6e 81       	ldd	r22, Y+6	; 0x06
    24e4:	61 50       	subi	r22, 0x01	; 1
    24e6:	ce 01       	movw	r24, r28
    24e8:	4d dd       	rcall	.-1382   	; 0x1f84 <_ZN16Adafruit_SSD130616ssd1306_command1Eh>
    24ea:	44 e0       	ldi	r20, 0x04	; 4
    24ec:	60 e7       	ldi	r22, 0x70	; 112
    24ee:	76 e0       	ldi	r23, 0x06	; 6
    24f0:	ce 01       	movw	r24, r28
    24f2:	ee dd       	rcall	.-1060   	; 0x20d0 <_ZN16Adafruit_SSD130619ssd1306_commandListEPKhh>
    24f4:	8a a1       	ldd	r24, Y+34	; 0x22
    24f6:	81 30       	cpi	r24, 0x01	; 1
    24f8:	11 f4       	brne	.+4      	; 0x24fe <_ZN16Adafruit_SSD13065beginEhhbb+0x2a4>
    24fa:	60 e1       	ldi	r22, 0x10	; 16
    24fc:	01 c0       	rjmp	.+2      	; 0x2500 <_ZN16Adafruit_SSD13065beginEhhbb+0x2a6>
    24fe:	64 e1       	ldi	r22, 0x14	; 20
    2500:	ce 01       	movw	r24, r28
    2502:	40 dd       	rcall	.-1408   	; 0x1f84 <_ZN16Adafruit_SSD130616ssd1306_command1Eh>
    2504:	44 e0       	ldi	r20, 0x04	; 4
    2506:	6c e6       	ldi	r22, 0x6C	; 108
    2508:	76 e0       	ldi	r23, 0x06	; 6
    250a:	ce 01       	movw	r24, r28
    250c:	e1 dd       	rcall	.-1086   	; 0x20d0 <_ZN16Adafruit_SSD130619ssd1306_commandListEPKhh>
    250e:	8f e8       	ldi	r24, 0x8F	; 143
    2510:	8d af       	std	Y+61, r24	; 0x3d
    2512:	8c 81       	ldd	r24, Y+4	; 0x04
    2514:	9d 81       	ldd	r25, Y+5	; 0x05
    2516:	80 38       	cpi	r24, 0x80	; 128
    2518:	91 05       	cpc	r25, r1
    251a:	71 f4       	brne	.+28     	; 0x2538 <_ZN16Adafruit_SSD13065beginEhhbb+0x2de>
    251c:	8e 81       	ldd	r24, Y+6	; 0x06
    251e:	9f 81       	ldd	r25, Y+7	; 0x07
    2520:	80 34       	cpi	r24, 0x40	; 64
    2522:	91 05       	cpc	r25, r1
    2524:	b9 f4       	brne	.+46     	; 0x2554 <_ZN16Adafruit_SSD13065beginEhhbb+0x2fa>
    2526:	8a a1       	ldd	r24, Y+34	; 0x22
    2528:	81 30       	cpi	r24, 0x01	; 1
    252a:	11 f4       	brne	.+4      	; 0x2530 <_ZN16Adafruit_SSD13065beginEhhbb+0x2d6>
    252c:	8f e9       	ldi	r24, 0x9F	; 159
    252e:	01 c0       	rjmp	.+2      	; 0x2532 <_ZN16Adafruit_SSD13065beginEhhbb+0x2d8>
    2530:	8f ec       	ldi	r24, 0xCF	; 207
    2532:	8d af       	std	Y+61, r24	; 0x3d
    2534:	12 e1       	ldi	r17, 0x12	; 18
    2536:	0f c0       	rjmp	.+30     	; 0x2556 <_ZN16Adafruit_SSD13065beginEhhbb+0x2fc>
    2538:	80 36       	cpi	r24, 0x60	; 96
    253a:	91 05       	cpc	r25, r1
    253c:	59 f4       	brne	.+22     	; 0x2554 <_ZN16Adafruit_SSD13065beginEhhbb+0x2fa>
    253e:	8e 81       	ldd	r24, Y+6	; 0x06
    2540:	9f 81       	ldd	r25, Y+7	; 0x07
    2542:	40 97       	sbiw	r24, 0x10	; 16
    2544:	39 f4       	brne	.+14     	; 0x2554 <_ZN16Adafruit_SSD13065beginEhhbb+0x2fa>
    2546:	8a a1       	ldd	r24, Y+34	; 0x22
    2548:	81 30       	cpi	r24, 0x01	; 1
    254a:	11 f4       	brne	.+4      	; 0x2550 <_ZN16Adafruit_SSD13065beginEhhbb+0x2f6>
    254c:	80 e1       	ldi	r24, 0x10	; 16
    254e:	01 c0       	rjmp	.+2      	; 0x2552 <_ZN16Adafruit_SSD13065beginEhhbb+0x2f8>
    2550:	8f ea       	ldi	r24, 0xAF	; 175
    2552:	8d af       	std	Y+61, r24	; 0x3d
    2554:	12 e0       	ldi	r17, 0x02	; 2
    2556:	6a ed       	ldi	r22, 0xDA	; 218
    2558:	ce 01       	movw	r24, r28
    255a:	14 dd       	rcall	.-1496   	; 0x1f84 <_ZN16Adafruit_SSD130616ssd1306_command1Eh>
    255c:	61 2f       	mov	r22, r17
    255e:	ce 01       	movw	r24, r28
    2560:	11 dd       	rcall	.-1502   	; 0x1f84 <_ZN16Adafruit_SSD130616ssd1306_command1Eh>
    2562:	61 e8       	ldi	r22, 0x81	; 129
    2564:	ce 01       	movw	r24, r28
    2566:	0e dd       	rcall	.-1508   	; 0x1f84 <_ZN16Adafruit_SSD130616ssd1306_command1Eh>
    2568:	6d ad       	ldd	r22, Y+61	; 0x3d
    256a:	ce 01       	movw	r24, r28
    256c:	0b dd       	rcall	.-1514   	; 0x1f84 <_ZN16Adafruit_SSD130616ssd1306_command1Eh>
    256e:	69 ed       	ldi	r22, 0xD9	; 217
    2570:	ce 01       	movw	r24, r28
    2572:	08 dd       	rcall	.-1520   	; 0x1f84 <_ZN16Adafruit_SSD130616ssd1306_command1Eh>
    2574:	8a a1       	ldd	r24, Y+34	; 0x22
    2576:	81 30       	cpi	r24, 0x01	; 1
    2578:	11 f4       	brne	.+4      	; 0x257e <_ZN16Adafruit_SSD13065beginEhhbb+0x324>
    257a:	62 e2       	ldi	r22, 0x22	; 34
    257c:	01 c0       	rjmp	.+2      	; 0x2580 <_ZN16Adafruit_SSD13065beginEhhbb+0x326>
    257e:	61 ef       	ldi	r22, 0xF1	; 241
    2580:	ce 01       	movw	r24, r28
    2582:	00 dd       	rcall	.-1536   	; 0x1f84 <_ZN16Adafruit_SSD130616ssd1306_command1Eh>
    2584:	46 e0       	ldi	r20, 0x06	; 6
    2586:	66 e6       	ldi	r22, 0x66	; 102
    2588:	76 e0       	ldi	r23, 0x06	; 6
    258a:	ce 01       	movw	r24, r28
    258c:	a1 dd       	rcall	.-1214   	; 0x20d0 <_ZN16Adafruit_SSD130619ssd1306_commandListEPKhh>
    258e:	8d 8d       	ldd	r24, Y+29	; 0x1d
    2590:	9e 8d       	ldd	r25, Y+30	; 0x1e
    2592:	00 97       	sbiw	r24, 0x00	; 0
    2594:	39 f0       	breq	.+14     	; 0x25a4 <_ZN16Adafruit_SSD13065beginEhhbb+0x34a>
    2596:	49 ad       	ldd	r20, Y+57	; 0x39
    2598:	5a ad       	ldd	r21, Y+58	; 0x3a
    259a:	6b ad       	ldd	r22, Y+59	; 0x3b
    259c:	7c ad       	ldd	r23, Y+60	; 0x3c
    259e:	0e 94 66 24 	call	0x48cc	; 0x48cc <_ZN7TwoWire8setClockEm>
    25a2:	0c c0       	rjmp	.+24     	; 0x25bc <_ZN16Adafruit_SSD13065beginEhhbb+0x362>
    25a4:	ef a5       	ldd	r30, Y+47	; 0x2f
    25a6:	f8 a9       	ldd	r31, Y+48	; 0x30
    25a8:	90 81       	ld	r25, Z
    25aa:	8c a9       	ldd	r24, Y+52	; 0x34
    25ac:	89 2b       	or	r24, r25
    25ae:	80 83       	st	Z, r24
    25b0:	8b 8d       	ldd	r24, Y+27	; 0x1b
    25b2:	9c 8d       	ldd	r25, Y+28	; 0x1c
    25b4:	89 2b       	or	r24, r25
    25b6:	11 f0       	breq	.+4      	; 0x25bc <_ZN16Adafruit_SSD13065beginEhhbb+0x362>
    25b8:	0e 94 24 08 	call	0x1048	; 0x1048 <_ZN8SPIClass14endTransactionEv>
    25bc:	81 e0       	ldi	r24, 0x01	; 1
    25be:	03 c0       	rjmp	.+6      	; 0x25c6 <_ZN16Adafruit_SSD13065beginEhhbb+0x36c>
    25c0:	a1 10       	cpse	r10, r1
    25c2:	52 cf       	rjmp	.-348    	; 0x2468 <_ZN16Adafruit_SSD13065beginEhhbb+0x20e>
    25c4:	73 cf       	rjmp	.-282    	; 0x24ac <_ZN16Adafruit_SSD13065beginEhhbb+0x252>
    25c6:	df 91       	pop	r29
    25c8:	cf 91       	pop	r28
    25ca:	1f 91       	pop	r17
    25cc:	0f 91       	pop	r16
    25ce:	ff 90       	pop	r15
    25d0:	ef 90       	pop	r14
    25d2:	df 90       	pop	r13
    25d4:	cf 90       	pop	r12
    25d6:	bf 90       	pop	r11
    25d8:	af 90       	pop	r10
    25da:	9f 90       	pop	r9
    25dc:	8f 90       	pop	r8
    25de:	08 95       	ret

000025e0 <_ZN16Adafruit_SSD130621drawFastHLineInternalEiiij>:
    25e0:	0f 93       	push	r16
    25e2:	1f 93       	push	r17
    25e4:	cf 93       	push	r28
    25e6:	df 93       	push	r29
    25e8:	dc 01       	movw	r26, r24
    25ea:	57 fd       	sbrc	r21, 7
    25ec:	64 c0       	rjmp	.+200    	; 0x26b6 <_ZN16Adafruit_SSD130621drawFastHLineInternalEiiij+0xd6>
    25ee:	16 96       	adiw	r26, 0x06	; 6
    25f0:	8d 91       	ld	r24, X+
    25f2:	9c 91       	ld	r25, X
    25f4:	17 97       	sbiw	r26, 0x07	; 7
    25f6:	48 17       	cp	r20, r24
    25f8:	59 07       	cpc	r21, r25
    25fa:	0c f0       	brlt	.+2      	; 0x25fe <_ZN16Adafruit_SSD130621drawFastHLineInternalEiiij+0x1e>
    25fc:	5c c0       	rjmp	.+184    	; 0x26b6 <_ZN16Adafruit_SSD130621drawFastHLineInternalEiiij+0xd6>
    25fe:	77 ff       	sbrs	r23, 7
    2600:	04 c0       	rjmp	.+8      	; 0x260a <_ZN16Adafruit_SSD130621drawFastHLineInternalEiiij+0x2a>
    2602:	26 0f       	add	r18, r22
    2604:	37 1f       	adc	r19, r23
    2606:	60 e0       	ldi	r22, 0x00	; 0
    2608:	70 e0       	ldi	r23, 0x00	; 0
    260a:	14 96       	adiw	r26, 0x04	; 4
    260c:	cd 91       	ld	r28, X+
    260e:	dc 91       	ld	r29, X
    2610:	15 97       	sbiw	r26, 0x05	; 5
    2612:	cb 01       	movw	r24, r22
    2614:	82 0f       	add	r24, r18
    2616:	93 1f       	adc	r25, r19
    2618:	c8 17       	cp	r28, r24
    261a:	d9 07       	cpc	r29, r25
    261c:	1c f4       	brge	.+6      	; 0x2624 <_ZN16Adafruit_SSD130621drawFastHLineInternalEiiij+0x44>
    261e:	9e 01       	movw	r18, r28
    2620:	26 1b       	sub	r18, r22
    2622:	37 0b       	sbc	r19, r23
    2624:	12 16       	cp	r1, r18
    2626:	13 06       	cpc	r1, r19
    2628:	0c f0       	brlt	.+2      	; 0x262c <_ZN16Adafruit_SSD130621drawFastHLineInternalEiiij+0x4c>
    262a:	45 c0       	rjmp	.+138    	; 0x26b6 <_ZN16Adafruit_SSD130621drawFastHLineInternalEiiij+0xd6>
    262c:	fa 01       	movw	r30, r20
    262e:	57 fd       	sbrc	r21, 7
    2630:	37 96       	adiw	r30, 0x07	; 7
    2632:	cf 01       	movw	r24, r30
    2634:	e3 e0       	ldi	r30, 0x03	; 3
    2636:	95 95       	asr	r25
    2638:	87 95       	ror	r24
    263a:	ea 95       	dec	r30
    263c:	e1 f7       	brne	.-8      	; 0x2636 <_ZN16Adafruit_SSD130621drawFastHLineInternalEiiij+0x56>
    263e:	8c 9f       	mul	r24, r28
    2640:	f0 01       	movw	r30, r0
    2642:	8d 9f       	mul	r24, r29
    2644:	f0 0d       	add	r31, r0
    2646:	9c 9f       	mul	r25, r28
    2648:	f0 0d       	add	r31, r0
    264a:	11 24       	eor	r1, r1
    264c:	6e 0f       	add	r22, r30
    264e:	7f 1f       	adc	r23, r31
    2650:	5f 96       	adiw	r26, 0x1f	; 31
    2652:	ed 91       	ld	r30, X+
    2654:	fc 91       	ld	r31, X
    2656:	90 97       	sbiw	r26, 0x20	; 32
    2658:	e6 0f       	add	r30, r22
    265a:	f7 1f       	adc	r31, r23
    265c:	47 70       	andi	r20, 0x07	; 7
    265e:	55 27       	eor	r21, r21
    2660:	81 e0       	ldi	r24, 0x01	; 1
    2662:	90 e0       	ldi	r25, 0x00	; 0
    2664:	01 c0       	rjmp	.+2      	; 0x2668 <_ZN16Adafruit_SSD130621drawFastHLineInternalEiiij+0x88>
    2666:	88 0f       	add	r24, r24
    2668:	4a 95       	dec	r20
    266a:	ea f7       	brpl	.-6      	; 0x2666 <_ZN16Adafruit_SSD130621drawFastHLineInternalEiiij+0x86>
    266c:	48 2f       	mov	r20, r24
    266e:	01 30       	cpi	r16, 0x01	; 1
    2670:	11 05       	cpc	r17, r1
    2672:	39 f0       	breq	.+14     	; 0x2682 <_ZN16Adafruit_SSD130621drawFastHLineInternalEiiij+0xa2>
    2674:	78 f0       	brcs	.+30     	; 0x2694 <_ZN16Adafruit_SSD130621drawFastHLineInternalEiiij+0xb4>
    2676:	02 30       	cpi	r16, 0x02	; 2
    2678:	11 05       	cpc	r17, r1
    267a:	e9 f4       	brne	.+58     	; 0x26b6 <_ZN16Adafruit_SSD130621drawFastHLineInternalEiiij+0xd6>
    267c:	2e 0f       	add	r18, r30
    267e:	3f 1f       	adc	r19, r31
    2680:	13 c0       	rjmp	.+38     	; 0x26a8 <_ZN16Adafruit_SSD130621drawFastHLineInternalEiiij+0xc8>
    2682:	2e 0f       	add	r18, r30
    2684:	3f 1f       	adc	r19, r31
    2686:	e2 17       	cp	r30, r18
    2688:	f3 07       	cpc	r31, r19
    268a:	a9 f0       	breq	.+42     	; 0x26b6 <_ZN16Adafruit_SSD130621drawFastHLineInternalEiiij+0xd6>
    268c:	80 81       	ld	r24, Z
    268e:	84 2b       	or	r24, r20
    2690:	81 93       	st	Z+, r24
    2692:	f9 cf       	rjmp	.-14     	; 0x2686 <_ZN16Adafruit_SSD130621drawFastHLineInternalEiiij+0xa6>
    2694:	80 95       	com	r24
    2696:	2e 0f       	add	r18, r30
    2698:	3f 1f       	adc	r19, r31
    269a:	e2 17       	cp	r30, r18
    269c:	f3 07       	cpc	r31, r19
    269e:	59 f0       	breq	.+22     	; 0x26b6 <_ZN16Adafruit_SSD130621drawFastHLineInternalEiiij+0xd6>
    26a0:	90 81       	ld	r25, Z
    26a2:	98 23       	and	r25, r24
    26a4:	91 93       	st	Z+, r25
    26a6:	f9 cf       	rjmp	.-14     	; 0x269a <_ZN16Adafruit_SSD130621drawFastHLineInternalEiiij+0xba>
    26a8:	e2 17       	cp	r30, r18
    26aa:	f3 07       	cpc	r31, r19
    26ac:	21 f0       	breq	.+8      	; 0x26b6 <_ZN16Adafruit_SSD130621drawFastHLineInternalEiiij+0xd6>
    26ae:	80 81       	ld	r24, Z
    26b0:	84 27       	eor	r24, r20
    26b2:	81 93       	st	Z+, r24
    26b4:	f9 cf       	rjmp	.-14     	; 0x26a8 <_ZN16Adafruit_SSD130621drawFastHLineInternalEiiij+0xc8>
    26b6:	df 91       	pop	r29
    26b8:	cf 91       	pop	r28
    26ba:	1f 91       	pop	r17
    26bc:	0f 91       	pop	r16
    26be:	08 95       	ret

000026c0 <_ZN16Adafruit_SSD130621drawFastVLineInternalEiiij>:
    26c0:	ef 92       	push	r14
    26c2:	ff 92       	push	r15
    26c4:	0f 93       	push	r16
    26c6:	1f 93       	push	r17
    26c8:	cf 93       	push	r28
    26ca:	df 93       	push	r29
    26cc:	ec 01       	movw	r28, r24
    26ce:	77 fd       	sbrc	r23, 7
    26d0:	a5 c0       	rjmp	.+330    	; 0x281c <_ZN16Adafruit_SSD130621drawFastVLineInternalEiiij+0x15c>
    26d2:	ec 80       	ldd	r14, Y+4	; 0x04
    26d4:	fd 80       	ldd	r15, Y+5	; 0x05
    26d6:	6e 15       	cp	r22, r14
    26d8:	7f 05       	cpc	r23, r15
    26da:	0c f0       	brlt	.+2      	; 0x26de <_ZN16Adafruit_SSD130621drawFastVLineInternalEiiij+0x1e>
    26dc:	9f c0       	rjmp	.+318    	; 0x281c <_ZN16Adafruit_SSD130621drawFastVLineInternalEiiij+0x15c>
    26de:	57 ff       	sbrs	r21, 7
    26e0:	04 c0       	rjmp	.+8      	; 0x26ea <_ZN16Adafruit_SSD130621drawFastVLineInternalEiiij+0x2a>
    26e2:	24 0f       	add	r18, r20
    26e4:	35 1f       	adc	r19, r21
    26e6:	40 e0       	ldi	r20, 0x00	; 0
    26e8:	50 e0       	ldi	r21, 0x00	; 0
    26ea:	8e 81       	ldd	r24, Y+6	; 0x06
    26ec:	9f 81       	ldd	r25, Y+7	; 0x07
    26ee:	fa 01       	movw	r30, r20
    26f0:	e2 0f       	add	r30, r18
    26f2:	f3 1f       	adc	r31, r19
    26f4:	8e 17       	cp	r24, r30
    26f6:	9f 07       	cpc	r25, r31
    26f8:	1c f4       	brge	.+6      	; 0x2700 <_ZN16Adafruit_SSD130621drawFastVLineInternalEiiij+0x40>
    26fa:	9c 01       	movw	r18, r24
    26fc:	24 1b       	sub	r18, r20
    26fe:	35 0b       	sbc	r19, r21
    2700:	12 16       	cp	r1, r18
    2702:	13 06       	cpc	r1, r19
    2704:	0c f0       	brlt	.+2      	; 0x2708 <_ZN16Adafruit_SSD130621drawFastVLineInternalEiiij+0x48>
    2706:	8a c0       	rjmp	.+276    	; 0x281c <_ZN16Adafruit_SSD130621drawFastVLineInternalEiiij+0x15c>
    2708:	92 2f       	mov	r25, r18
    270a:	84 2f       	mov	r24, r20
    270c:	86 95       	lsr	r24
    270e:	86 95       	lsr	r24
    2710:	86 95       	lsr	r24
    2712:	8e 9d       	mul	r24, r14
    2714:	d0 01       	movw	r26, r0
    2716:	8f 9d       	mul	r24, r15
    2718:	b0 0d       	add	r27, r0
    271a:	11 24       	eor	r1, r1
    271c:	6a 0f       	add	r22, r26
    271e:	7b 1f       	adc	r23, r27
    2720:	af 8d       	ldd	r26, Y+31	; 0x1f
    2722:	b8 a1       	ldd	r27, Y+32	; 0x20
    2724:	a6 0f       	add	r26, r22
    2726:	b7 1f       	adc	r27, r23
    2728:	47 70       	andi	r20, 0x07	; 7
    272a:	b1 f1       	breq	.+108    	; 0x2798 <_ZN16Adafruit_SSD130621drawFastVLineInternalEiiij+0xd8>
    272c:	88 e0       	ldi	r24, 0x08	; 8
    272e:	84 1b       	sub	r24, r20
    2730:	48 2f       	mov	r20, r24
    2732:	68 2f       	mov	r22, r24
    2734:	70 e0       	ldi	r23, 0x00	; 0
    2736:	fb 01       	movw	r30, r22
    2738:	e2 5a       	subi	r30, 0xA2	; 162
    273a:	f9 4f       	sbci	r31, 0xF9	; 249
    273c:	e4 91       	lpm	r30, Z
    273e:	28 17       	cp	r18, r24
    2740:	98 f4       	brcc	.+38     	; 0x2768 <_ZN16Adafruit_SSD130621drawFastVLineInternalEiiij+0xa8>
    2742:	62 1b       	sub	r22, r18
    2744:	71 09       	sbc	r23, r1
    2746:	2f ef       	ldi	r18, 0xFF	; 255
    2748:	30 e0       	ldi	r19, 0x00	; 0
    274a:	02 c0       	rjmp	.+4      	; 0x2750 <_ZN16Adafruit_SSD130621drawFastVLineInternalEiiij+0x90>
    274c:	35 95       	asr	r19
    274e:	27 95       	ror	r18
    2750:	6a 95       	dec	r22
    2752:	e2 f7       	brpl	.-8      	; 0x274c <_ZN16Adafruit_SSD130621drawFastVLineInternalEiiij+0x8c>
    2754:	e2 23       	and	r30, r18
    2756:	01 30       	cpi	r16, 0x01	; 1
    2758:	11 05       	cpc	r17, r1
    275a:	49 f0       	breq	.+18     	; 0x276e <_ZN16Adafruit_SSD130621drawFastVLineInternalEiiij+0xae>
    275c:	78 f0       	brcs	.+30     	; 0x277c <_ZN16Adafruit_SSD130621drawFastVLineInternalEiiij+0xbc>
    275e:	02 30       	cpi	r16, 0x02	; 2
    2760:	11 05       	cpc	r17, r1
    2762:	09 f0       	breq	.+2      	; 0x2766 <_ZN16Adafruit_SSD130621drawFastVLineInternalEiiij+0xa6>
    2764:	5b c0       	rjmp	.+182    	; 0x281c <_ZN16Adafruit_SSD130621drawFastVLineInternalEiiij+0x15c>
    2766:	0e c0       	rjmp	.+28     	; 0x2784 <_ZN16Adafruit_SSD130621drawFastVLineInternalEiiij+0xc4>
    2768:	01 30       	cpi	r16, 0x01	; 1
    276a:	11 05       	cpc	r17, r1
    276c:	19 f4       	brne	.+6      	; 0x2774 <_ZN16Adafruit_SSD130621drawFastVLineInternalEiiij+0xb4>
    276e:	8c 91       	ld	r24, X
    2770:	e8 2b       	or	r30, r24
    2772:	0a c0       	rjmp	.+20     	; 0x2788 <_ZN16Adafruit_SSD130621drawFastVLineInternalEiiij+0xc8>
    2774:	01 30       	cpi	r16, 0x01	; 1
    2776:	11 05       	cpc	r17, r1
    2778:	08 f0       	brcs	.+2      	; 0x277c <_ZN16Adafruit_SSD130621drawFastVLineInternalEiiij+0xbc>
    277a:	49 c0       	rjmp	.+146    	; 0x280e <_ZN16Adafruit_SSD130621drawFastVLineInternalEiiij+0x14e>
    277c:	e0 95       	com	r30
    277e:	8c 91       	ld	r24, X
    2780:	e8 23       	and	r30, r24
    2782:	02 c0       	rjmp	.+4      	; 0x2788 <_ZN16Adafruit_SSD130621drawFastVLineInternalEiiij+0xc8>
    2784:	8c 91       	ld	r24, X
    2786:	e8 27       	eor	r30, r24
    2788:	ec 93       	st	X, r30
    278a:	94 17       	cp	r25, r20
    278c:	08 f4       	brcc	.+2      	; 0x2790 <_ZN16Adafruit_SSD130621drawFastVLineInternalEiiij+0xd0>
    278e:	46 c0       	rjmp	.+140    	; 0x281c <_ZN16Adafruit_SSD130621drawFastVLineInternalEiiij+0x15c>
    2790:	2c 81       	ldd	r18, Y+4	; 0x04
    2792:	3d 81       	ldd	r19, Y+5	; 0x05
    2794:	a2 0f       	add	r26, r18
    2796:	b3 1f       	adc	r27, r19
    2798:	e9 2f       	mov	r30, r25
    279a:	e4 1b       	sub	r30, r20
    279c:	e8 30       	cpi	r30, 0x08	; 8
    279e:	f8 f0       	brcs	.+62     	; 0x27de <_ZN16Adafruit_SSD130621drawFastVLineInternalEiiij+0x11e>
    27a0:	02 30       	cpi	r16, 0x02	; 2
    27a2:	11 05       	cpc	r17, r1
    27a4:	61 f4       	brne	.+24     	; 0x27be <_ZN16Adafruit_SSD130621drawFastVLineInternalEiiij+0xfe>
    27a6:	8e 2f       	mov	r24, r30
    27a8:	9c 91       	ld	r25, X
    27aa:	90 95       	com	r25
    27ac:	9c 93       	st	X, r25
    27ae:	2c 81       	ldd	r18, Y+4	; 0x04
    27b0:	3d 81       	ldd	r19, Y+5	; 0x05
    27b2:	a2 0f       	add	r26, r18
    27b4:	b3 1f       	adc	r27, r19
    27b6:	88 50       	subi	r24, 0x08	; 8
    27b8:	88 30       	cpi	r24, 0x08	; 8
    27ba:	b0 f7       	brcc	.-20     	; 0x27a8 <_ZN16Adafruit_SSD130621drawFastVLineInternalEiiij+0xe8>
    27bc:	0f c0       	rjmp	.+30     	; 0x27dc <_ZN16Adafruit_SSD130621drawFastVLineInternalEiiij+0x11c>
    27be:	81 e0       	ldi	r24, 0x01	; 1
    27c0:	01 15       	cp	r16, r1
    27c2:	11 05       	cpc	r17, r1
    27c4:	09 f4       	brne	.+2      	; 0x27c8 <_ZN16Adafruit_SSD130621drawFastVLineInternalEiiij+0x108>
    27c6:	80 e0       	ldi	r24, 0x00	; 0
    27c8:	81 95       	neg	r24
    27ca:	9e 2f       	mov	r25, r30
    27cc:	8c 93       	st	X, r24
    27ce:	2c 81       	ldd	r18, Y+4	; 0x04
    27d0:	3d 81       	ldd	r19, Y+5	; 0x05
    27d2:	a2 0f       	add	r26, r18
    27d4:	b3 1f       	adc	r27, r19
    27d6:	98 50       	subi	r25, 0x08	; 8
    27d8:	98 30       	cpi	r25, 0x08	; 8
    27da:	c0 f7       	brcc	.-16     	; 0x27cc <_ZN16Adafruit_SSD130621drawFastVLineInternalEiiij+0x10c>
    27dc:	e7 70       	andi	r30, 0x07	; 7
    27de:	ee 23       	and	r30, r30
    27e0:	e9 f0       	breq	.+58     	; 0x281c <_ZN16Adafruit_SSD130621drawFastVLineInternalEiiij+0x15c>
    27e2:	f0 e0       	ldi	r31, 0x00	; 0
    27e4:	ea 5a       	subi	r30, 0xAA	; 170
    27e6:	f9 4f       	sbci	r31, 0xF9	; 249
    27e8:	e4 91       	lpm	r30, Z
    27ea:	01 30       	cpi	r16, 0x01	; 1
    27ec:	11 05       	cpc	r17, r1
    27ee:	39 f0       	breq	.+14     	; 0x27fe <_ZN16Adafruit_SSD130621drawFastVLineInternalEiiij+0x13e>
    27f0:	48 f0       	brcs	.+18     	; 0x2804 <_ZN16Adafruit_SSD130621drawFastVLineInternalEiiij+0x144>
    27f2:	02 30       	cpi	r16, 0x02	; 2
    27f4:	11 05       	cpc	r17, r1
    27f6:	91 f4       	brne	.+36     	; 0x281c <_ZN16Adafruit_SSD130621drawFastVLineInternalEiiij+0x15c>
    27f8:	8c 91       	ld	r24, X
    27fa:	e8 27       	eor	r30, r24
    27fc:	06 c0       	rjmp	.+12     	; 0x280a <_ZN16Adafruit_SSD130621drawFastVLineInternalEiiij+0x14a>
    27fe:	8c 91       	ld	r24, X
    2800:	e8 2b       	or	r30, r24
    2802:	03 c0       	rjmp	.+6      	; 0x280a <_ZN16Adafruit_SSD130621drawFastVLineInternalEiiij+0x14a>
    2804:	e0 95       	com	r30
    2806:	8c 91       	ld	r24, X
    2808:	e8 23       	and	r30, r24
    280a:	ec 93       	st	X, r30
    280c:	07 c0       	rjmp	.+14     	; 0x281c <_ZN16Adafruit_SSD130621drawFastVLineInternalEiiij+0x15c>
    280e:	02 30       	cpi	r16, 0x02	; 2
    2810:	11 05       	cpc	r17, r1
    2812:	09 f4       	brne	.+2      	; 0x2816 <_ZN16Adafruit_SSD130621drawFastVLineInternalEiiij+0x156>
    2814:	b7 cf       	rjmp	.-146    	; 0x2784 <_ZN16Adafruit_SSD130621drawFastVLineInternalEiiij+0xc4>
    2816:	ae 0d       	add	r26, r14
    2818:	bf 1d       	adc	r27, r15
    281a:	be cf       	rjmp	.-132    	; 0x2798 <_ZN16Adafruit_SSD130621drawFastVLineInternalEiiij+0xd8>
    281c:	df 91       	pop	r29
    281e:	cf 91       	pop	r28
    2820:	1f 91       	pop	r17
    2822:	0f 91       	pop	r16
    2824:	ff 90       	pop	r15
    2826:	ef 90       	pop	r14
    2828:	08 95       	ret

0000282a <_ZN16Adafruit_SSD130613drawFastHLineEiiij>:
    282a:	0f 93       	push	r16
    282c:	1f 93       	push	r17
    282e:	dc 01       	movw	r26, r24
    2830:	56 96       	adiw	r26, 0x16	; 22
    2832:	ec 91       	ld	r30, X
    2834:	56 97       	sbiw	r26, 0x16	; 22
    2836:	e2 30       	cpi	r30, 0x02	; 2
    2838:	61 f0       	breq	.+24     	; 0x2852 <_ZN16Adafruit_SSD130613drawFastHLineEiiij+0x28>
    283a:	e3 30       	cpi	r30, 0x03	; 3
    283c:	09 f1       	breq	.+66     	; 0x2880 <_ZN16Adafruit_SSD130613drawFastHLineEiiij+0x56>
    283e:	e1 30       	cpi	r30, 0x01	; 1
    2840:	79 f5       	brne	.+94     	; 0x28a0 <_ZN16Adafruit_SSD130613drawFastHLineEiiij+0x76>
    2842:	14 96       	adiw	r26, 0x04	; 4
    2844:	ed 91       	ld	r30, X+
    2846:	fc 91       	ld	r31, X
    2848:	15 97       	sbiw	r26, 0x05	; 5
    284a:	e4 1b       	sub	r30, r20
    284c:	f5 0b       	sbc	r31, r21
    284e:	31 97       	sbiw	r30, 0x01	; 1
    2850:	23 c0       	rjmp	.+70     	; 0x2898 <_ZN16Adafruit_SSD130613drawFastHLineEiiij+0x6e>
    2852:	dc 01       	movw	r26, r24
    2854:	14 96       	adiw	r26, 0x04	; 4
    2856:	ed 91       	ld	r30, X+
    2858:	fc 91       	ld	r31, X
    285a:	15 97       	sbiw	r26, 0x05	; 5
    285c:	df 01       	movw	r26, r30
    285e:	a6 1b       	sub	r26, r22
    2860:	b7 0b       	sbc	r27, r23
    2862:	bd 01       	movw	r22, r26
    2864:	dc 01       	movw	r26, r24
    2866:	16 96       	adiw	r26, 0x06	; 6
    2868:	ed 91       	ld	r30, X+
    286a:	fc 91       	ld	r31, X
    286c:	17 97       	sbiw	r26, 0x07	; 7
    286e:	df 01       	movw	r26, r30
    2870:	a4 1b       	sub	r26, r20
    2872:	b5 0b       	sbc	r27, r21
    2874:	ad 01       	movw	r20, r26
    2876:	41 50       	subi	r20, 0x01	; 1
    2878:	51 09       	sbc	r21, r1
    287a:	62 1b       	sub	r22, r18
    287c:	73 0b       	sbc	r23, r19
    287e:	10 c0       	rjmp	.+32     	; 0x28a0 <_ZN16Adafruit_SSD130613drawFastHLineEiiij+0x76>
    2880:	fa 01       	movw	r30, r20
    2882:	dc 01       	movw	r26, r24
    2884:	16 96       	adiw	r26, 0x06	; 6
    2886:	4d 91       	ld	r20, X+
    2888:	5c 91       	ld	r21, X
    288a:	17 97       	sbiw	r26, 0x07	; 7
    288c:	da 01       	movw	r26, r20
    288e:	a6 1b       	sub	r26, r22
    2890:	b7 0b       	sbc	r27, r23
    2892:	bd 01       	movw	r22, r26
    2894:	62 1b       	sub	r22, r18
    2896:	73 0b       	sbc	r23, r19
    2898:	ab 01       	movw	r20, r22
    289a:	bf 01       	movw	r22, r30
    289c:	11 df       	rcall	.-478    	; 0x26c0 <_ZN16Adafruit_SSD130621drawFastVLineInternalEiiij>
    289e:	01 c0       	rjmp	.+2      	; 0x28a2 <_ZN16Adafruit_SSD130613drawFastHLineEiiij+0x78>
    28a0:	9f de       	rcall	.-706    	; 0x25e0 <_ZN16Adafruit_SSD130621drawFastHLineInternalEiiij>
    28a2:	1f 91       	pop	r17
    28a4:	0f 91       	pop	r16
    28a6:	08 95       	ret

000028a8 <_ZN16Adafruit_SSD130613drawFastVLineEiiij>:
    28a8:	0f 93       	push	r16
    28aa:	1f 93       	push	r17
    28ac:	dc 01       	movw	r26, r24
    28ae:	56 96       	adiw	r26, 0x16	; 22
    28b0:	ec 91       	ld	r30, X
    28b2:	56 97       	sbiw	r26, 0x16	; 22
    28b4:	e2 30       	cpi	r30, 0x02	; 2
    28b6:	69 f0       	breq	.+26     	; 0x28d2 <_ZN16Adafruit_SSD130613drawFastVLineEiiij+0x2a>
    28b8:	e3 30       	cpi	r30, 0x03	; 3
    28ba:	11 f1       	breq	.+68     	; 0x2900 <_ZN16Adafruit_SSD130613drawFastVLineEiiij+0x58>
    28bc:	e1 30       	cpi	r30, 0x01	; 1
    28be:	81 f5       	brne	.+96     	; 0x2920 <_ZN16Adafruit_SSD130613drawFastVLineEiiij+0x78>
    28c0:	14 96       	adiw	r26, 0x04	; 4
    28c2:	ed 91       	ld	r30, X+
    28c4:	fc 91       	ld	r31, X
    28c6:	15 97       	sbiw	r26, 0x05	; 5
    28c8:	e4 1b       	sub	r30, r20
    28ca:	f5 0b       	sbc	r31, r21
    28cc:	e2 1b       	sub	r30, r18
    28ce:	f3 0b       	sbc	r31, r19
    28d0:	23 c0       	rjmp	.+70     	; 0x2918 <_ZN16Adafruit_SSD130613drawFastVLineEiiij+0x70>
    28d2:	dc 01       	movw	r26, r24
    28d4:	14 96       	adiw	r26, 0x04	; 4
    28d6:	ed 91       	ld	r30, X+
    28d8:	fc 91       	ld	r31, X
    28da:	15 97       	sbiw	r26, 0x05	; 5
    28dc:	df 01       	movw	r26, r30
    28de:	a6 1b       	sub	r26, r22
    28e0:	b7 0b       	sbc	r27, r23
    28e2:	bd 01       	movw	r22, r26
    28e4:	61 50       	subi	r22, 0x01	; 1
    28e6:	71 09       	sbc	r23, r1
    28e8:	dc 01       	movw	r26, r24
    28ea:	16 96       	adiw	r26, 0x06	; 6
    28ec:	ed 91       	ld	r30, X+
    28ee:	fc 91       	ld	r31, X
    28f0:	17 97       	sbiw	r26, 0x07	; 7
    28f2:	df 01       	movw	r26, r30
    28f4:	a4 1b       	sub	r26, r20
    28f6:	b5 0b       	sbc	r27, r21
    28f8:	ad 01       	movw	r20, r26
    28fa:	42 1b       	sub	r20, r18
    28fc:	53 0b       	sbc	r21, r19
    28fe:	10 c0       	rjmp	.+32     	; 0x2920 <_ZN16Adafruit_SSD130613drawFastVLineEiiij+0x78>
    2900:	fa 01       	movw	r30, r20
    2902:	dc 01       	movw	r26, r24
    2904:	16 96       	adiw	r26, 0x06	; 6
    2906:	4d 91       	ld	r20, X+
    2908:	5c 91       	ld	r21, X
    290a:	17 97       	sbiw	r26, 0x07	; 7
    290c:	da 01       	movw	r26, r20
    290e:	a6 1b       	sub	r26, r22
    2910:	b7 0b       	sbc	r27, r23
    2912:	bd 01       	movw	r22, r26
    2914:	61 50       	subi	r22, 0x01	; 1
    2916:	71 09       	sbc	r23, r1
    2918:	ab 01       	movw	r20, r22
    291a:	bf 01       	movw	r22, r30
    291c:	61 de       	rcall	.-830    	; 0x25e0 <_ZN16Adafruit_SSD130621drawFastHLineInternalEiiij>
    291e:	01 c0       	rjmp	.+2      	; 0x2922 <_ZN16Adafruit_SSD130613drawFastVLineEiiij+0x7a>
    2920:	cf de       	rcall	.-610    	; 0x26c0 <_ZN16Adafruit_SSD130621drawFastVLineInternalEiiij>
    2922:	1f 91       	pop	r17
    2924:	0f 91       	pop	r16
    2926:	08 95       	ret

00002928 <_ZN16Adafruit_SSD13067displayEv>:
    2928:	cf 92       	push	r12
    292a:	df 92       	push	r13
    292c:	ef 92       	push	r14
    292e:	ff 92       	push	r15
    2930:	0f 93       	push	r16
    2932:	1f 93       	push	r17
    2934:	cf 93       	push	r28
    2936:	df 93       	push	r29
    2938:	ec 01       	movw	r28, r24
    293a:	8d 8d       	ldd	r24, Y+29	; 0x1d
    293c:	9e 8d       	ldd	r25, Y+30	; 0x1e
    293e:	00 97       	sbiw	r24, 0x00	; 0
    2940:	39 f0       	breq	.+14     	; 0x2950 <_ZN16Adafruit_SSD13067displayEv+0x28>
    2942:	4d a9       	ldd	r20, Y+53	; 0x35
    2944:	5e a9       	ldd	r21, Y+54	; 0x36
    2946:	6f a9       	ldd	r22, Y+55	; 0x37
    2948:	78 ad       	ldd	r23, Y+56	; 0x38
    294a:	0e 94 66 24 	call	0x48cc	; 0x48cc <_ZN7TwoWire8setClockEm>
    294e:	0f c0       	rjmp	.+30     	; 0x296e <_ZN16Adafruit_SSD13067displayEv+0x46>
    2950:	8b 8d       	ldd	r24, Y+27	; 0x1b
    2952:	9c 8d       	ldd	r25, Y+28	; 0x1c
    2954:	89 2b       	or	r24, r25
    2956:	21 f0       	breq	.+8      	; 0x2960 <_ZN16Adafruit_SSD13067displayEv+0x38>
    2958:	8e ad       	ldd	r24, Y+62	; 0x3e
    295a:	9f ad       	ldd	r25, Y+63	; 0x3f
    295c:	0e 94 0a 08 	call	0x1014	; 0x1014 <_ZN8SPIClass16beginTransactionE11SPISettings>
    2960:	ef a5       	ldd	r30, Y+47	; 0x2f
    2962:	f8 a9       	ldd	r31, Y+48	; 0x30
    2964:	90 81       	ld	r25, Z
    2966:	8c a9       	ldd	r24, Y+52	; 0x34
    2968:	80 95       	com	r24
    296a:	89 23       	and	r24, r25
    296c:	80 83       	st	Z, r24
    296e:	45 e0       	ldi	r20, 0x05	; 5
    2970:	61 e5       	ldi	r22, 0x51	; 81
    2972:	76 e0       	ldi	r23, 0x06	; 6
    2974:	ce 01       	movw	r24, r28
    2976:	ac db       	rcall	.-2216   	; 0x20d0 <_ZN16Adafruit_SSD130619ssd1306_commandListEPKhh>
    2978:	6c 81       	ldd	r22, Y+4	; 0x04
    297a:	61 50       	subi	r22, 0x01	; 1
    297c:	ce 01       	movw	r24, r28
    297e:	02 db       	rcall	.-2556   	; 0x1f84 <_ZN16Adafruit_SSD130616ssd1306_command1Eh>
    2980:	2e 81       	ldd	r18, Y+6	; 0x06
    2982:	3f 81       	ldd	r19, Y+7	; 0x07
    2984:	c9 01       	movw	r24, r18
    2986:	07 96       	adiw	r24, 0x07	; 7
    2988:	97 fd       	sbrc	r25, 7
    298a:	07 96       	adiw	r24, 0x07	; 7
    298c:	23 e0       	ldi	r18, 0x03	; 3
    298e:	95 95       	asr	r25
    2990:	87 95       	ror	r24
    2992:	2a 95       	dec	r18
    2994:	e1 f7       	brne	.-8      	; 0x298e <_ZN16Adafruit_SSD13067displayEv+0x66>
    2996:	2c 81       	ldd	r18, Y+4	; 0x04
    2998:	3d 81       	ldd	r19, Y+5	; 0x05
    299a:	82 9f       	mul	r24, r18
    299c:	70 01       	movw	r14, r0
    299e:	83 9f       	mul	r24, r19
    29a0:	f0 0c       	add	r15, r0
    29a2:	92 9f       	mul	r25, r18
    29a4:	f0 0c       	add	r15, r0
    29a6:	11 24       	eor	r1, r1
    29a8:	0f 8d       	ldd	r16, Y+31	; 0x1f
    29aa:	18 a1       	ldd	r17, Y+32	; 0x20
    29ac:	8d 8d       	ldd	r24, Y+29	; 0x1d
    29ae:	9e 8d       	ldd	r25, Y+30	; 0x1e
    29b0:	e0 0e       	add	r14, r16
    29b2:	f1 1e       	adc	r15, r17
    29b4:	00 97       	sbiw	r24, 0x00	; 0
    29b6:	09 f4       	brne	.+2      	; 0x29ba <_ZN16Adafruit_SSD13067displayEv+0x92>
    29b8:	43 c0       	rjmp	.+134    	; 0x2a40 <_ZN16Adafruit_SSD13067displayEv+0x118>
    29ba:	69 a1       	ldd	r22, Y+33	; 0x21
    29bc:	06 2e       	mov	r0, r22
    29be:	00 0c       	add	r0, r0
    29c0:	77 0b       	sbc	r23, r23
    29c2:	0e 94 73 24 	call	0x48e6	; 0x48e6 <_ZN7TwoWire17beginTransmissionEi>
    29c6:	8d 8d       	ldd	r24, Y+29	; 0x1d
    29c8:	9e 8d       	ldd	r25, Y+30	; 0x1e
    29ca:	dc 01       	movw	r26, r24
    29cc:	ed 91       	ld	r30, X+
    29ce:	fc 91       	ld	r31, X
    29d0:	01 90       	ld	r0, Z+
    29d2:	f0 81       	ld	r31, Z
    29d4:	e0 2d       	mov	r30, r0
    29d6:	60 e4       	ldi	r22, 0x40	; 64
    29d8:	19 95       	eicall
    29da:	68 01       	movw	r12, r16
    29dc:	01 e0       	ldi	r16, 0x01	; 1
    29de:	10 e0       	ldi	r17, 0x00	; 0
    29e0:	8d 8d       	ldd	r24, Y+29	; 0x1d
    29e2:	9e 8d       	ldd	r25, Y+30	; 0x1e
    29e4:	ec 14       	cp	r14, r12
    29e6:	fd 04       	cpc	r15, r13
    29e8:	41 f1       	breq	.+80     	; 0x2a3a <_ZN16Adafruit_SSD13067displayEv+0x112>
    29ea:	00 32       	cpi	r16, 0x20	; 32
    29ec:	11 05       	cpc	r17, r1
    29ee:	b0 f0       	brcs	.+44     	; 0x2a1c <_ZN16Adafruit_SSD13067displayEv+0xf4>
    29f0:	0e 94 86 24 	call	0x490c	; 0x490c <_ZN7TwoWire15endTransmissionEv>
    29f4:	69 a1       	ldd	r22, Y+33	; 0x21
    29f6:	06 2e       	mov	r0, r22
    29f8:	00 0c       	add	r0, r0
    29fa:	77 0b       	sbc	r23, r23
    29fc:	8d 8d       	ldd	r24, Y+29	; 0x1d
    29fe:	9e 8d       	ldd	r25, Y+30	; 0x1e
    2a00:	0e 94 73 24 	call	0x48e6	; 0x48e6 <_ZN7TwoWire17beginTransmissionEi>
    2a04:	8d 8d       	ldd	r24, Y+29	; 0x1d
    2a06:	9e 8d       	ldd	r25, Y+30	; 0x1e
    2a08:	dc 01       	movw	r26, r24
    2a0a:	ed 91       	ld	r30, X+
    2a0c:	fc 91       	ld	r31, X
    2a0e:	01 90       	ld	r0, Z+
    2a10:	f0 81       	ld	r31, Z
    2a12:	e0 2d       	mov	r30, r0
    2a14:	60 e4       	ldi	r22, 0x40	; 64
    2a16:	19 95       	eicall
    2a18:	01 e0       	ldi	r16, 0x01	; 1
    2a1a:	10 e0       	ldi	r17, 0x00	; 0
    2a1c:	8d 8d       	ldd	r24, Y+29	; 0x1d
    2a1e:	9e 8d       	ldd	r25, Y+30	; 0x1e
    2a20:	f6 01       	movw	r30, r12
    2a22:	61 91       	ld	r22, Z+
    2a24:	6f 01       	movw	r12, r30
    2a26:	dc 01       	movw	r26, r24
    2a28:	ed 91       	ld	r30, X+
    2a2a:	fc 91       	ld	r31, X
    2a2c:	01 90       	ld	r0, Z+
    2a2e:	f0 81       	ld	r31, Z
    2a30:	e0 2d       	mov	r30, r0
    2a32:	19 95       	eicall
    2a34:	0f 5f       	subi	r16, 0xFF	; 255
    2a36:	1f 4f       	sbci	r17, 0xFF	; 255
    2a38:	d3 cf       	rjmp	.-90     	; 0x29e0 <_ZN16Adafruit_SSD13067displayEv+0xb8>
    2a3a:	0e 94 86 24 	call	0x490c	; 0x490c <_ZN7TwoWire15endTransmissionEv>
    2a3e:	34 c0       	rjmp	.+104    	; 0x2aa8 <_ZN16Adafruit_SSD13067displayEv+0x180>
    2a40:	ed a5       	ldd	r30, Y+45	; 0x2d
    2a42:	fe a5       	ldd	r31, Y+46	; 0x2e
    2a44:	90 81       	ld	r25, Z
    2a46:	8b a9       	ldd	r24, Y+51	; 0x33
    2a48:	89 2b       	or	r24, r25
    2a4a:	80 83       	st	Z, r24
    2a4c:	0e 15       	cp	r16, r14
    2a4e:	1f 05       	cpc	r17, r15
    2a50:	59 f1       	breq	.+86     	; 0x2aa8 <_ZN16Adafruit_SSD13067displayEv+0x180>
    2a52:	f8 01       	movw	r30, r16
    2a54:	81 91       	ld	r24, Z+
    2a56:	8f 01       	movw	r16, r30
    2a58:	2b 8d       	ldd	r18, Y+27	; 0x1b
    2a5a:	3c 8d       	ldd	r19, Y+28	; 0x1c
    2a5c:	23 2b       	or	r18, r19
    2a5e:	11 f0       	breq	.+4      	; 0x2a64 <_ZN16Adafruit_SSD13067displayEv+0x13c>
    2a60:	34 da       	rcall	.-2968   	; 0x1eca <_ZN8SPIClass8transferEh>
    2a62:	f4 cf       	rjmp	.-24     	; 0x2a4c <_ZN16Adafruit_SSD13067displayEv+0x124>
    2a64:	28 e0       	ldi	r18, 0x08	; 8
    2a66:	30 e0       	ldi	r19, 0x00	; 0
    2a68:	40 e8       	ldi	r20, 0x80	; 128
    2a6a:	e9 a5       	ldd	r30, Y+41	; 0x29
    2a6c:	fa a5       	ldd	r31, Y+42	; 0x2a
    2a6e:	99 a9       	ldd	r25, Y+49	; 0x31
    2a70:	58 2f       	mov	r21, r24
    2a72:	54 23       	and	r21, r20
    2a74:	19 f0       	breq	.+6      	; 0x2a7c <_ZN16Adafruit_SSD13067displayEv+0x154>
    2a76:	50 81       	ld	r21, Z
    2a78:	95 2b       	or	r25, r21
    2a7a:	03 c0       	rjmp	.+6      	; 0x2a82 <_ZN16Adafruit_SSD13067displayEv+0x15a>
    2a7c:	50 81       	ld	r21, Z
    2a7e:	90 95       	com	r25
    2a80:	95 23       	and	r25, r21
    2a82:	90 83       	st	Z, r25
    2a84:	eb a5       	ldd	r30, Y+43	; 0x2b
    2a86:	fc a5       	ldd	r31, Y+44	; 0x2c
    2a88:	50 81       	ld	r21, Z
    2a8a:	9a a9       	ldd	r25, Y+50	; 0x32
    2a8c:	95 2b       	or	r25, r21
    2a8e:	90 83       	st	Z, r25
    2a90:	eb a5       	ldd	r30, Y+43	; 0x2b
    2a92:	fc a5       	ldd	r31, Y+44	; 0x2c
    2a94:	50 81       	ld	r21, Z
    2a96:	9a a9       	ldd	r25, Y+50	; 0x32
    2a98:	90 95       	com	r25
    2a9a:	95 23       	and	r25, r21
    2a9c:	90 83       	st	Z, r25
    2a9e:	46 95       	lsr	r20
    2aa0:	21 50       	subi	r18, 0x01	; 1
    2aa2:	31 09       	sbc	r19, r1
    2aa4:	11 f7       	brne	.-60     	; 0x2a6a <_ZN16Adafruit_SSD13067displayEv+0x142>
    2aa6:	d2 cf       	rjmp	.-92     	; 0x2a4c <_ZN16Adafruit_SSD13067displayEv+0x124>
    2aa8:	8d 8d       	ldd	r24, Y+29	; 0x1d
    2aaa:	9e 8d       	ldd	r25, Y+30	; 0x1e
    2aac:	00 97       	sbiw	r24, 0x00	; 0
    2aae:	71 f0       	breq	.+28     	; 0x2acc <_ZN16Adafruit_SSD13067displayEv+0x1a4>
    2ab0:	49 ad       	ldd	r20, Y+57	; 0x39
    2ab2:	5a ad       	ldd	r21, Y+58	; 0x3a
    2ab4:	6b ad       	ldd	r22, Y+59	; 0x3b
    2ab6:	7c ad       	ldd	r23, Y+60	; 0x3c
    2ab8:	df 91       	pop	r29
    2aba:	cf 91       	pop	r28
    2abc:	1f 91       	pop	r17
    2abe:	0f 91       	pop	r16
    2ac0:	ff 90       	pop	r15
    2ac2:	ef 90       	pop	r14
    2ac4:	df 90       	pop	r13
    2ac6:	cf 90       	pop	r12
    2ac8:	0c 94 66 24 	jmp	0x48cc	; 0x48cc <_ZN7TwoWire8setClockEm>
    2acc:	ef a5       	ldd	r30, Y+47	; 0x2f
    2ace:	f8 a9       	ldd	r31, Y+48	; 0x30
    2ad0:	90 81       	ld	r25, Z
    2ad2:	8c a9       	ldd	r24, Y+52	; 0x34
    2ad4:	89 2b       	or	r24, r25
    2ad6:	80 83       	st	Z, r24
    2ad8:	8b 8d       	ldd	r24, Y+27	; 0x1b
    2ada:	9c 8d       	ldd	r25, Y+28	; 0x1c
    2adc:	89 2b       	or	r24, r25
    2ade:	51 f0       	breq	.+20     	; 0x2af4 <_ZN16Adafruit_SSD13067displayEv+0x1cc>
    2ae0:	df 91       	pop	r29
    2ae2:	cf 91       	pop	r28
    2ae4:	1f 91       	pop	r17
    2ae6:	0f 91       	pop	r16
    2ae8:	ff 90       	pop	r15
    2aea:	ef 90       	pop	r14
    2aec:	df 90       	pop	r13
    2aee:	cf 90       	pop	r12
    2af0:	0c 94 24 08 	jmp	0x1048	; 0x1048 <_ZN8SPIClass14endTransactionEv>
    2af4:	df 91       	pop	r29
    2af6:	cf 91       	pop	r28
    2af8:	1f 91       	pop	r17
    2afa:	0f 91       	pop	r16
    2afc:	ff 90       	pop	r15
    2afe:	ef 90       	pop	r14
    2b00:	df 90       	pop	r13
    2b02:	cf 90       	pop	r12
    2b04:	08 95       	ret

00002b06 <_ZN3KeyC1Ev>:
    2b06:	fc 01       	movw	r30, r24
    2b08:	10 82       	st	Z, r1
    2b0a:	13 82       	std	Z+3, r1	; 0x03
    2b0c:	14 82       	std	Z+4, r1	; 0x04
    2b0e:	08 95       	ret

00002b10 <_ZN6Keypad8pin_readEh>:
    2b10:	86 2f       	mov	r24, r22
    2b12:	0c 94 17 29 	jmp	0x522e	; 0x522e <digitalRead>

00002b16 <_ZN6Keypad9pin_writeEhb>:
    2b16:	86 2f       	mov	r24, r22
    2b18:	64 2f       	mov	r22, r20
    2b1a:	0c 94 e9 28 	jmp	0x51d2	; 0x51d2 <digitalWrite>

00002b1e <_ZN6Keypad8pin_modeEhh>:
    2b1e:	86 2f       	mov	r24, r22
    2b20:	64 2f       	mov	r22, r20
    2b22:	0c 94 ad 28 	jmp	0x515a	; 0x515a <pinMode>

00002b26 <_ZN6KeypadC1EPcPhS1_hh>:
    2b26:	4f 92       	push	r4
    2b28:	5f 92       	push	r5
    2b2a:	6f 92       	push	r6
    2b2c:	7f 92       	push	r7
    2b2e:	8f 92       	push	r8
    2b30:	9f 92       	push	r9
    2b32:	af 92       	push	r10
    2b34:	bf 92       	push	r11
    2b36:	cf 92       	push	r12
    2b38:	df 92       	push	r13
    2b3a:	ef 92       	push	r14
    2b3c:	0f 93       	push	r16
    2b3e:	cf 93       	push	r28
    2b40:	df 93       	push	r29
    2b42:	ec 01       	movw	r28, r24
    2b44:	6b 01       	movw	r12, r22
    2b46:	4a 01       	movw	r8, r20
    2b48:	59 01       	movw	r10, r18
    2b4a:	02 96       	adiw	r24, 0x02	; 2
    2b4c:	dc df       	rcall	.-72     	; 0x2b06 <_ZN3KeyC1Ev>
    2b4e:	87 ee       	ldi	r24, 0xE7	; 231
    2b50:	92 e0       	ldi	r25, 0x02	; 2
    2b52:	99 83       	std	Y+1, r25	; 0x01
    2b54:	88 83       	st	Y, r24
    2b56:	2e 01       	movw	r4, r28
    2b58:	8b e1       	ldi	r24, 0x1B	; 27
    2b5a:	48 0e       	add	r4, r24
    2b5c:	51 1c       	adc	r5, r1
    2b5e:	3e 01       	movw	r6, r28
    2b60:	8d e4       	ldi	r24, 0x4D	; 77
    2b62:	68 0e       	add	r6, r24
    2b64:	71 1c       	adc	r7, r1
    2b66:	c2 01       	movw	r24, r4
    2b68:	ce df       	rcall	.-100    	; 0x2b06 <_ZN3KeyC1Ev>
    2b6a:	85 e0       	ldi	r24, 0x05	; 5
    2b6c:	48 0e       	add	r4, r24
    2b6e:	51 1c       	adc	r5, r1
    2b70:	46 14       	cp	r4, r6
    2b72:	57 04       	cpc	r5, r7
    2b74:	c1 f7       	brne	.-16     	; 0x2b66 <_ZN6KeypadC1EPcPhS1_hh+0x40>
    2b76:	fe 01       	movw	r30, r28
    2b78:	e9 5a       	subi	r30, 0xA9	; 169
    2b7a:	ff 4f       	sbci	r31, 0xFF	; 255
    2b7c:	91 82       	std	Z+1, r9	; 0x01
    2b7e:	80 82       	st	Z, r8
    2b80:	32 96       	adiw	r30, 0x02	; 2
    2b82:	b1 82       	std	Z+1, r11	; 0x01
    2b84:	a0 82       	st	Z, r10
    2b86:	32 96       	adiw	r30, 0x02	; 2
    2b88:	00 83       	st	Z, r16
    2b8a:	31 96       	adiw	r30, 0x01	; 1
    2b8c:	e0 82       	st	Z, r14
    2b8e:	37 97       	sbiw	r30, 0x07	; 7
    2b90:	d1 82       	std	Z+1, r13	; 0x01
    2b92:	c0 82       	st	Z, r12
    2b94:	38 96       	adiw	r30, 0x08	; 8
    2b96:	8a e0       	ldi	r24, 0x0A	; 10
    2b98:	90 e0       	ldi	r25, 0x00	; 0
    2b9a:	91 83       	std	Z+1, r25	; 0x01
    2b9c:	80 83       	st	Z, r24
    2b9e:	32 96       	adiw	r30, 0x02	; 2
    2ba0:	84 ef       	ldi	r24, 0xF4	; 244
    2ba2:	91 e0       	ldi	r25, 0x01	; 1
    2ba4:	91 83       	std	Z+1, r25	; 0x01
    2ba6:	80 83       	st	Z, r24
    2ba8:	33 96       	adiw	r30, 0x03	; 3
    2baa:	11 82       	std	Z+1, r1	; 0x01
    2bac:	10 82       	st	Z, r1
    2bae:	71 97       	sbiw	r30, 0x11	; 17
    2bb0:	10 82       	st	Z, r1
    2bb2:	11 82       	std	Z+1, r1	; 0x01
    2bb4:	12 82       	std	Z+2, r1	; 0x02
    2bb6:	13 82       	std	Z+3, r1	; 0x03
    2bb8:	cf 59       	subi	r28, 0x9F	; 159
    2bba:	df 4f       	sbci	r29, 0xFF	; 255
    2bbc:	18 82       	st	Y, r1
    2bbe:	df 91       	pop	r29
    2bc0:	cf 91       	pop	r28
    2bc2:	0f 91       	pop	r16
    2bc4:	ef 90       	pop	r14
    2bc6:	df 90       	pop	r13
    2bc8:	cf 90       	pop	r12
    2bca:	bf 90       	pop	r11
    2bcc:	af 90       	pop	r10
    2bce:	9f 90       	pop	r9
    2bd0:	8f 90       	pop	r8
    2bd2:	7f 90       	pop	r7
    2bd4:	6f 90       	pop	r6
    2bd6:	5f 90       	pop	r5
    2bd8:	4f 90       	pop	r4
    2bda:	08 95       	ret

00002bdc <_ZN6Keypad8scanKeysEv>:
    2bdc:	2f 92       	push	r2
    2bde:	3f 92       	push	r3
    2be0:	4f 92       	push	r4
    2be2:	5f 92       	push	r5
    2be4:	6f 92       	push	r6
    2be6:	7f 92       	push	r7
    2be8:	8f 92       	push	r8
    2bea:	9f 92       	push	r9
    2bec:	af 92       	push	r10
    2bee:	bf 92       	push	r11
    2bf0:	cf 92       	push	r12
    2bf2:	df 92       	push	r13
    2bf4:	ef 92       	push	r14
    2bf6:	ff 92       	push	r15
    2bf8:	0f 93       	push	r16
    2bfa:	1f 93       	push	r17
    2bfc:	cf 93       	push	r28
    2bfe:	df 93       	push	r29
    2c00:	cd b7       	in	r28, 0x3d	; 61
    2c02:	de b7       	in	r29, 0x3e	; 62
    2c04:	28 97       	sbiw	r28, 0x08	; 8
    2c06:	0f b6       	in	r0, 0x3f	; 63
    2c08:	f8 94       	cli
    2c0a:	de bf       	out	0x3e, r29	; 62
    2c0c:	0f be       	out	0x3f, r0	; 63
    2c0e:	cd bf       	out	0x3d, r28	; 61
    2c10:	98 87       	std	Y+8, r25	; 0x08
    2c12:	8f 83       	std	Y+7, r24	; 0x07
    2c14:	10 e0       	ldi	r17, 0x00	; 0
    2c16:	5c 01       	movw	r10, r24
    2c18:	2b e5       	ldi	r18, 0x5B	; 91
    2c1a:	a2 0e       	add	r10, r18
    2c1c:	b1 1c       	adc	r11, r1
    2c1e:	7c 01       	movw	r14, r24
    2c20:	37 e5       	ldi	r19, 0x57	; 87
    2c22:	e3 0e       	add	r14, r19
    2c24:	f1 1c       	adc	r15, r1
    2c26:	d5 01       	movw	r26, r10
    2c28:	8c 91       	ld	r24, X
    2c2a:	18 17       	cp	r17, r24
    2c2c:	b8 f0       	brcs	.+46     	; 0x2c5c <_ZN6Keypad8scanKeysEv+0x80>
    2c2e:	31 2c       	mov	r3, r1
    2c30:	ef 81       	ldd	r30, Y+7	; 0x07
    2c32:	f8 85       	ldd	r31, Y+8	; 0x08
    2c34:	e4 5a       	subi	r30, 0xA4	; 164
    2c36:	ff 4f       	sbci	r31, 0xFF	; 255
    2c38:	fc 83       	std	Y+4, r31	; 0x04
    2c3a:	eb 83       	std	Y+3, r30	; 0x03
    2c3c:	cf 80       	ldd	r12, Y+7	; 0x07
    2c3e:	d8 84       	ldd	r13, Y+8	; 0x08
    2c40:	f9 e5       	ldi	r31, 0x59	; 89
    2c42:	cf 0e       	add	r12, r31
    2c44:	d1 1c       	adc	r13, r1
    2c46:	41 2c       	mov	r4, r1
    2c48:	51 2c       	mov	r5, r1
    2c4a:	32 01       	movw	r6, r4
    2c4c:	43 94       	inc	r4
    2c4e:	2f 81       	ldd	r18, Y+7	; 0x07
    2c50:	38 85       	ldd	r19, Y+8	; 0x08
    2c52:	29 5a       	subi	r18, 0xA9	; 169
    2c54:	3f 4f       	sbci	r19, 0xFF	; 255
    2c56:	3e 83       	std	Y+6, r19	; 0x06
    2c58:	2d 83       	std	Y+5, r18	; 0x05
    2c5a:	60 c0       	rjmp	.+192    	; 0x2d1c <_ZN6Keypad8scanKeysEv+0x140>
    2c5c:	f7 01       	movw	r30, r14
    2c5e:	a0 81       	ld	r26, Z
    2c60:	b1 81       	ldd	r27, Z+1	; 0x01
    2c62:	a1 0f       	add	r26, r17
    2c64:	b1 1d       	adc	r27, r1
    2c66:	ef 81       	ldd	r30, Y+7	; 0x07
    2c68:	f8 85       	ldd	r31, Y+8	; 0x08
    2c6a:	80 81       	ld	r24, Z
    2c6c:	91 81       	ldd	r25, Z+1	; 0x01
    2c6e:	fc 01       	movw	r30, r24
    2c70:	20 81       	ld	r18, Z
    2c72:	31 81       	ldd	r19, Z+1	; 0x01
    2c74:	42 e0       	ldi	r20, 0x02	; 2
    2c76:	6c 91       	ld	r22, X
    2c78:	8f 81       	ldd	r24, Y+7	; 0x07
    2c7a:	98 85       	ldd	r25, Y+8	; 0x08
    2c7c:	f9 01       	movw	r30, r18
    2c7e:	19 95       	eicall
    2c80:	1f 5f       	subi	r17, 0xFF	; 255
    2c82:	d1 cf       	rjmp	.-94     	; 0x2c26 <_ZN6Keypad8scanKeysEv+0x4a>
    2c84:	02 2d       	mov	r16, r2
    2c86:	10 e0       	ldi	r17, 0x00	; 0
    2c88:	ad 81       	ldd	r26, Y+5	; 0x05
    2c8a:	be 81       	ldd	r27, Y+6	; 0x06
    2c8c:	8d 91       	ld	r24, X+
    2c8e:	9c 91       	ld	r25, X
    2c90:	dc 01       	movw	r26, r24
    2c92:	a0 0f       	add	r26, r16
    2c94:	b1 1f       	adc	r27, r17
    2c96:	04 80       	ldd	r0, Z+4	; 0x04
    2c98:	f5 81       	ldd	r31, Z+5	; 0x05
    2c9a:	e0 2d       	mov	r30, r0
    2c9c:	6c 91       	ld	r22, X
    2c9e:	8f 81       	ldd	r24, Y+7	; 0x07
    2ca0:	98 85       	ldd	r25, Y+8	; 0x08
    2ca2:	19 95       	eicall
    2ca4:	00 0f       	add	r16, r16
    2ca6:	11 1f       	adc	r17, r17
    2ca8:	ef 81       	ldd	r30, Y+7	; 0x07
    2caa:	f8 85       	ldd	r31, Y+8	; 0x08
    2cac:	e0 0f       	add	r30, r16
    2cae:	f1 1f       	adc	r31, r17
    2cb0:	89 2b       	or	r24, r25
    2cb2:	09 f0       	breq	.+2      	; 0x2cb6 <_ZN6Keypad8scanKeysEv+0xda>
    2cb4:	6f c0       	rjmp	.+222    	; 0x2d94 <_ZN6Keypad8scanKeysEv+0x1b8>
    2cb6:	87 81       	ldd	r24, Z+7	; 0x07
    2cb8:	90 85       	ldd	r25, Z+8	; 0x08
    2cba:	29 81       	ldd	r18, Y+1	; 0x01
    2cbc:	3a 81       	ldd	r19, Y+2	; 0x02
    2cbe:	82 2b       	or	r24, r18
    2cc0:	93 2b       	or	r25, r19
    2cc2:	90 87       	std	Z+8, r25	; 0x08
    2cc4:	87 83       	std	Z+7, r24	; 0x07
    2cc6:	23 94       	inc	r2
    2cc8:	d5 01       	movw	r26, r10
    2cca:	8c 91       	ld	r24, X
    2ccc:	af 81       	ldd	r26, Y+7	; 0x07
    2cce:	b8 85       	ldd	r27, Y+8	; 0x08
    2cd0:	ed 91       	ld	r30, X+
    2cd2:	fc 91       	ld	r31, X
    2cd4:	28 16       	cp	r2, r24
    2cd6:	b0 f2       	brcs	.-84     	; 0x2c84 <_ZN6Keypad8scanKeysEv+0xa8>
    2cd8:	d6 01       	movw	r26, r12
    2cda:	8d 91       	ld	r24, X+
    2cdc:	9c 91       	ld	r25, X
    2cde:	dc 01       	movw	r26, r24
    2ce0:	ae 0d       	add	r26, r14
    2ce2:	bf 1d       	adc	r27, r15
    2ce4:	02 80       	ldd	r0, Z+2	; 0x02
    2ce6:	f3 81       	ldd	r31, Z+3	; 0x03
    2ce8:	e0 2d       	mov	r30, r0
    2cea:	41 e0       	ldi	r20, 0x01	; 1
    2cec:	6c 91       	ld	r22, X
    2cee:	8f 81       	ldd	r24, Y+7	; 0x07
    2cf0:	98 85       	ldd	r25, Y+8	; 0x08
    2cf2:	19 95       	eicall
    2cf4:	f6 01       	movw	r30, r12
    2cf6:	80 81       	ld	r24, Z
    2cf8:	91 81       	ldd	r25, Z+1	; 0x01
    2cfa:	dc 01       	movw	r26, r24
    2cfc:	ae 0d       	add	r26, r14
    2cfe:	bf 1d       	adc	r27, r15
    2d00:	ef 81       	ldd	r30, Y+7	; 0x07
    2d02:	f8 85       	ldd	r31, Y+8	; 0x08
    2d04:	80 81       	ld	r24, Z
    2d06:	91 81       	ldd	r25, Z+1	; 0x01
    2d08:	fc 01       	movw	r30, r24
    2d0a:	20 81       	ld	r18, Z
    2d0c:	31 81       	ldd	r19, Z+1	; 0x01
    2d0e:	40 e0       	ldi	r20, 0x00	; 0
    2d10:	6c 91       	ld	r22, X
    2d12:	8f 81       	ldd	r24, Y+7	; 0x07
    2d14:	98 85       	ldd	r25, Y+8	; 0x08
    2d16:	f9 01       	movw	r30, r18
    2d18:	19 95       	eicall
    2d1a:	33 94       	inc	r3
    2d1c:	ab 81       	ldd	r26, Y+3	; 0x03
    2d1e:	bc 81       	ldd	r27, Y+4	; 0x04
    2d20:	8c 91       	ld	r24, X
    2d22:	38 16       	cp	r3, r24
    2d24:	e0 f5       	brcc	.+120    	; 0x2d9e <_ZN6Keypad8scanKeysEv+0x1c2>
    2d26:	e3 2c       	mov	r14, r3
    2d28:	f1 2c       	mov	r15, r1
    2d2a:	f6 01       	movw	r30, r12
    2d2c:	a0 81       	ld	r26, Z
    2d2e:	b1 81       	ldd	r27, Z+1	; 0x01
    2d30:	ae 0d       	add	r26, r14
    2d32:	bf 1d       	adc	r27, r15
    2d34:	ef 81       	ldd	r30, Y+7	; 0x07
    2d36:	f8 85       	ldd	r31, Y+8	; 0x08
    2d38:	80 81       	ld	r24, Z
    2d3a:	91 81       	ldd	r25, Z+1	; 0x01
    2d3c:	fc 01       	movw	r30, r24
    2d3e:	20 81       	ld	r18, Z
    2d40:	31 81       	ldd	r19, Z+1	; 0x01
    2d42:	41 e0       	ldi	r20, 0x01	; 1
    2d44:	6c 91       	ld	r22, X
    2d46:	8f 81       	ldd	r24, Y+7	; 0x07
    2d48:	98 85       	ldd	r25, Y+8	; 0x08
    2d4a:	f9 01       	movw	r30, r18
    2d4c:	19 95       	eicall
    2d4e:	f6 01       	movw	r30, r12
    2d50:	a0 81       	ld	r26, Z
    2d52:	b1 81       	ldd	r27, Z+1	; 0x01
    2d54:	ae 0d       	add	r26, r14
    2d56:	bf 1d       	adc	r27, r15
    2d58:	ef 81       	ldd	r30, Y+7	; 0x07
    2d5a:	f8 85       	ldd	r31, Y+8	; 0x08
    2d5c:	80 81       	ld	r24, Z
    2d5e:	91 81       	ldd	r25, Z+1	; 0x01
    2d60:	fc 01       	movw	r30, r24
    2d62:	22 81       	ldd	r18, Z+2	; 0x02
    2d64:	33 81       	ldd	r19, Z+3	; 0x03
    2d66:	40 e0       	ldi	r20, 0x00	; 0
    2d68:	6c 91       	ld	r22, X
    2d6a:	8f 81       	ldd	r24, Y+7	; 0x07
    2d6c:	98 85       	ldd	r25, Y+8	; 0x08
    2d6e:	f9 01       	movw	r30, r18
    2d70:	19 95       	eicall
    2d72:	d3 01       	movw	r26, r6
    2d74:	c2 01       	movw	r24, r4
    2d76:	03 2c       	mov	r0, r3
    2d78:	04 c0       	rjmp	.+8      	; 0x2d82 <_ZN6Keypad8scanKeysEv+0x1a6>
    2d7a:	88 0f       	add	r24, r24
    2d7c:	99 1f       	adc	r25, r25
    2d7e:	aa 1f       	adc	r26, r26
    2d80:	bb 1f       	adc	r27, r27
    2d82:	0a 94       	dec	r0
    2d84:	d2 f7       	brpl	.-12     	; 0x2d7a <_ZN6Keypad8scanKeysEv+0x19e>
    2d86:	9a 83       	std	Y+2, r25	; 0x02
    2d88:	89 83       	std	Y+1, r24	; 0x01
    2d8a:	4c 01       	movw	r8, r24
    2d8c:	80 94       	com	r8
    2d8e:	90 94       	com	r9
    2d90:	21 2c       	mov	r2, r1
    2d92:	9a cf       	rjmp	.-204    	; 0x2cc8 <_ZN6Keypad8scanKeysEv+0xec>
    2d94:	87 81       	ldd	r24, Z+7	; 0x07
    2d96:	90 85       	ldd	r25, Z+8	; 0x08
    2d98:	88 21       	and	r24, r8
    2d9a:	99 21       	and	r25, r9
    2d9c:	92 cf       	rjmp	.-220    	; 0x2cc2 <_ZN6Keypad8scanKeysEv+0xe6>
    2d9e:	28 96       	adiw	r28, 0x08	; 8
    2da0:	0f b6       	in	r0, 0x3f	; 63
    2da2:	f8 94       	cli
    2da4:	de bf       	out	0x3e, r29	; 62
    2da6:	0f be       	out	0x3f, r0	; 63
    2da8:	cd bf       	out	0x3d, r28	; 61
    2daa:	df 91       	pop	r29
    2dac:	cf 91       	pop	r28
    2dae:	1f 91       	pop	r17
    2db0:	0f 91       	pop	r16
    2db2:	ff 90       	pop	r15
    2db4:	ef 90       	pop	r14
    2db6:	df 90       	pop	r13
    2db8:	cf 90       	pop	r12
    2dba:	bf 90       	pop	r11
    2dbc:	af 90       	pop	r10
    2dbe:	9f 90       	pop	r9
    2dc0:	8f 90       	pop	r8
    2dc2:	7f 90       	pop	r7
    2dc4:	6f 90       	pop	r6
    2dc6:	5f 90       	pop	r5
    2dc8:	4f 90       	pop	r4
    2dca:	3f 90       	pop	r3
    2dcc:	2f 90       	pop	r2
    2dce:	08 95       	ret

00002dd0 <_ZN6Keypad10findInListEi>:
    2dd0:	fc 01       	movw	r30, r24
    2dd2:	80 e0       	ldi	r24, 0x00	; 0
    2dd4:	90 e0       	ldi	r25, 0x00	; 0
    2dd6:	24 8d       	ldd	r18, Z+28	; 0x1c
    2dd8:	35 8d       	ldd	r19, Z+29	; 0x1d
    2dda:	26 17       	cp	r18, r22
    2ddc:	37 07       	cpc	r19, r23
    2dde:	39 f0       	breq	.+14     	; 0x2dee <_ZN6Keypad10findInListEi+0x1e>
    2de0:	01 96       	adiw	r24, 0x01	; 1
    2de2:	35 96       	adiw	r30, 0x05	; 5
    2de4:	8a 30       	cpi	r24, 0x0A	; 10
    2de6:	91 05       	cpc	r25, r1
    2de8:	b1 f7       	brne	.-20     	; 0x2dd6 <_ZN6Keypad10findInListEi+0x6>
    2dea:	8f ef       	ldi	r24, 0xFF	; 255
    2dec:	9f ef       	ldi	r25, 0xFF	; 255
    2dee:	08 95       	ret

00002df0 <_ZN6Keypad12transitionToEh8KeyState>:
    2df0:	dc 01       	movw	r26, r24
    2df2:	25 e0       	ldi	r18, 0x05	; 5
    2df4:	62 9f       	mul	r22, r18
    2df6:	a0 0d       	add	r26, r0
    2df8:	b1 1d       	adc	r27, r1
    2dfa:	11 24       	eor	r1, r1
    2dfc:	5e 96       	adiw	r26, 0x1e	; 30
    2dfe:	4c 93       	st	X, r20
    2e00:	5e 97       	sbiw	r26, 0x1e	; 30
    2e02:	21 e0       	ldi	r18, 0x01	; 1
    2e04:	5f 96       	adiw	r26, 0x1f	; 31
    2e06:	2c 93       	st	X, r18
    2e08:	5f 97       	sbiw	r26, 0x1f	; 31
    2e0a:	fc 01       	movw	r30, r24
    2e0c:	ef 59       	subi	r30, 0x9F	; 159
    2e0e:	ff 4f       	sbci	r31, 0xFF	; 255
    2e10:	20 81       	ld	r18, Z
    2e12:	31 96       	adiw	r30, 0x01	; 1
    2e14:	01 90       	ld	r0, Z+
    2e16:	f0 81       	ld	r31, Z
    2e18:	e0 2d       	mov	r30, r0
    2e1a:	22 23       	and	r18, r18
    2e1c:	31 f0       	breq	.+12     	; 0x2e2a <_ZN6Keypad12transitionToEh8KeyState+0x3a>
    2e1e:	30 97       	sbiw	r30, 0x00	; 0
    2e20:	49 f0       	breq	.+18     	; 0x2e34 <_ZN6Keypad12transitionToEh8KeyState+0x44>
    2e22:	61 11       	cpse	r22, r1
    2e24:	07 c0       	rjmp	.+14     	; 0x2e34 <_ZN6Keypad12transitionToEh8KeyState+0x44>
    2e26:	dc 01       	movw	r26, r24
    2e28:	02 c0       	rjmp	.+4      	; 0x2e2e <_ZN6Keypad12transitionToEh8KeyState+0x3e>
    2e2a:	30 97       	sbiw	r30, 0x00	; 0
    2e2c:	19 f0       	breq	.+6      	; 0x2e34 <_ZN6Keypad12transitionToEh8KeyState+0x44>
    2e2e:	5b 96       	adiw	r26, 0x1b	; 27
    2e30:	8c 91       	ld	r24, X
    2e32:	19 94       	eijmp
    2e34:	08 95       	ret

00002e36 <_ZN6Keypad12nextKeyStateEhb>:
    2e36:	cf 92       	push	r12
    2e38:	df 92       	push	r13
    2e3a:	ef 92       	push	r14
    2e3c:	ff 92       	push	r15
    2e3e:	0f 93       	push	r16
    2e40:	1f 93       	push	r17
    2e42:	cf 93       	push	r28
    2e44:	df 93       	push	r29
    2e46:	ec 01       	movw	r28, r24
    2e48:	16 2f       	mov	r17, r22
    2e4a:	04 2f       	mov	r16, r20
    2e4c:	fc 01       	movw	r30, r24
    2e4e:	85 e0       	ldi	r24, 0x05	; 5
    2e50:	68 9f       	mul	r22, r24
    2e52:	e0 0d       	add	r30, r0
    2e54:	f1 1d       	adc	r31, r1
    2e56:	11 24       	eor	r1, r1
    2e58:	17 8e       	std	Z+31, r1	; 0x1f
    2e5a:	86 8d       	ldd	r24, Z+30	; 0x1e
    2e5c:	81 30       	cpi	r24, 0x01	; 1
    2e5e:	a9 f0       	breq	.+42     	; 0x2e8a <_ZN6Keypad12nextKeyStateEhb+0x54>
    2e60:	30 f0       	brcs	.+12     	; 0x2e6e <_ZN6Keypad12nextKeyStateEhb+0x38>
    2e62:	82 30       	cpi	r24, 0x02	; 2
    2e64:	69 f1       	breq	.+90     	; 0x2ec0 <_ZN6Keypad12nextKeyStateEhb+0x8a>
    2e66:	83 30       	cpi	r24, 0x03	; 3
    2e68:	c9 f5       	brne	.+114    	; 0x2edc <_ZN6Keypad12nextKeyStateEhb+0xa6>
    2e6a:	40 e0       	ldi	r20, 0x00	; 0
    2e6c:	2c c0       	rjmp	.+88     	; 0x2ec6 <_ZN6Keypad12nextKeyStateEhb+0x90>
    2e6e:	44 23       	and	r20, r20
    2e70:	a9 f1       	breq	.+106    	; 0x2edc <_ZN6Keypad12nextKeyStateEhb+0xa6>
    2e72:	41 e0       	ldi	r20, 0x01	; 1
    2e74:	ce 01       	movw	r24, r28
    2e76:	bc df       	rcall	.-136    	; 0x2df0 <_ZN6Keypad12transitionToEh8KeyState>
    2e78:	0e 94 81 27 	call	0x4f02	; 0x4f02 <millis>
    2e7c:	c3 5b       	subi	r28, 0xB3	; 179
    2e7e:	df 4f       	sbci	r29, 0xFF	; 255
    2e80:	68 83       	st	Y, r22
    2e82:	79 83       	std	Y+1, r23	; 0x01
    2e84:	8a 83       	std	Y+2, r24	; 0x02
    2e86:	9b 83       	std	Y+3, r25	; 0x03
    2e88:	29 c0       	rjmp	.+82     	; 0x2edc <_ZN6Keypad12nextKeyStateEhb+0xa6>
    2e8a:	0e 94 81 27 	call	0x4f02	; 0x4f02 <millis>
    2e8e:	fe 01       	movw	r30, r28
    2e90:	e3 5b       	subi	r30, 0xB3	; 179
    2e92:	ff 4f       	sbci	r31, 0xFF	; 255
    2e94:	c0 80       	ld	r12, Z
    2e96:	d1 80       	ldd	r13, Z+1	; 0x01
    2e98:	e2 80       	ldd	r14, Z+2	; 0x02
    2e9a:	f3 80       	ldd	r15, Z+3	; 0x03
    2e9c:	ab 01       	movw	r20, r22
    2e9e:	bc 01       	movw	r22, r24
    2ea0:	4c 19       	sub	r20, r12
    2ea2:	5d 09       	sbc	r21, r13
    2ea4:	6e 09       	sbc	r22, r14
    2ea6:	7f 09       	sbc	r23, r15
    2ea8:	72 96       	adiw	r30, 0x12	; 18
    2eaa:	80 81       	ld	r24, Z
    2eac:	91 81       	ldd	r25, Z+1	; 0x01
    2eae:	a0 e0       	ldi	r26, 0x00	; 0
    2eb0:	b0 e0       	ldi	r27, 0x00	; 0
    2eb2:	84 17       	cp	r24, r20
    2eb4:	95 07       	cpc	r25, r21
    2eb6:	a6 07       	cpc	r26, r22
    2eb8:	b7 07       	cpc	r27, r23
    2eba:	10 f4       	brcc	.+4      	; 0x2ec0 <_ZN6Keypad12nextKeyStateEhb+0x8a>
    2ebc:	42 e0       	ldi	r20, 0x02	; 2
    2ebe:	03 c0       	rjmp	.+6      	; 0x2ec6 <_ZN6Keypad12nextKeyStateEhb+0x90>
    2ec0:	01 11       	cpse	r16, r1
    2ec2:	0c c0       	rjmp	.+24     	; 0x2edc <_ZN6Keypad12nextKeyStateEhb+0xa6>
    2ec4:	43 e0       	ldi	r20, 0x03	; 3
    2ec6:	61 2f       	mov	r22, r17
    2ec8:	ce 01       	movw	r24, r28
    2eca:	df 91       	pop	r29
    2ecc:	cf 91       	pop	r28
    2ece:	1f 91       	pop	r17
    2ed0:	0f 91       	pop	r16
    2ed2:	ff 90       	pop	r15
    2ed4:	ef 90       	pop	r14
    2ed6:	df 90       	pop	r13
    2ed8:	cf 90       	pop	r12
    2eda:	8a cf       	rjmp	.-236    	; 0x2df0 <_ZN6Keypad12transitionToEh8KeyState>
    2edc:	df 91       	pop	r29
    2ede:	cf 91       	pop	r28
    2ee0:	1f 91       	pop	r17
    2ee2:	0f 91       	pop	r16
    2ee4:	ff 90       	pop	r15
    2ee6:	ef 90       	pop	r14
    2ee8:	df 90       	pop	r13
    2eea:	cf 90       	pop	r12
    2eec:	08 95       	ret

00002eee <_ZN6Keypad10updateListEv>:
    2eee:	2f 92       	push	r2
    2ef0:	3f 92       	push	r3
    2ef2:	4f 92       	push	r4
    2ef4:	5f 92       	push	r5
    2ef6:	6f 92       	push	r6
    2ef8:	7f 92       	push	r7
    2efa:	8f 92       	push	r8
    2efc:	9f 92       	push	r9
    2efe:	af 92       	push	r10
    2f00:	bf 92       	push	r11
    2f02:	cf 92       	push	r12
    2f04:	df 92       	push	r13
    2f06:	ef 92       	push	r14
    2f08:	ff 92       	push	r15
    2f0a:	0f 93       	push	r16
    2f0c:	1f 93       	push	r17
    2f0e:	cf 93       	push	r28
    2f10:	df 93       	push	r29
    2f12:	00 d0       	rcall	.+0      	; 0x2f14 <_ZN6Keypad10updateListEv+0x26>
    2f14:	00 d0       	rcall	.+0      	; 0x2f16 <_ZN6Keypad10updateListEv+0x28>
    2f16:	cd b7       	in	r28, 0x3d	; 61
    2f18:	de b7       	in	r29, 0x3e	; 62
    2f1a:	9e 83       	std	Y+6, r25	; 0x06
    2f1c:	8d 83       	std	Y+5, r24	; 0x05
    2f1e:	7c 01       	movw	r14, r24
    2f20:	5c 01       	movw	r10, r24
    2f22:	22 e3       	ldi	r18, 0x32	; 50
    2f24:	a2 0e       	add	r10, r18
    2f26:	b1 1c       	adc	r11, r1
    2f28:	fc 01       	movw	r30, r24
    2f2a:	8f ef       	ldi	r24, 0xFF	; 255
    2f2c:	9f ef       	ldi	r25, 0xFF	; 255
    2f2e:	26 8d       	ldd	r18, Z+30	; 0x1e
    2f30:	21 11       	cpse	r18, r1
    2f32:	04 c0       	rjmp	.+8      	; 0x2f3c <_ZN6Keypad10updateListEv+0x4e>
    2f34:	13 8e       	std	Z+27, r1	; 0x1b
    2f36:	95 8f       	std	Z+29, r25	; 0x1d
    2f38:	84 8f       	std	Z+28, r24	; 0x1c
    2f3a:	17 8e       	std	Z+31, r1	; 0x1f
    2f3c:	35 96       	adiw	r30, 0x05	; 5
    2f3e:	ae 16       	cp	r10, r30
    2f40:	bf 06       	cpc	r11, r31
    2f42:	a9 f7       	brne	.-22     	; 0x2f2e <_ZN6Keypad10updateListEv+0x40>
    2f44:	51 2c       	mov	r5, r1
    2f46:	8d 81       	ldd	r24, Y+5	; 0x05
    2f48:	9e 81       	ldd	r25, Y+6	; 0x06
    2f4a:	85 5a       	subi	r24, 0xA5	; 165
    2f4c:	9f 4f       	sbci	r25, 0xFF	; 255
    2f4e:	9a 83       	std	Y+2, r25	; 0x02
    2f50:	89 83       	std	Y+1, r24	; 0x01
    2f52:	ad 81       	ldd	r26, Y+5	; 0x05
    2f54:	be 81       	ldd	r27, Y+6	; 0x06
    2f56:	a4 5a       	subi	r26, 0xA4	; 164
    2f58:	bf 4f       	sbci	r27, 0xFF	; 255
    2f5a:	bc 83       	std	Y+4, r27	; 0x04
    2f5c:	ab 83       	std	Y+3, r26	; 0x03
    2f5e:	6d 80       	ldd	r6, Y+5	; 0x05
    2f60:	7e 80       	ldd	r7, Y+6	; 0x06
    2f62:	b5 e5       	ldi	r27, 0x55	; 85
    2f64:	6b 0e       	add	r6, r27
    2f66:	71 1c       	adc	r7, r1
    2f68:	85 e0       	ldi	r24, 0x05	; 5
    2f6a:	28 2e       	mov	r2, r24
    2f6c:	e9 81       	ldd	r30, Y+1	; 0x01
    2f6e:	fa 81       	ldd	r31, Y+2	; 0x02
    2f70:	80 81       	ld	r24, Z
    2f72:	58 16       	cp	r5, r24
    2f74:	08 f0       	brcs	.+2      	; 0x2f78 <_ZN6Keypad10updateListEv+0x8a>
    2f76:	57 c0       	rjmp	.+174    	; 0x3026 <_ZN6Keypad10updateListEv+0x138>
    2f78:	41 2c       	mov	r4, r1
    2f7a:	0d 81       	ldd	r16, Y+5	; 0x05
    2f7c:	1e 81       	ldd	r17, Y+6	; 0x06
    2f7e:	05 0d       	add	r16, r5
    2f80:	11 1d       	adc	r17, r1
    2f82:	05 0d       	add	r16, r5
    2f84:	11 1d       	adc	r17, r1
    2f86:	09 5f       	subi	r16, 0xF9	; 249
    2f88:	1f 4f       	sbci	r17, 0xFF	; 255
    2f8a:	ab 81       	ldd	r26, Y+3	; 0x03
    2f8c:	bc 81       	ldd	r27, Y+4	; 0x04
    2f8e:	8c 90       	ld	r8, X
    2f90:	48 14       	cp	r4, r8
    2f92:	08 f0       	brcs	.+2      	; 0x2f96 <_ZN6Keypad10updateListEv+0xa8>
    2f94:	46 c0       	rjmp	.+140    	; 0x3022 <_ZN6Keypad10updateListEv+0x134>
    2f96:	f8 01       	movw	r30, r16
    2f98:	c0 80       	ld	r12, Z
    2f9a:	d1 80       	ldd	r13, Z+1	; 0x01
    2f9c:	04 2c       	mov	r0, r4
    2f9e:	02 c0       	rjmp	.+4      	; 0x2fa4 <_ZN6Keypad10updateListEv+0xb6>
    2fa0:	d6 94       	lsr	r13
    2fa2:	c7 94       	ror	r12
    2fa4:	0a 94       	dec	r0
    2fa6:	e2 f7       	brpl	.-8      	; 0x2fa0 <_ZN6Keypad10updateListEv+0xb2>
    2fa8:	fc 2d       	mov	r31, r12
    2faa:	f1 70       	andi	r31, 0x01	; 1
    2fac:	3f 2e       	mov	r3, r31
    2fae:	58 9c       	mul	r5, r8
    2fb0:	40 01       	movw	r8, r0
    2fb2:	11 24       	eor	r1, r1
    2fb4:	84 0c       	add	r8, r4
    2fb6:	91 1c       	adc	r9, r1
    2fb8:	b4 01       	movw	r22, r8
    2fba:	8d 81       	ldd	r24, Y+5	; 0x05
    2fbc:	9e 81       	ldd	r25, Y+6	; 0x06
    2fbe:	08 df       	rcall	.-496    	; 0x2dd0 <_ZN6Keypad10findInListEi>
    2fc0:	97 fd       	sbrc	r25, 7
    2fc2:	05 c0       	rjmp	.+10     	; 0x2fce <_ZN6Keypad10updateListEv+0xe0>
    2fc4:	43 2d       	mov	r20, r3
    2fc6:	68 2f       	mov	r22, r24
    2fc8:	8d 81       	ldd	r24, Y+5	; 0x05
    2fca:	9e 81       	ldd	r25, Y+6	; 0x06
    2fcc:	20 c0       	rjmp	.+64     	; 0x300e <_ZN6Keypad10updateListEv+0x120>
    2fce:	01 96       	adiw	r24, 0x01	; 1
    2fd0:	31 f5       	brne	.+76     	; 0x301e <_ZN6Keypad10updateListEv+0x130>
    2fd2:	c0 fe       	sbrs	r12, 0
    2fd4:	24 c0       	rjmp	.+72     	; 0x301e <_ZN6Keypad10updateListEv+0x130>
    2fd6:	ed 81       	ldd	r30, Y+5	; 0x05
    2fd8:	fe 81       	ldd	r31, Y+6	; 0x06
    2fda:	60 e0       	ldi	r22, 0x00	; 0
    2fdc:	70 e0       	ldi	r23, 0x00	; 0
    2fde:	83 8d       	ldd	r24, Z+27	; 0x1b
    2fe0:	81 11       	cpse	r24, r1
    2fe2:	17 c0       	rjmp	.+46     	; 0x3012 <_ZN6Keypad10updateListEv+0x124>
    2fe4:	d3 01       	movw	r26, r6
    2fe6:	ed 91       	ld	r30, X+
    2fe8:	fc 91       	ld	r31, X
    2fea:	e8 0d       	add	r30, r8
    2fec:	f9 1d       	adc	r31, r9
    2fee:	80 81       	ld	r24, Z
    2ff0:	26 9e       	mul	r2, r22
    2ff2:	f0 01       	movw	r30, r0
    2ff4:	27 9e       	mul	r2, r23
    2ff6:	f0 0d       	add	r31, r0
    2ff8:	11 24       	eor	r1, r1
    2ffa:	2d 81       	ldd	r18, Y+5	; 0x05
    2ffc:	3e 81       	ldd	r19, Y+6	; 0x06
    2ffe:	e2 0f       	add	r30, r18
    3000:	f3 1f       	adc	r31, r19
    3002:	83 8f       	std	Z+27, r24	; 0x1b
    3004:	95 8e       	std	Z+29, r9	; 0x1d
    3006:	84 8e       	std	Z+28, r8	; 0x1c
    3008:	16 8e       	std	Z+30, r1	; 0x1e
    300a:	43 2d       	mov	r20, r3
    300c:	c9 01       	movw	r24, r18
    300e:	13 df       	rcall	.-474    	; 0x2e36 <_ZN6Keypad12nextKeyStateEhb>
    3010:	06 c0       	rjmp	.+12     	; 0x301e <_ZN6Keypad10updateListEv+0x130>
    3012:	6f 5f       	subi	r22, 0xFF	; 255
    3014:	7f 4f       	sbci	r23, 0xFF	; 255
    3016:	35 96       	adiw	r30, 0x05	; 5
    3018:	6a 30       	cpi	r22, 0x0A	; 10
    301a:	71 05       	cpc	r23, r1
    301c:	01 f7       	brne	.-64     	; 0x2fde <_ZN6Keypad10updateListEv+0xf0>
    301e:	43 94       	inc	r4
    3020:	b4 cf       	rjmp	.-152    	; 0x2f8a <_ZN6Keypad10updateListEv+0x9c>
    3022:	53 94       	inc	r5
    3024:	a3 cf       	rjmp	.-186    	; 0x2f6c <_ZN6Keypad10updateListEv+0x7e>
    3026:	80 e0       	ldi	r24, 0x00	; 0
    3028:	d7 01       	movw	r26, r14
    302a:	5f 96       	adiw	r26, 0x1f	; 31
    302c:	9c 91       	ld	r25, X
    302e:	91 11       	cpse	r25, r1
    3030:	81 e0       	ldi	r24, 0x01	; 1
    3032:	b5 e0       	ldi	r27, 0x05	; 5
    3034:	eb 0e       	add	r14, r27
    3036:	f1 1c       	adc	r15, r1
    3038:	ae 14       	cp	r10, r14
    303a:	bf 04       	cpc	r11, r15
    303c:	a9 f7       	brne	.-22     	; 0x3028 <_ZN6Keypad10updateListEv+0x13a>
    303e:	26 96       	adiw	r28, 0x06	; 6
    3040:	0f b6       	in	r0, 0x3f	; 63
    3042:	f8 94       	cli
    3044:	de bf       	out	0x3e, r29	; 62
    3046:	0f be       	out	0x3f, r0	; 63
    3048:	cd bf       	out	0x3d, r28	; 61
    304a:	df 91       	pop	r29
    304c:	cf 91       	pop	r28
    304e:	1f 91       	pop	r17
    3050:	0f 91       	pop	r16
    3052:	ff 90       	pop	r15
    3054:	ef 90       	pop	r14
    3056:	df 90       	pop	r13
    3058:	cf 90       	pop	r12
    305a:	bf 90       	pop	r11
    305c:	af 90       	pop	r10
    305e:	9f 90       	pop	r9
    3060:	8f 90       	pop	r8
    3062:	7f 90       	pop	r7
    3064:	6f 90       	pop	r6
    3066:	5f 90       	pop	r5
    3068:	4f 90       	pop	r4
    306a:	3f 90       	pop	r3
    306c:	2f 90       	pop	r2
    306e:	08 95       	ret

00003070 <_ZN6Keypad7getKeysEv>:
    3070:	cf 92       	push	r12
    3072:	df 92       	push	r13
    3074:	ef 92       	push	r14
    3076:	ff 92       	push	r15
    3078:	0f 93       	push	r16
    307a:	1f 93       	push	r17
    307c:	cf 93       	push	r28
    307e:	df 93       	push	r29
    3080:	ec 01       	movw	r28, r24
    3082:	0e 94 81 27 	call	0x4f02	; 0x4f02 <millis>
    3086:	8e 01       	movw	r16, r28
    3088:	0f 5a       	subi	r16, 0xAF	; 175
    308a:	1f 4f       	sbci	r17, 0xFF	; 255
    308c:	f8 01       	movw	r30, r16
    308e:	c0 80       	ld	r12, Z
    3090:	d1 80       	ldd	r13, Z+1	; 0x01
    3092:	e2 80       	ldd	r14, Z+2	; 0x02
    3094:	f3 80       	ldd	r15, Z+3	; 0x03
    3096:	ab 01       	movw	r20, r22
    3098:	bc 01       	movw	r22, r24
    309a:	4c 19       	sub	r20, r12
    309c:	5d 09       	sbc	r21, r13
    309e:	6e 09       	sbc	r22, r14
    30a0:	7f 09       	sbc	r23, r15
    30a2:	3c 96       	adiw	r30, 0x0c	; 12
    30a4:	80 81       	ld	r24, Z
    30a6:	91 81       	ldd	r25, Z+1	; 0x01
    30a8:	a0 e0       	ldi	r26, 0x00	; 0
    30aa:	b0 e0       	ldi	r27, 0x00	; 0
    30ac:	84 17       	cp	r24, r20
    30ae:	95 07       	cpc	r25, r21
    30b0:	a6 07       	cpc	r26, r22
    30b2:	b7 07       	cpc	r27, r23
    30b4:	68 f4       	brcc	.+26     	; 0x30d0 <_ZN6Keypad7getKeysEv+0x60>
    30b6:	ce 01       	movw	r24, r28
    30b8:	91 dd       	rcall	.-1246   	; 0x2bdc <_ZN6Keypad8scanKeysEv>
    30ba:	ce 01       	movw	r24, r28
    30bc:	18 df       	rcall	.-464    	; 0x2eee <_ZN6Keypad10updateListEv>
    30be:	c8 2f       	mov	r28, r24
    30c0:	0e 94 81 27 	call	0x4f02	; 0x4f02 <millis>
    30c4:	f8 01       	movw	r30, r16
    30c6:	60 83       	st	Z, r22
    30c8:	71 83       	std	Z+1, r23	; 0x01
    30ca:	82 83       	std	Z+2, r24	; 0x02
    30cc:	93 83       	std	Z+3, r25	; 0x03
    30ce:	01 c0       	rjmp	.+2      	; 0x30d2 <_ZN6Keypad7getKeysEv+0x62>
    30d0:	c0 e0       	ldi	r28, 0x00	; 0
    30d2:	8c 2f       	mov	r24, r28
    30d4:	df 91       	pop	r29
    30d6:	cf 91       	pop	r28
    30d8:	1f 91       	pop	r17
    30da:	0f 91       	pop	r16
    30dc:	ff 90       	pop	r15
    30de:	ef 90       	pop	r14
    30e0:	df 90       	pop	r13
    30e2:	cf 90       	pop	r12
    30e4:	08 95       	ret

000030e6 <_ZN6Keypad6getKeyEv>:
    30e6:	0f 93       	push	r16
    30e8:	1f 93       	push	r17
    30ea:	cf 93       	push	r28
    30ec:	df 93       	push	r29
    30ee:	ec 01       	movw	r28, r24
    30f0:	8c 01       	movw	r16, r24
    30f2:	0f 59       	subi	r16, 0x9F	; 159
    30f4:	1f 4f       	sbci	r17, 0xFF	; 255
    30f6:	81 e0       	ldi	r24, 0x01	; 1
    30f8:	f8 01       	movw	r30, r16
    30fa:	80 83       	st	Z, r24
    30fc:	ce 01       	movw	r24, r28
    30fe:	b8 df       	rcall	.-144    	; 0x3070 <_ZN6Keypad7getKeysEv>
    3100:	88 23       	and	r24, r24
    3102:	41 f0       	breq	.+16     	; 0x3114 <_ZN6Keypad6getKeyEv+0x2e>
    3104:	8f 8d       	ldd	r24, Y+31	; 0x1f
    3106:	88 23       	and	r24, r24
    3108:	29 f0       	breq	.+10     	; 0x3114 <_ZN6Keypad6getKeyEv+0x2e>
    310a:	8e 8d       	ldd	r24, Y+30	; 0x1e
    310c:	81 30       	cpi	r24, 0x01	; 1
    310e:	11 f4       	brne	.+4      	; 0x3114 <_ZN6Keypad6getKeyEv+0x2e>
    3110:	8b 8d       	ldd	r24, Y+27	; 0x1b
    3112:	03 c0       	rjmp	.+6      	; 0x311a <_ZN6Keypad6getKeyEv+0x34>
    3114:	f8 01       	movw	r30, r16
    3116:	10 82       	st	Z, r1
    3118:	80 e0       	ldi	r24, 0x00	; 0
    311a:	df 91       	pop	r29
    311c:	cf 91       	pop	r28
    311e:	1f 91       	pop	r17
    3120:	0f 91       	pop	r16
    3122:	08 95       	ret

00003124 <_ZN13LiquidCrystal11pulseEnableEv>:
    3124:	cf 93       	push	r28
    3126:	df 93       	push	r29
    3128:	ec 01       	movw	r28, r24
    312a:	60 e0       	ldi	r22, 0x00	; 0
    312c:	8e 81       	ldd	r24, Y+6	; 0x06
    312e:	0e 94 e9 28 	call	0x51d2	; 0x51d2 <digitalWrite>
    3132:	81 e0       	ldi	r24, 0x01	; 1
    3134:	90 e0       	ldi	r25, 0x00	; 0
    3136:	0e 94 eb 27 	call	0x4fd6	; 0x4fd6 <delayMicroseconds>
    313a:	61 e0       	ldi	r22, 0x01	; 1
    313c:	8e 81       	ldd	r24, Y+6	; 0x06
    313e:	0e 94 e9 28 	call	0x51d2	; 0x51d2 <digitalWrite>
    3142:	81 e0       	ldi	r24, 0x01	; 1
    3144:	90 e0       	ldi	r25, 0x00	; 0
    3146:	0e 94 eb 27 	call	0x4fd6	; 0x4fd6 <delayMicroseconds>
    314a:	60 e0       	ldi	r22, 0x00	; 0
    314c:	8e 81       	ldd	r24, Y+6	; 0x06
    314e:	0e 94 e9 28 	call	0x51d2	; 0x51d2 <digitalWrite>
    3152:	84 e6       	ldi	r24, 0x64	; 100
    3154:	90 e0       	ldi	r25, 0x00	; 0
    3156:	df 91       	pop	r29
    3158:	cf 91       	pop	r28
    315a:	0c 94 eb 27 	jmp	0x4fd6	; 0x4fd6 <delayMicroseconds>

0000315e <_ZN13LiquidCrystal10write4bitsEh>:
    315e:	cf 92       	push	r12
    3160:	df 92       	push	r13
    3162:	ef 92       	push	r14
    3164:	ff 92       	push	r15
    3166:	0f 93       	push	r16
    3168:	1f 93       	push	r17
    316a:	cf 93       	push	r28
    316c:	df 93       	push	r29
    316e:	6c 01       	movw	r12, r24
    3170:	7c 01       	movw	r14, r24
    3172:	87 e0       	ldi	r24, 0x07	; 7
    3174:	e8 0e       	add	r14, r24
    3176:	f1 1c       	adc	r15, r1
    3178:	c0 e0       	ldi	r28, 0x00	; 0
    317a:	d0 e0       	ldi	r29, 0x00	; 0
    317c:	06 2f       	mov	r16, r22
    317e:	10 e0       	ldi	r17, 0x00	; 0
    3180:	b8 01       	movw	r22, r16
    3182:	0c 2e       	mov	r0, r28
    3184:	02 c0       	rjmp	.+4      	; 0x318a <_ZN13LiquidCrystal10write4bitsEh+0x2c>
    3186:	75 95       	asr	r23
    3188:	67 95       	ror	r22
    318a:	0a 94       	dec	r0
    318c:	e2 f7       	brpl	.-8      	; 0x3186 <_ZN13LiquidCrystal10write4bitsEh+0x28>
    318e:	61 70       	andi	r22, 0x01	; 1
    3190:	f7 01       	movw	r30, r14
    3192:	81 91       	ld	r24, Z+
    3194:	7f 01       	movw	r14, r30
    3196:	0e 94 e9 28 	call	0x51d2	; 0x51d2 <digitalWrite>
    319a:	21 96       	adiw	r28, 0x01	; 1
    319c:	c4 30       	cpi	r28, 0x04	; 4
    319e:	d1 05       	cpc	r29, r1
    31a0:	79 f7       	brne	.-34     	; 0x3180 <_ZN13LiquidCrystal10write4bitsEh+0x22>
    31a2:	c6 01       	movw	r24, r12
    31a4:	df 91       	pop	r29
    31a6:	cf 91       	pop	r28
    31a8:	1f 91       	pop	r17
    31aa:	0f 91       	pop	r16
    31ac:	ff 90       	pop	r15
    31ae:	ef 90       	pop	r14
    31b0:	df 90       	pop	r13
    31b2:	cf 90       	pop	r12
    31b4:	b7 cf       	rjmp	.-146    	; 0x3124 <_ZN13LiquidCrystal11pulseEnableEv>

000031b6 <_ZN13LiquidCrystal10write8bitsEh>:
    31b6:	cf 92       	push	r12
    31b8:	df 92       	push	r13
    31ba:	ef 92       	push	r14
    31bc:	ff 92       	push	r15
    31be:	0f 93       	push	r16
    31c0:	1f 93       	push	r17
    31c2:	cf 93       	push	r28
    31c4:	df 93       	push	r29
    31c6:	6c 01       	movw	r12, r24
    31c8:	7c 01       	movw	r14, r24
    31ca:	87 e0       	ldi	r24, 0x07	; 7
    31cc:	e8 0e       	add	r14, r24
    31ce:	f1 1c       	adc	r15, r1
    31d0:	c0 e0       	ldi	r28, 0x00	; 0
    31d2:	d0 e0       	ldi	r29, 0x00	; 0
    31d4:	06 2f       	mov	r16, r22
    31d6:	10 e0       	ldi	r17, 0x00	; 0
    31d8:	b8 01       	movw	r22, r16
    31da:	0c 2e       	mov	r0, r28
    31dc:	02 c0       	rjmp	.+4      	; 0x31e2 <_ZN13LiquidCrystal10write8bitsEh+0x2c>
    31de:	75 95       	asr	r23
    31e0:	67 95       	ror	r22
    31e2:	0a 94       	dec	r0
    31e4:	e2 f7       	brpl	.-8      	; 0x31de <_ZN13LiquidCrystal10write8bitsEh+0x28>
    31e6:	61 70       	andi	r22, 0x01	; 1
    31e8:	f7 01       	movw	r30, r14
    31ea:	81 91       	ld	r24, Z+
    31ec:	7f 01       	movw	r14, r30
    31ee:	0e 94 e9 28 	call	0x51d2	; 0x51d2 <digitalWrite>
    31f2:	21 96       	adiw	r28, 0x01	; 1
    31f4:	c8 30       	cpi	r28, 0x08	; 8
    31f6:	d1 05       	cpc	r29, r1
    31f8:	79 f7       	brne	.-34     	; 0x31d8 <_ZN13LiquidCrystal10write8bitsEh+0x22>
    31fa:	c6 01       	movw	r24, r12
    31fc:	df 91       	pop	r29
    31fe:	cf 91       	pop	r28
    3200:	1f 91       	pop	r17
    3202:	0f 91       	pop	r16
    3204:	ff 90       	pop	r15
    3206:	ef 90       	pop	r14
    3208:	df 90       	pop	r13
    320a:	cf 90       	pop	r12
    320c:	8b cf       	rjmp	.-234    	; 0x3124 <_ZN13LiquidCrystal11pulseEnableEv>

0000320e <_ZN13LiquidCrystal4sendEhh>:
    320e:	1f 93       	push	r17
    3210:	cf 93       	push	r28
    3212:	df 93       	push	r29
    3214:	ec 01       	movw	r28, r24
    3216:	16 2f       	mov	r17, r22
    3218:	64 2f       	mov	r22, r20
    321a:	8c 81       	ldd	r24, Y+4	; 0x04
    321c:	0e 94 e9 28 	call	0x51d2	; 0x51d2 <digitalWrite>
    3220:	8d 81       	ldd	r24, Y+5	; 0x05
    3222:	8f 3f       	cpi	r24, 0xFF	; 255
    3224:	19 f0       	breq	.+6      	; 0x322c <_ZN13LiquidCrystal4sendEhh+0x1e>
    3226:	60 e0       	ldi	r22, 0x00	; 0
    3228:	0e 94 e9 28 	call	0x51d2	; 0x51d2 <digitalWrite>
    322c:	8f 85       	ldd	r24, Y+15	; 0x0f
    322e:	61 2f       	mov	r22, r17
    3230:	84 ff       	sbrs	r24, 4
    3232:	05 c0       	rjmp	.+10     	; 0x323e <_ZN13LiquidCrystal4sendEhh+0x30>
    3234:	ce 01       	movw	r24, r28
    3236:	df 91       	pop	r29
    3238:	cf 91       	pop	r28
    323a:	1f 91       	pop	r17
    323c:	bc cf       	rjmp	.-136    	; 0x31b6 <_ZN13LiquidCrystal10write8bitsEh>
    323e:	70 e0       	ldi	r23, 0x00	; 0
    3240:	84 e0       	ldi	r24, 0x04	; 4
    3242:	75 95       	asr	r23
    3244:	67 95       	ror	r22
    3246:	8a 95       	dec	r24
    3248:	e1 f7       	brne	.-8      	; 0x3242 <_ZN13LiquidCrystal4sendEhh+0x34>
    324a:	ce 01       	movw	r24, r28
    324c:	88 df       	rcall	.-240    	; 0x315e <_ZN13LiquidCrystal10write4bitsEh>
    324e:	61 2f       	mov	r22, r17
    3250:	ce 01       	movw	r24, r28
    3252:	df 91       	pop	r29
    3254:	cf 91       	pop	r28
    3256:	1f 91       	pop	r17
    3258:	82 cf       	rjmp	.-252    	; 0x315e <_ZN13LiquidCrystal10write4bitsEh>

0000325a <_ZN13LiquidCrystal7commandEh>:
    325a:	40 e0       	ldi	r20, 0x00	; 0
    325c:	d8 cf       	rjmp	.-80     	; 0x320e <_ZN13LiquidCrystal4sendEhh>

0000325e <_ZN13LiquidCrystal5clearEv>:
    325e:	61 e0       	ldi	r22, 0x01	; 1
    3260:	fc df       	rcall	.-8      	; 0x325a <_ZN13LiquidCrystal7commandEh>
    3262:	80 ed       	ldi	r24, 0xD0	; 208
    3264:	97 e0       	ldi	r25, 0x07	; 7
    3266:	0c 94 eb 27 	jmp	0x4fd6	; 0x4fd6 <delayMicroseconds>

0000326a <_ZN13LiquidCrystal7displayEv>:
    326a:	fc 01       	movw	r30, r24
    326c:	60 89       	ldd	r22, Z+16	; 0x10
    326e:	26 2f       	mov	r18, r22
    3270:	24 60       	ori	r18, 0x04	; 4
    3272:	20 8b       	std	Z+16, r18	; 0x10
    3274:	6c 60       	ori	r22, 0x0C	; 12
    3276:	f1 cf       	rjmp	.-30     	; 0x325a <_ZN13LiquidCrystal7commandEh>

00003278 <_ZN13LiquidCrystal5beginEhhh>:
    3278:	ef 92       	push	r14
    327a:	ff 92       	push	r15
    327c:	0f 93       	push	r16
    327e:	1f 93       	push	r17
    3280:	cf 93       	push	r28
    3282:	df 93       	push	r29
    3284:	ec 01       	movw	r28, r24
    3286:	42 30       	cpi	r20, 0x02	; 2
    3288:	18 f0       	brcs	.+6      	; 0x3290 <_ZN13LiquidCrystal5beginEhhh+0x18>
    328a:	8f 85       	ldd	r24, Y+15	; 0x0f
    328c:	88 60       	ori	r24, 0x08	; 8
    328e:	8f 87       	std	Y+15, r24	; 0x0f
    3290:	4b 8b       	std	Y+19, r20	; 0x13
    3292:	1c 8a       	std	Y+20, r1	; 0x14
    3294:	80 e4       	ldi	r24, 0x40	; 64
    3296:	8d 8b       	std	Y+21, r24	; 0x15
    3298:	6e 8b       	std	Y+22, r22	; 0x16
    329a:	70 e0       	ldi	r23, 0x00	; 0
    329c:	60 5c       	subi	r22, 0xC0	; 192
    329e:	7f 4f       	sbci	r23, 0xFF	; 255
    32a0:	6f 8b       	std	Y+23, r22	; 0x17
    32a2:	22 23       	and	r18, r18
    32a4:	29 f0       	breq	.+10     	; 0x32b0 <_ZN13LiquidCrystal5beginEhhh+0x38>
    32a6:	41 30       	cpi	r20, 0x01	; 1
    32a8:	19 f4       	brne	.+6      	; 0x32b0 <_ZN13LiquidCrystal5beginEhhh+0x38>
    32aa:	8f 85       	ldd	r24, Y+15	; 0x0f
    32ac:	84 60       	ori	r24, 0x04	; 4
    32ae:	8f 87       	std	Y+15, r24	; 0x0f
    32b0:	61 e0       	ldi	r22, 0x01	; 1
    32b2:	8c 81       	ldd	r24, Y+4	; 0x04
    32b4:	0e 94 ad 28 	call	0x515a	; 0x515a <pinMode>
    32b8:	8d 81       	ldd	r24, Y+5	; 0x05
    32ba:	8f 3f       	cpi	r24, 0xFF	; 255
    32bc:	19 f0       	breq	.+6      	; 0x32c4 <_ZN13LiquidCrystal5beginEhhh+0x4c>
    32be:	61 e0       	ldi	r22, 0x01	; 1
    32c0:	0e 94 ad 28 	call	0x515a	; 0x515a <pinMode>
    32c4:	61 e0       	ldi	r22, 0x01	; 1
    32c6:	8e 81       	ldd	r24, Y+6	; 0x06
    32c8:	0e 94 ad 28 	call	0x515a	; 0x515a <pinMode>
    32cc:	7e 01       	movw	r14, r28
    32ce:	87 e0       	ldi	r24, 0x07	; 7
    32d0:	e8 0e       	add	r14, r24
    32d2:	f1 1c       	adc	r15, r1
    32d4:	00 e0       	ldi	r16, 0x00	; 0
    32d6:	10 e0       	ldi	r17, 0x00	; 0
    32d8:	8f 85       	ldd	r24, Y+15	; 0x0f
    32da:	84 fd       	sbrc	r24, 4
    32dc:	03 c0       	rjmp	.+6      	; 0x32e4 <_ZN13LiquidCrystal5beginEhhh+0x6c>
    32de:	84 e0       	ldi	r24, 0x04	; 4
    32e0:	90 e0       	ldi	r25, 0x00	; 0
    32e2:	02 c0       	rjmp	.+4      	; 0x32e8 <_ZN13LiquidCrystal5beginEhhh+0x70>
    32e4:	88 e0       	ldi	r24, 0x08	; 8
    32e6:	90 e0       	ldi	r25, 0x00	; 0
    32e8:	08 17       	cp	r16, r24
    32ea:	19 07       	cpc	r17, r25
    32ec:	4c f4       	brge	.+18     	; 0x3300 <_ZN13LiquidCrystal5beginEhhh+0x88>
    32ee:	61 e0       	ldi	r22, 0x01	; 1
    32f0:	f7 01       	movw	r30, r14
    32f2:	81 91       	ld	r24, Z+
    32f4:	7f 01       	movw	r14, r30
    32f6:	0e 94 ad 28 	call	0x515a	; 0x515a <pinMode>
    32fa:	0f 5f       	subi	r16, 0xFF	; 255
    32fc:	1f 4f       	sbci	r17, 0xFF	; 255
    32fe:	ec cf       	rjmp	.-40     	; 0x32d8 <_ZN13LiquidCrystal5beginEhhh+0x60>
    3300:	80 e5       	ldi	r24, 0x50	; 80
    3302:	93 ec       	ldi	r25, 0xC3	; 195
    3304:	0e 94 eb 27 	call	0x4fd6	; 0x4fd6 <delayMicroseconds>
    3308:	60 e0       	ldi	r22, 0x00	; 0
    330a:	8c 81       	ldd	r24, Y+4	; 0x04
    330c:	0e 94 e9 28 	call	0x51d2	; 0x51d2 <digitalWrite>
    3310:	60 e0       	ldi	r22, 0x00	; 0
    3312:	8e 81       	ldd	r24, Y+6	; 0x06
    3314:	0e 94 e9 28 	call	0x51d2	; 0x51d2 <digitalWrite>
    3318:	8d 81       	ldd	r24, Y+5	; 0x05
    331a:	8f 3f       	cpi	r24, 0xFF	; 255
    331c:	19 f0       	breq	.+6      	; 0x3324 <_ZN13LiquidCrystal5beginEhhh+0xac>
    331e:	60 e0       	ldi	r22, 0x00	; 0
    3320:	0e 94 e9 28 	call	0x51d2	; 0x51d2 <digitalWrite>
    3324:	6f 85       	ldd	r22, Y+15	; 0x0f
    3326:	64 fd       	sbrc	r22, 4
    3328:	19 c0       	rjmp	.+50     	; 0x335c <_ZN13LiquidCrystal5beginEhhh+0xe4>
    332a:	63 e0       	ldi	r22, 0x03	; 3
    332c:	ce 01       	movw	r24, r28
    332e:	17 df       	rcall	.-466    	; 0x315e <_ZN13LiquidCrystal10write4bitsEh>
    3330:	84 e9       	ldi	r24, 0x94	; 148
    3332:	91 e1       	ldi	r25, 0x11	; 17
    3334:	0e 94 eb 27 	call	0x4fd6	; 0x4fd6 <delayMicroseconds>
    3338:	63 e0       	ldi	r22, 0x03	; 3
    333a:	ce 01       	movw	r24, r28
    333c:	10 df       	rcall	.-480    	; 0x315e <_ZN13LiquidCrystal10write4bitsEh>
    333e:	84 e9       	ldi	r24, 0x94	; 148
    3340:	91 e1       	ldi	r25, 0x11	; 17
    3342:	0e 94 eb 27 	call	0x4fd6	; 0x4fd6 <delayMicroseconds>
    3346:	63 e0       	ldi	r22, 0x03	; 3
    3348:	ce 01       	movw	r24, r28
    334a:	09 df       	rcall	.-494    	; 0x315e <_ZN13LiquidCrystal10write4bitsEh>
    334c:	86 e9       	ldi	r24, 0x96	; 150
    334e:	90 e0       	ldi	r25, 0x00	; 0
    3350:	0e 94 eb 27 	call	0x4fd6	; 0x4fd6 <delayMicroseconds>
    3354:	62 e0       	ldi	r22, 0x02	; 2
    3356:	ce 01       	movw	r24, r28
    3358:	02 df       	rcall	.-508    	; 0x315e <_ZN13LiquidCrystal10write4bitsEh>
    335a:	13 c0       	rjmp	.+38     	; 0x3382 <_ZN13LiquidCrystal5beginEhhh+0x10a>
    335c:	60 62       	ori	r22, 0x20	; 32
    335e:	ce 01       	movw	r24, r28
    3360:	7c df       	rcall	.-264    	; 0x325a <_ZN13LiquidCrystal7commandEh>
    3362:	84 e9       	ldi	r24, 0x94	; 148
    3364:	91 e1       	ldi	r25, 0x11	; 17
    3366:	0e 94 eb 27 	call	0x4fd6	; 0x4fd6 <delayMicroseconds>
    336a:	6f 85       	ldd	r22, Y+15	; 0x0f
    336c:	60 62       	ori	r22, 0x20	; 32
    336e:	ce 01       	movw	r24, r28
    3370:	74 df       	rcall	.-280    	; 0x325a <_ZN13LiquidCrystal7commandEh>
    3372:	86 e9       	ldi	r24, 0x96	; 150
    3374:	90 e0       	ldi	r25, 0x00	; 0
    3376:	0e 94 eb 27 	call	0x4fd6	; 0x4fd6 <delayMicroseconds>
    337a:	6f 85       	ldd	r22, Y+15	; 0x0f
    337c:	60 62       	ori	r22, 0x20	; 32
    337e:	ce 01       	movw	r24, r28
    3380:	6c df       	rcall	.-296    	; 0x325a <_ZN13LiquidCrystal7commandEh>
    3382:	6f 85       	ldd	r22, Y+15	; 0x0f
    3384:	60 62       	ori	r22, 0x20	; 32
    3386:	ce 01       	movw	r24, r28
    3388:	68 df       	rcall	.-304    	; 0x325a <_ZN13LiquidCrystal7commandEh>
    338a:	84 e0       	ldi	r24, 0x04	; 4
    338c:	88 8b       	std	Y+16, r24	; 0x10
    338e:	ce 01       	movw	r24, r28
    3390:	6c df       	rcall	.-296    	; 0x326a <_ZN13LiquidCrystal7displayEv>
    3392:	ce 01       	movw	r24, r28
    3394:	64 df       	rcall	.-312    	; 0x325e <_ZN13LiquidCrystal5clearEv>
    3396:	82 e0       	ldi	r24, 0x02	; 2
    3398:	89 8b       	std	Y+17, r24	; 0x11
    339a:	66 e0       	ldi	r22, 0x06	; 6
    339c:	ce 01       	movw	r24, r28
    339e:	df 91       	pop	r29
    33a0:	cf 91       	pop	r28
    33a2:	1f 91       	pop	r17
    33a4:	0f 91       	pop	r16
    33a6:	ff 90       	pop	r15
    33a8:	ef 90       	pop	r14
    33aa:	57 cf       	rjmp	.-338    	; 0x325a <_ZN13LiquidCrystal7commandEh>

000033ac <_ZN13LiquidCrystalC1Ehhhhhh>:
    33ac:	cf 92       	push	r12
    33ae:	ef 92       	push	r14
    33b0:	0f 93       	push	r16
    33b2:	fc 01       	movw	r30, r24
    33b4:	13 82       	std	Z+3, r1	; 0x03
    33b6:	12 82       	std	Z+2, r1	; 0x02
    33b8:	81 ef       	ldi	r24, 0xF1	; 241
    33ba:	92 e0       	ldi	r25, 0x02	; 2
    33bc:	91 83       	std	Z+1, r25	; 0x01
    33be:	80 83       	st	Z, r24
    33c0:	64 83       	std	Z+4, r22	; 0x04
    33c2:	8f ef       	ldi	r24, 0xFF	; 255
    33c4:	85 83       	std	Z+5, r24	; 0x05
    33c6:	46 83       	std	Z+6, r20	; 0x06
    33c8:	27 83       	std	Z+7, r18	; 0x07
    33ca:	00 87       	std	Z+8, r16	; 0x08
    33cc:	e1 86       	std	Z+9, r14	; 0x09
    33ce:	c2 86       	std	Z+10, r12	; 0x0a
    33d0:	13 86       	std	Z+11, r1	; 0x0b
    33d2:	14 86       	std	Z+12, r1	; 0x0c
    33d4:	15 86       	std	Z+13, r1	; 0x0d
    33d6:	16 86       	std	Z+14, r1	; 0x0e
    33d8:	17 86       	std	Z+15, r1	; 0x0f
    33da:	20 e0       	ldi	r18, 0x00	; 0
    33dc:	41 e0       	ldi	r20, 0x01	; 1
    33de:	60 e1       	ldi	r22, 0x10	; 16
    33e0:	cf 01       	movw	r24, r30
    33e2:	0f 91       	pop	r16
    33e4:	ef 90       	pop	r14
    33e6:	cf 90       	pop	r12
    33e8:	47 cf       	rjmp	.-370    	; 0x3278 <_ZN13LiquidCrystal5beginEhhh>

000033ea <_ZN13LiquidCrystal5writeEh>:
    33ea:	41 e0       	ldi	r20, 0x01	; 1
    33ec:	10 df       	rcall	.-480    	; 0x320e <_ZN13LiquidCrystal4sendEhh>
    33ee:	81 e0       	ldi	r24, 0x01	; 1
    33f0:	90 e0       	ldi	r25, 0x00	; 0
    33f2:	08 95       	ret

000033f4 <_ZN7MFRC52219PICC_ReadCardSerialEv>:
	}
	if (cmdBuffer[0] != MF_ACK) {
		return STATUS_MIFARE_NACK;
	}
	return STATUS_OK;
} // End PCD_MIFARE_Transceive()
    33f4:	bc 01       	movw	r22, r24
    33f6:	6e 5f       	subi	r22, 0xFE	; 254
    33f8:	7f 4f       	sbci	r23, 0xFF	; 255
    33fa:	dc 01       	movw	r26, r24
    33fc:	ed 91       	ld	r30, X+
    33fe:	fc 91       	ld	r31, X
    3400:	01 90       	ld	r0, Z+
    3402:	f0 81       	ld	r31, Z
    3404:	e0 2d       	mov	r30, r0
    3406:	40 e0       	ldi	r20, 0x00	; 0
    3408:	19 95       	eicall
    340a:	91 e0       	ldi	r25, 0x01	; 1
    340c:	81 11       	cpse	r24, r1
    340e:	90 e0       	ldi	r25, 0x00	; 0
    3410:	89 2f       	mov	r24, r25
    3412:	08 95       	ret

00003414 <_ZN7MFRC52216PCD_ReadRegisterENS_12PCD_RegisterEhPhh.part.1.constprop.8>:
    3414:	af 92       	push	r10
    3416:	bf 92       	push	r11
    3418:	cf 92       	push	r12
    341a:	df 92       	push	r13
    341c:	ef 92       	push	r14
    341e:	ff 92       	push	r15
    3420:	0f 93       	push	r16
    3422:	1f 93       	push	r17
    3424:	cf 93       	push	r28
    3426:	df 93       	push	r29
    3428:	6c 01       	movw	r12, r24
    342a:	a4 2e       	mov	r10, r20
    342c:	79 01       	movw	r14, r18
    342e:	60 68       	ori	r22, 0x80	; 128
    3430:	b6 2e       	mov	r11, r22
    3432:	80 e5       	ldi	r24, 0x50	; 80
    3434:	90 e0       	ldi	r25, 0x00	; 0
    3436:	0e 94 0a 08 	call	0x1014	; 0x1014 <_ZN8SPIClass16beginTransactionE11SPISettings>
    343a:	60 e0       	ldi	r22, 0x00	; 0
    343c:	f6 01       	movw	r30, r12
    343e:	86 85       	ldd	r24, Z+14	; 0x0e
    3440:	0e 94 e9 28 	call	0x51d2	; 0x51d2 <digitalWrite>
    3444:	aa 94       	dec	r10
    3446:	8b 2d       	mov	r24, r11
    3448:	0e 94 65 0f 	call	0x1eca	; 0x1eca <_ZN8SPIClass8transferEh>
    344c:	00 23       	and	r16, r16
    344e:	a1 f0       	breq	.+40     	; 0x3478 <_ZN7MFRC52216PCD_ReadRegisterENS_12PCD_RegisterEhPhh.part.1.constprop.8+0x64>
    3450:	cf ef       	ldi	r28, 0xFF	; 255
    3452:	d0 e0       	ldi	r29, 0x00	; 0
    3454:	01 c0       	rjmp	.+2      	; 0x3458 <_ZN7MFRC52216PCD_ReadRegisterENS_12PCD_RegisterEhPhh.part.1.constprop.8+0x44>
    3456:	cc 0f       	add	r28, r28
    3458:	0a 95       	dec	r16
    345a:	ea f7       	brpl	.-6      	; 0x3456 <_ZN7MFRC52216PCD_ReadRegisterENS_12PCD_RegisterEhPhh.part.1.constprop.8+0x42>
    345c:	8b 2d       	mov	r24, r11
    345e:	0e 94 65 0f 	call	0x1eca	; 0x1eca <_ZN8SPIClass8transferEh>
    3462:	2c 2f       	mov	r18, r28
    3464:	20 95       	com	r18
    3466:	f7 01       	movw	r30, r14
    3468:	90 81       	ld	r25, Z
    346a:	92 23       	and	r25, r18
    346c:	8c 23       	and	r24, r28
    346e:	89 2b       	or	r24, r25
    3470:	f7 01       	movw	r30, r14
    3472:	80 83       	st	Z, r24
    3474:	11 e0       	ldi	r17, 0x01	; 1
    3476:	01 c0       	rjmp	.+2      	; 0x347a <_ZN7MFRC52216PCD_ReadRegisterENS_12PCD_RegisterEhPhh.part.1.constprop.8+0x66>
    3478:	10 e0       	ldi	r17, 0x00	; 0
    347a:	81 2f       	mov	r24, r17
    347c:	90 e0       	ldi	r25, 0x00	; 0
    347e:	e7 01       	movw	r28, r14
    3480:	c8 0f       	add	r28, r24
    3482:	d9 1f       	adc	r29, r25
    3484:	1a 15       	cp	r17, r10
    3486:	30 f4       	brcc	.+12     	; 0x3494 <_ZN7MFRC52216PCD_ReadRegisterENS_12PCD_RegisterEhPhh.part.1.constprop.8+0x80>
    3488:	8b 2d       	mov	r24, r11
    348a:	0e 94 65 0f 	call	0x1eca	; 0x1eca <_ZN8SPIClass8transferEh>
    348e:	88 83       	st	Y, r24
    3490:	1f 5f       	subi	r17, 0xFF	; 255
    3492:	f3 cf       	rjmp	.-26     	; 0x347a <_ZN7MFRC52216PCD_ReadRegisterENS_12PCD_RegisterEhPhh.part.1.constprop.8+0x66>
    3494:	80 e0       	ldi	r24, 0x00	; 0
    3496:	0e 94 65 0f 	call	0x1eca	; 0x1eca <_ZN8SPIClass8transferEh>
    349a:	88 83       	st	Y, r24
    349c:	61 e0       	ldi	r22, 0x01	; 1
    349e:	f6 01       	movw	r30, r12
    34a0:	86 85       	ldd	r24, Z+14	; 0x0e
    34a2:	0e 94 e9 28 	call	0x51d2	; 0x51d2 <digitalWrite>
    34a6:	df 91       	pop	r29
    34a8:	cf 91       	pop	r28
    34aa:	1f 91       	pop	r17
    34ac:	0f 91       	pop	r16
    34ae:	ff 90       	pop	r15
    34b0:	ef 90       	pop	r14
    34b2:	df 90       	pop	r13
    34b4:	cf 90       	pop	r12
    34b6:	bf 90       	pop	r11
    34b8:	af 90       	pop	r10
    34ba:	0c 94 24 08 	jmp	0x1048	; 0x1048 <_ZN8SPIClass14endTransactionEv>

000034be <_ZN7MFRC522C1Ehh>:
    34be:	fc 01       	movw	r30, r24
    34c0:	8d ef       	ldi	r24, 0xFD	; 253
    34c2:	92 e0       	ldi	r25, 0x02	; 2
    34c4:	91 83       	std	Z+1, r25	; 0x01
    34c6:	80 83       	st	Z, r24
    34c8:	66 87       	std	Z+14, r22	; 0x0e
    34ca:	47 87       	std	Z+15, r20	; 0x0f
    34cc:	08 95       	ret

000034ce <_ZN7MFRC52217PCD_WriteRegisterENS_12PCD_RegisterEh>:
    34ce:	0f 93       	push	r16
    34d0:	1f 93       	push	r17
    34d2:	cf 93       	push	r28
    34d4:	df 93       	push	r29
    34d6:	ec 01       	movw	r28, r24
    34d8:	06 2f       	mov	r16, r22
    34da:	14 2f       	mov	r17, r20
    34dc:	80 e5       	ldi	r24, 0x50	; 80
    34de:	90 e0       	ldi	r25, 0x00	; 0
    34e0:	0e 94 0a 08 	call	0x1014	; 0x1014 <_ZN8SPIClass16beginTransactionE11SPISettings>
    34e4:	60 e0       	ldi	r22, 0x00	; 0
    34e6:	8e 85       	ldd	r24, Y+14	; 0x0e
    34e8:	0e 94 e9 28 	call	0x51d2	; 0x51d2 <digitalWrite>
    34ec:	80 2f       	mov	r24, r16
    34ee:	0e 94 65 0f 	call	0x1eca	; 0x1eca <_ZN8SPIClass8transferEh>
    34f2:	81 2f       	mov	r24, r17
    34f4:	0e 94 65 0f 	call	0x1eca	; 0x1eca <_ZN8SPIClass8transferEh>
    34f8:	61 e0       	ldi	r22, 0x01	; 1
    34fa:	8e 85       	ldd	r24, Y+14	; 0x0e
    34fc:	0e 94 e9 28 	call	0x51d2	; 0x51d2 <digitalWrite>
    3500:	df 91       	pop	r29
    3502:	cf 91       	pop	r28
    3504:	1f 91       	pop	r17
    3506:	0f 91       	pop	r16
    3508:	0c 94 24 08 	jmp	0x1048	; 0x1048 <_ZN8SPIClass14endTransactionEv>

0000350c <_ZN7MFRC52217PCD_WriteRegisterENS_12PCD_RegisterEhPh>:
    350c:	df 92       	push	r13
    350e:	ef 92       	push	r14
    3510:	ff 92       	push	r15
    3512:	0f 93       	push	r16
    3514:	1f 93       	push	r17
    3516:	cf 93       	push	r28
    3518:	df 93       	push	r29
    351a:	8c 01       	movw	r16, r24
    351c:	c6 2f       	mov	r28, r22
    351e:	f4 2e       	mov	r15, r20
    3520:	d2 2e       	mov	r13, r18
    3522:	e3 2e       	mov	r14, r19
    3524:	80 e5       	ldi	r24, 0x50	; 80
    3526:	90 e0       	ldi	r25, 0x00	; 0
    3528:	0e 94 0a 08 	call	0x1014	; 0x1014 <_ZN8SPIClass16beginTransactionE11SPISettings>
    352c:	60 e0       	ldi	r22, 0x00	; 0
    352e:	f8 01       	movw	r30, r16
    3530:	86 85       	ldd	r24, Z+14	; 0x0e
    3532:	0e 94 e9 28 	call	0x51d2	; 0x51d2 <digitalWrite>
    3536:	8c 2f       	mov	r24, r28
    3538:	0e 94 65 0f 	call	0x1eca	; 0x1eca <_ZN8SPIClass8transferEh>
    353c:	cd 2d       	mov	r28, r13
    353e:	de 2d       	mov	r29, r14
    3540:	ce 01       	movw	r24, r28
    3542:	8f 0d       	add	r24, r15
    3544:	91 1d       	adc	r25, r1
    3546:	7c 01       	movw	r14, r24
    3548:	ec 16       	cp	r14, r28
    354a:	fd 06       	cpc	r15, r29
    354c:	21 f0       	breq	.+8      	; 0x3556 <_ZN7MFRC52217PCD_WriteRegisterENS_12PCD_RegisterEhPh+0x4a>
    354e:	89 91       	ld	r24, Y+
    3550:	0e 94 65 0f 	call	0x1eca	; 0x1eca <_ZN8SPIClass8transferEh>
    3554:	f9 cf       	rjmp	.-14     	; 0x3548 <_ZN7MFRC52217PCD_WriteRegisterENS_12PCD_RegisterEhPh+0x3c>
    3556:	61 e0       	ldi	r22, 0x01	; 1
    3558:	f8 01       	movw	r30, r16
    355a:	86 85       	ldd	r24, Z+14	; 0x0e
    355c:	0e 94 e9 28 	call	0x51d2	; 0x51d2 <digitalWrite>
    3560:	df 91       	pop	r29
    3562:	cf 91       	pop	r28
    3564:	1f 91       	pop	r17
    3566:	0f 91       	pop	r16
    3568:	ff 90       	pop	r15
    356a:	ef 90       	pop	r14
    356c:	df 90       	pop	r13
    356e:	0c 94 24 08 	jmp	0x1048	; 0x1048 <_ZN8SPIClass14endTransactionEv>

00003572 <_ZN7MFRC52216PCD_ReadRegisterENS_12PCD_RegisterE>:
    3572:	1f 93       	push	r17
    3574:	cf 93       	push	r28
    3576:	df 93       	push	r29
    3578:	ec 01       	movw	r28, r24
    357a:	16 2f       	mov	r17, r22
    357c:	80 e5       	ldi	r24, 0x50	; 80
    357e:	90 e0       	ldi	r25, 0x00	; 0
    3580:	0e 94 0a 08 	call	0x1014	; 0x1014 <_ZN8SPIClass16beginTransactionE11SPISettings>
    3584:	60 e0       	ldi	r22, 0x00	; 0
    3586:	8e 85       	ldd	r24, Y+14	; 0x0e
    3588:	0e 94 e9 28 	call	0x51d2	; 0x51d2 <digitalWrite>
    358c:	81 2f       	mov	r24, r17
    358e:	80 68       	ori	r24, 0x80	; 128
    3590:	0e 94 65 0f 	call	0x1eca	; 0x1eca <_ZN8SPIClass8transferEh>
    3594:	80 e0       	ldi	r24, 0x00	; 0
    3596:	0e 94 65 0f 	call	0x1eca	; 0x1eca <_ZN8SPIClass8transferEh>
    359a:	18 2f       	mov	r17, r24
    359c:	61 e0       	ldi	r22, 0x01	; 1
    359e:	8e 85       	ldd	r24, Y+14	; 0x0e
    35a0:	0e 94 e9 28 	call	0x51d2	; 0x51d2 <digitalWrite>
    35a4:	0e 94 24 08 	call	0x1048	; 0x1048 <_ZN8SPIClass14endTransactionEv>
    35a8:	81 2f       	mov	r24, r17
    35aa:	df 91       	pop	r29
    35ac:	cf 91       	pop	r28
    35ae:	1f 91       	pop	r17
    35b0:	08 95       	ret

000035b2 <_ZN7MFRC52216PCD_ReadRegisterENS_12PCD_RegisterEhPhh>:
    35b2:	0f 93       	push	r16
    35b4:	41 11       	cpse	r20, r1
    35b6:	2e df       	rcall	.-420    	; 0x3414 <_ZN7MFRC52216PCD_ReadRegisterENS_12PCD_RegisterEhPhh.part.1.constprop.8>
    35b8:	0f 91       	pop	r16
    35ba:	08 95       	ret

000035bc <_ZN7MFRC52222PCD_SetRegisterBitMaskENS_12PCD_RegisterEh>:
    35bc:	0f 93       	push	r16
    35be:	1f 93       	push	r17
    35c0:	cf 93       	push	r28
    35c2:	df 93       	push	r29
    35c4:	8c 01       	movw	r16, r24
    35c6:	d6 2f       	mov	r29, r22
    35c8:	c4 2f       	mov	r28, r20
    35ca:	d3 df       	rcall	.-90     	; 0x3572 <_ZN7MFRC52216PCD_ReadRegisterENS_12PCD_RegisterE>
    35cc:	48 2f       	mov	r20, r24
    35ce:	4c 2b       	or	r20, r28
    35d0:	6d 2f       	mov	r22, r29
    35d2:	c8 01       	movw	r24, r16
    35d4:	df 91       	pop	r29
    35d6:	cf 91       	pop	r28
    35d8:	1f 91       	pop	r17
    35da:	0f 91       	pop	r16
    35dc:	78 cf       	rjmp	.-272    	; 0x34ce <_ZN7MFRC52217PCD_WriteRegisterENS_12PCD_RegisterEh>

000035de <_ZN7MFRC52224PCD_ClearRegisterBitMaskENS_12PCD_RegisterEh>:
    35de:	0f 93       	push	r16
    35e0:	1f 93       	push	r17
    35e2:	cf 93       	push	r28
    35e4:	df 93       	push	r29
    35e6:	8c 01       	movw	r16, r24
    35e8:	d6 2f       	mov	r29, r22
    35ea:	c4 2f       	mov	r28, r20
    35ec:	c2 df       	rcall	.-124    	; 0x3572 <_ZN7MFRC52216PCD_ReadRegisterENS_12PCD_RegisterE>
    35ee:	c0 95       	com	r28
    35f0:	4c 2f       	mov	r20, r28
    35f2:	48 23       	and	r20, r24
    35f4:	6d 2f       	mov	r22, r29
    35f6:	c8 01       	movw	r24, r16
    35f8:	df 91       	pop	r29
    35fa:	cf 91       	pop	r28
    35fc:	1f 91       	pop	r17
    35fe:	0f 91       	pop	r16
    3600:	66 cf       	rjmp	.-308    	; 0x34ce <_ZN7MFRC52217PCD_WriteRegisterENS_12PCD_RegisterEh>

00003602 <_ZN7MFRC52216PCD_CalculateCRCEPhhS0_>:
    3602:	cf 92       	push	r12
    3604:	df 92       	push	r13
    3606:	ef 92       	push	r14
    3608:	ff 92       	push	r15
    360a:	0f 93       	push	r16
    360c:	1f 93       	push	r17
    360e:	cf 93       	push	r28
    3610:	df 93       	push	r29
    3612:	ec 01       	movw	r28, r24
    3614:	6b 01       	movw	r12, r22
    3616:	14 2f       	mov	r17, r20
    3618:	79 01       	movw	r14, r18
    361a:	40 e0       	ldi	r20, 0x00	; 0
    361c:	62 e0       	ldi	r22, 0x02	; 2
    361e:	57 df       	rcall	.-338    	; 0x34ce <_ZN7MFRC52217PCD_WriteRegisterENS_12PCD_RegisterEh>
    3620:	44 e0       	ldi	r20, 0x04	; 4
    3622:	6a e0       	ldi	r22, 0x0A	; 10
    3624:	ce 01       	movw	r24, r28
    3626:	53 df       	rcall	.-346    	; 0x34ce <_ZN7MFRC52217PCD_WriteRegisterENS_12PCD_RegisterEh>
    3628:	40 e8       	ldi	r20, 0x80	; 128
    362a:	64 e1       	ldi	r22, 0x14	; 20
    362c:	ce 01       	movw	r24, r28
    362e:	4f df       	rcall	.-354    	; 0x34ce <_ZN7MFRC52217PCD_WriteRegisterENS_12PCD_RegisterEh>
    3630:	96 01       	movw	r18, r12
    3632:	41 2f       	mov	r20, r17
    3634:	62 e1       	ldi	r22, 0x12	; 18
    3636:	ce 01       	movw	r24, r28
    3638:	69 df       	rcall	.-302    	; 0x350c <_ZN7MFRC52217PCD_WriteRegisterENS_12PCD_RegisterEhPh>
    363a:	43 e0       	ldi	r20, 0x03	; 3
    363c:	62 e0       	ldi	r22, 0x02	; 2
    363e:	ce 01       	movw	r24, r28
    3640:	46 df       	rcall	.-372    	; 0x34ce <_ZN7MFRC52217PCD_WriteRegisterENS_12PCD_RegisterEh>
    3642:	08 e8       	ldi	r16, 0x88	; 136
    3644:	13 e1       	ldi	r17, 0x13	; 19
    3646:	6a e0       	ldi	r22, 0x0A	; 10
    3648:	ce 01       	movw	r24, r28
    364a:	93 df       	rcall	.-218    	; 0x3572 <_ZN7MFRC52216PCD_ReadRegisterENS_12PCD_RegisterE>
    364c:	82 ff       	sbrs	r24, 2
    364e:	10 c0       	rjmp	.+32     	; 0x3670 <_ZN7MFRC52216PCD_CalculateCRCEPhhS0_+0x6e>
    3650:	40 e0       	ldi	r20, 0x00	; 0
    3652:	62 e0       	ldi	r22, 0x02	; 2
    3654:	ce 01       	movw	r24, r28
    3656:	3b df       	rcall	.-394    	; 0x34ce <_ZN7MFRC52217PCD_WriteRegisterENS_12PCD_RegisterEh>
    3658:	64 e4       	ldi	r22, 0x44	; 68
    365a:	ce 01       	movw	r24, r28
    365c:	8a df       	rcall	.-236    	; 0x3572 <_ZN7MFRC52216PCD_ReadRegisterENS_12PCD_RegisterE>
    365e:	f7 01       	movw	r30, r14
    3660:	80 83       	st	Z, r24
    3662:	62 e4       	ldi	r22, 0x42	; 66
    3664:	ce 01       	movw	r24, r28
    3666:	85 df       	rcall	.-246    	; 0x3572 <_ZN7MFRC52216PCD_ReadRegisterENS_12PCD_RegisterE>
    3668:	f7 01       	movw	r30, r14
    366a:	81 83       	std	Z+1, r24	; 0x01
    366c:	80 e0       	ldi	r24, 0x00	; 0
    366e:	04 c0       	rjmp	.+8      	; 0x3678 <_ZN7MFRC52216PCD_CalculateCRCEPhhS0_+0x76>
    3670:	01 50       	subi	r16, 0x01	; 1
    3672:	11 09       	sbc	r17, r1
    3674:	41 f7       	brne	.-48     	; 0x3646 <_ZN7MFRC52216PCD_CalculateCRCEPhhS0_+0x44>
    3676:	83 e0       	ldi	r24, 0x03	; 3
    3678:	df 91       	pop	r29
    367a:	cf 91       	pop	r28
    367c:	1f 91       	pop	r17
    367e:	0f 91       	pop	r16
    3680:	ff 90       	pop	r15
    3682:	ef 90       	pop	r14
    3684:	df 90       	pop	r13
    3686:	cf 90       	pop	r12
    3688:	08 95       	ret

0000368a <_ZN7MFRC5229PCD_ResetEv>:
    368a:	0f 93       	push	r16
    368c:	1f 93       	push	r17
    368e:	cf 93       	push	r28
    3690:	8c 01       	movw	r16, r24
    3692:	4f e0       	ldi	r20, 0x0F	; 15
    3694:	62 e0       	ldi	r22, 0x02	; 2
    3696:	1b df       	rcall	.-458    	; 0x34ce <_ZN7MFRC52217PCD_WriteRegisterENS_12PCD_RegisterEh>
    3698:	c3 e0       	ldi	r28, 0x03	; 3
    369a:	62 e3       	ldi	r22, 0x32	; 50
    369c:	70 e0       	ldi	r23, 0x00	; 0
    369e:	80 e0       	ldi	r24, 0x00	; 0
    36a0:	90 e0       	ldi	r25, 0x00	; 0
    36a2:	0e 94 b2 27 	call	0x4f64	; 0x4f64 <delay>
    36a6:	62 e0       	ldi	r22, 0x02	; 2
    36a8:	c8 01       	movw	r24, r16
    36aa:	63 df       	rcall	.-314    	; 0x3572 <_ZN7MFRC52216PCD_ReadRegisterENS_12PCD_RegisterE>
    36ac:	84 ff       	sbrs	r24, 4
    36ae:	02 c0       	rjmp	.+4      	; 0x36b4 <_ZN7MFRC5229PCD_ResetEv+0x2a>
    36b0:	c1 50       	subi	r28, 0x01	; 1
    36b2:	99 f7       	brne	.-26     	; 0x369a <_ZN7MFRC5229PCD_ResetEv+0x10>
    36b4:	cf 91       	pop	r28
    36b6:	1f 91       	pop	r17
    36b8:	0f 91       	pop	r16
    36ba:	08 95       	ret

000036bc <_ZN7MFRC52213PCD_AntennaOnEv>:
    36bc:	cf 93       	push	r28
    36be:	df 93       	push	r29
    36c0:	ec 01       	movw	r28, r24
    36c2:	68 e2       	ldi	r22, 0x28	; 40
    36c4:	56 df       	rcall	.-340    	; 0x3572 <_ZN7MFRC52216PCD_ReadRegisterENS_12PCD_RegisterE>
    36c6:	98 2f       	mov	r25, r24
    36c8:	93 70       	andi	r25, 0x03	; 3
    36ca:	93 30       	cpi	r25, 0x03	; 3
    36cc:	39 f0       	breq	.+14     	; 0x36dc <_ZN7MFRC52213PCD_AntennaOnEv+0x20>
    36ce:	48 2f       	mov	r20, r24
    36d0:	43 60       	ori	r20, 0x03	; 3
    36d2:	68 e2       	ldi	r22, 0x28	; 40
    36d4:	ce 01       	movw	r24, r28
    36d6:	df 91       	pop	r29
    36d8:	cf 91       	pop	r28
    36da:	f9 ce       	rjmp	.-526    	; 0x34ce <_ZN7MFRC52217PCD_WriteRegisterENS_12PCD_RegisterEh>
    36dc:	df 91       	pop	r29
    36de:	cf 91       	pop	r28
    36e0:	08 95       	ret

000036e2 <_ZN7MFRC5228PCD_InitEv>:
    36e2:	cf 93       	push	r28
    36e4:	df 93       	push	r29
    36e6:	ec 01       	movw	r28, r24
    36e8:	61 e0       	ldi	r22, 0x01	; 1
    36ea:	8e 85       	ldd	r24, Y+14	; 0x0e
    36ec:	0e 94 ad 28 	call	0x515a	; 0x515a <pinMode>
    36f0:	61 e0       	ldi	r22, 0x01	; 1
    36f2:	8e 85       	ldd	r24, Y+14	; 0x0e
    36f4:	0e 94 e9 28 	call	0x51d2	; 0x51d2 <digitalWrite>
    36f8:	8f 85       	ldd	r24, Y+15	; 0x0f
    36fa:	8f 3f       	cpi	r24, 0xFF	; 255
    36fc:	09 f4       	brne	.+2      	; 0x3700 <_ZN7MFRC5228PCD_InitEv+0x1e>
    36fe:	47 c0       	rjmp	.+142    	; 0x378e <_ZN7MFRC5228PCD_InitEv+0xac>
    3700:	60 e0       	ldi	r22, 0x00	; 0
    3702:	0e 94 ad 28 	call	0x515a	; 0x515a <pinMode>
    3706:	8f 85       	ldd	r24, Y+15	; 0x0f
    3708:	0e 94 17 29 	call	0x522e	; 0x522e <digitalRead>
    370c:	89 2b       	or	r24, r25
    370e:	09 f0       	breq	.+2      	; 0x3712 <_ZN7MFRC5228PCD_InitEv+0x30>
    3710:	3e c0       	rjmp	.+124    	; 0x378e <_ZN7MFRC5228PCD_InitEv+0xac>
    3712:	61 e0       	ldi	r22, 0x01	; 1
    3714:	8f 85       	ldd	r24, Y+15	; 0x0f
    3716:	0e 94 ad 28 	call	0x515a	; 0x515a <pinMode>
    371a:	60 e0       	ldi	r22, 0x00	; 0
    371c:	8f 85       	ldd	r24, Y+15	; 0x0f
    371e:	0e 94 e9 28 	call	0x51d2	; 0x51d2 <digitalWrite>
    3722:	82 e0       	ldi	r24, 0x02	; 2
    3724:	90 e0       	ldi	r25, 0x00	; 0
    3726:	0e 94 eb 27 	call	0x4fd6	; 0x4fd6 <delayMicroseconds>
    372a:	61 e0       	ldi	r22, 0x01	; 1
    372c:	8f 85       	ldd	r24, Y+15	; 0x0f
    372e:	0e 94 e9 28 	call	0x51d2	; 0x51d2 <digitalWrite>
    3732:	62 e3       	ldi	r22, 0x32	; 50
    3734:	70 e0       	ldi	r23, 0x00	; 0
    3736:	80 e0       	ldi	r24, 0x00	; 0
    3738:	90 e0       	ldi	r25, 0x00	; 0
    373a:	0e 94 b2 27 	call	0x4f64	; 0x4f64 <delay>
    373e:	40 e0       	ldi	r20, 0x00	; 0
    3740:	64 e2       	ldi	r22, 0x24	; 36
    3742:	ce 01       	movw	r24, r28
    3744:	c4 de       	rcall	.-632    	; 0x34ce <_ZN7MFRC52217PCD_WriteRegisterENS_12PCD_RegisterEh>
    3746:	40 e0       	ldi	r20, 0x00	; 0
    3748:	66 e2       	ldi	r22, 0x26	; 38
    374a:	ce 01       	movw	r24, r28
    374c:	c0 de       	rcall	.-640    	; 0x34ce <_ZN7MFRC52217PCD_WriteRegisterENS_12PCD_RegisterEh>
    374e:	46 e2       	ldi	r20, 0x26	; 38
    3750:	68 e4       	ldi	r22, 0x48	; 72
    3752:	ce 01       	movw	r24, r28
    3754:	bc de       	rcall	.-648    	; 0x34ce <_ZN7MFRC52217PCD_WriteRegisterENS_12PCD_RegisterEh>
    3756:	40 e8       	ldi	r20, 0x80	; 128
    3758:	64 e5       	ldi	r22, 0x54	; 84
    375a:	ce 01       	movw	r24, r28
    375c:	b8 de       	rcall	.-656    	; 0x34ce <_ZN7MFRC52217PCD_WriteRegisterENS_12PCD_RegisterEh>
    375e:	49 ea       	ldi	r20, 0xA9	; 169
    3760:	66 e5       	ldi	r22, 0x56	; 86
    3762:	ce 01       	movw	r24, r28
    3764:	b4 de       	rcall	.-664    	; 0x34ce <_ZN7MFRC52217PCD_WriteRegisterENS_12PCD_RegisterEh>
    3766:	43 e0       	ldi	r20, 0x03	; 3
    3768:	68 e5       	ldi	r22, 0x58	; 88
    376a:	ce 01       	movw	r24, r28
    376c:	b0 de       	rcall	.-672    	; 0x34ce <_ZN7MFRC52217PCD_WriteRegisterENS_12PCD_RegisterEh>
    376e:	48 ee       	ldi	r20, 0xE8	; 232
    3770:	6a e5       	ldi	r22, 0x5A	; 90
    3772:	ce 01       	movw	r24, r28
    3774:	ac de       	rcall	.-680    	; 0x34ce <_ZN7MFRC52217PCD_WriteRegisterENS_12PCD_RegisterEh>
    3776:	40 e4       	ldi	r20, 0x40	; 64
    3778:	6a e2       	ldi	r22, 0x2A	; 42
    377a:	ce 01       	movw	r24, r28
    377c:	a8 de       	rcall	.-688    	; 0x34ce <_ZN7MFRC52217PCD_WriteRegisterENS_12PCD_RegisterEh>
    377e:	4d e3       	ldi	r20, 0x3D	; 61
    3780:	62 e2       	ldi	r22, 0x22	; 34
    3782:	ce 01       	movw	r24, r28
    3784:	a4 de       	rcall	.-696    	; 0x34ce <_ZN7MFRC52217PCD_WriteRegisterENS_12PCD_RegisterEh>
    3786:	ce 01       	movw	r24, r28
    3788:	df 91       	pop	r29
    378a:	cf 91       	pop	r28
    378c:	97 cf       	rjmp	.-210    	; 0x36bc <_ZN7MFRC52213PCD_AntennaOnEv>
    378e:	ce 01       	movw	r24, r28
    3790:	7c df       	rcall	.-264    	; 0x368a <_ZN7MFRC5229PCD_ResetEv>
    3792:	d5 cf       	rjmp	.-86     	; 0x373e <_ZN7MFRC5228PCD_InitEv+0x5c>

00003794 <_ZN7MFRC52223PCD_CommunicateWithPICCEhhPhhS0_S0_S0_hb>:
    3794:	3f 92       	push	r3
    3796:	4f 92       	push	r4
    3798:	5f 92       	push	r5
    379a:	6f 92       	push	r6
    379c:	7f 92       	push	r7
    379e:	8f 92       	push	r8
    37a0:	9f 92       	push	r9
    37a2:	af 92       	push	r10
    37a4:	bf 92       	push	r11
    37a6:	cf 92       	push	r12
    37a8:	df 92       	push	r13
    37aa:	ef 92       	push	r14
    37ac:	ff 92       	push	r15
    37ae:	0f 93       	push	r16
    37b0:	1f 93       	push	r17
    37b2:	cf 93       	push	r28
    37b4:	df 93       	push	r29
    37b6:	1f 92       	push	r1
    37b8:	1f 92       	push	r1
    37ba:	cd b7       	in	r28, 0x3d	; 61
    37bc:	de b7       	in	r29, 0x3e	; 62
    37be:	3c 01       	movw	r6, r24
    37c0:	16 2f       	mov	r17, r22
    37c2:	94 2e       	mov	r9, r20
    37c4:	29 01       	movw	r4, r18
    37c6:	a1 14       	cp	r10, r1
    37c8:	b1 04       	cpc	r11, r1
    37ca:	19 f0       	breq	.+6      	; 0x37d2 <_ZN7MFRC52223PCD_CommunicateWithPICCEhhPhhS0_S0_S0_hb+0x3e>
    37cc:	f5 01       	movw	r30, r10
    37ce:	40 81       	ld	r20, Z
    37d0:	01 c0       	rjmp	.+2      	; 0x37d4 <_ZN7MFRC52223PCD_CommunicateWithPICCEhhPhhS0_S0_S0_hb+0x40>
    37d2:	40 e0       	ldi	r20, 0x00	; 0
    37d4:	34 2e       	mov	r3, r20
    37d6:	f0 e1       	ldi	r31, 0x10	; 16
    37d8:	8f 9e       	mul	r8, r31
    37da:	30 0c       	add	r3, r0
    37dc:	11 24       	eor	r1, r1
    37de:	40 e0       	ldi	r20, 0x00	; 0
    37e0:	62 e0       	ldi	r22, 0x02	; 2
    37e2:	c3 01       	movw	r24, r6
    37e4:	74 de       	rcall	.-792    	; 0x34ce <_ZN7MFRC52217PCD_WriteRegisterENS_12PCD_RegisterEh>
    37e6:	4f e7       	ldi	r20, 0x7F	; 127
    37e8:	68 e0       	ldi	r22, 0x08	; 8
    37ea:	c3 01       	movw	r24, r6
    37ec:	70 de       	rcall	.-800    	; 0x34ce <_ZN7MFRC52217PCD_WriteRegisterENS_12PCD_RegisterEh>
    37ee:	40 e8       	ldi	r20, 0x80	; 128
    37f0:	64 e1       	ldi	r22, 0x14	; 20
    37f2:	c3 01       	movw	r24, r6
    37f4:	6c de       	rcall	.-808    	; 0x34ce <_ZN7MFRC52217PCD_WriteRegisterENS_12PCD_RegisterEh>
    37f6:	92 01       	movw	r18, r4
    37f8:	40 2f       	mov	r20, r16
    37fa:	62 e1       	ldi	r22, 0x12	; 18
    37fc:	c3 01       	movw	r24, r6
    37fe:	86 de       	rcall	.-756    	; 0x350c <_ZN7MFRC52217PCD_WriteRegisterENS_12PCD_RegisterEhPh>
    3800:	43 2d       	mov	r20, r3
    3802:	6a e1       	ldi	r22, 0x1A	; 26
    3804:	c3 01       	movw	r24, r6
    3806:	63 de       	rcall	.-826    	; 0x34ce <_ZN7MFRC52217PCD_WriteRegisterENS_12PCD_RegisterEh>
    3808:	41 2f       	mov	r20, r17
    380a:	62 e0       	ldi	r22, 0x02	; 2
    380c:	c3 01       	movw	r24, r6
    380e:	5f de       	rcall	.-834    	; 0x34ce <_ZN7MFRC52217PCD_WriteRegisterENS_12PCD_RegisterEh>
    3810:	1c 30       	cpi	r17, 0x0C	; 12
    3812:	21 f4       	brne	.+8      	; 0x381c <_ZN7MFRC52223PCD_CommunicateWithPICCEhhPhhS0_S0_S0_hb+0x88>
    3814:	40 e8       	ldi	r20, 0x80	; 128
    3816:	6a e1       	ldi	r22, 0x1A	; 26
    3818:	c3 01       	movw	r24, r6
    381a:	d0 de       	rcall	.-608    	; 0x35bc <_ZN7MFRC52222PCD_SetRegisterBitMaskENS_12PCD_RegisterEh>
    381c:	00 ed       	ldi	r16, 0xD0	; 208
    381e:	17 e0       	ldi	r17, 0x07	; 7
    3820:	68 e0       	ldi	r22, 0x08	; 8
    3822:	c3 01       	movw	r24, r6
    3824:	a6 de       	rcall	.-692    	; 0x3572 <_ZN7MFRC52216PCD_ReadRegisterENS_12PCD_RegisterE>
    3826:	98 2f       	mov	r25, r24
    3828:	99 21       	and	r25, r9
    382a:	39 f4       	brne	.+14     	; 0x383a <_ZN7MFRC52223PCD_CommunicateWithPICCEhhPhhS0_S0_S0_hb+0xa6>
    382c:	80 fd       	sbrc	r24, 0
    382e:	03 c0       	rjmp	.+6      	; 0x3836 <_ZN7MFRC52223PCD_CommunicateWithPICCEhhPhhS0_S0_S0_hb+0xa2>
    3830:	01 50       	subi	r16, 0x01	; 1
    3832:	11 09       	sbc	r17, r1
    3834:	a9 f7       	brne	.-22     	; 0x3820 <_ZN7MFRC52223PCD_CommunicateWithPICCEhhPhhS0_S0_S0_hb+0x8c>
    3836:	83 e0       	ldi	r24, 0x03	; 3
    3838:	60 c0       	rjmp	.+192    	; 0x38fa <_ZN7MFRC52223PCD_CommunicateWithPICCEhhPhhS0_S0_S0_hb+0x166>
    383a:	6c e0       	ldi	r22, 0x0C	; 12
    383c:	c3 01       	movw	r24, r6
    383e:	99 de       	rcall	.-718    	; 0x3572 <_ZN7MFRC52216PCD_ReadRegisterENS_12PCD_RegisterE>
    3840:	18 2f       	mov	r17, r24
    3842:	83 71       	andi	r24, 0x13	; 19
    3844:	09 f0       	breq	.+2      	; 0x3848 <_ZN7MFRC52223PCD_CommunicateWithPICCEhhPhhS0_S0_S0_hb+0xb4>
    3846:	56 c0       	rjmp	.+172    	; 0x38f4 <_ZN7MFRC52223PCD_CommunicateWithPICCEhhPhhS0_S0_S0_hb+0x160>
    3848:	e1 14       	cp	r14, r1
    384a:	f1 04       	cpc	r15, r1
    384c:	e1 f0       	breq	.+56     	; 0x3886 <_ZN7MFRC52223PCD_CommunicateWithPICCEhhPhhS0_S0_S0_hb+0xf2>
    384e:	c1 14       	cp	r12, r1
    3850:	d1 04       	cpc	r13, r1
    3852:	c9 f0       	breq	.+50     	; 0x3886 <_ZN7MFRC52223PCD_CommunicateWithPICCEhhPhhS0_S0_S0_hb+0xf2>
    3854:	64 e1       	ldi	r22, 0x14	; 20
    3856:	c3 01       	movw	r24, r6
    3858:	8c de       	rcall	.-744    	; 0x3572 <_ZN7MFRC52216PCD_ReadRegisterENS_12PCD_RegisterE>
    385a:	f6 01       	movw	r30, r12
    385c:	90 81       	ld	r25, Z
    385e:	98 17       	cp	r25, r24
    3860:	08 f4       	brcc	.+2      	; 0x3864 <_ZN7MFRC52223PCD_CommunicateWithPICCEhhPhhS0_S0_S0_hb+0xd0>
    3862:	42 c0       	rjmp	.+132    	; 0x38e8 <_ZN7MFRC52223PCD_CommunicateWithPICCEhhPhhS0_S0_S0_hb+0x154>
    3864:	80 83       	st	Z, r24
    3866:	08 2d       	mov	r16, r8
    3868:	97 01       	movw	r18, r14
    386a:	48 2f       	mov	r20, r24
    386c:	62 e1       	ldi	r22, 0x12	; 18
    386e:	c3 01       	movw	r24, r6
    3870:	a0 de       	rcall	.-704    	; 0x35b2 <_ZN7MFRC52216PCD_ReadRegisterENS_12PCD_RegisterEhPhh>
    3872:	68 e1       	ldi	r22, 0x18	; 24
    3874:	c3 01       	movw	r24, r6
    3876:	7d de       	rcall	.-774    	; 0x3572 <_ZN7MFRC52216PCD_ReadRegisterENS_12PCD_RegisterE>
    3878:	87 70       	andi	r24, 0x07	; 7
    387a:	a1 14       	cp	r10, r1
    387c:	b1 04       	cpc	r11, r1
    387e:	21 f0       	breq	.+8      	; 0x3888 <_ZN7MFRC52223PCD_CommunicateWithPICCEhhPhhS0_S0_S0_hb+0xf4>
    3880:	f5 01       	movw	r30, r10
    3882:	80 83       	st	Z, r24
    3884:	01 c0       	rjmp	.+2      	; 0x3888 <_ZN7MFRC52223PCD_CommunicateWithPICCEhhPhhS0_S0_S0_hb+0xf4>
    3886:	80 e0       	ldi	r24, 0x00	; 0
    3888:	13 fd       	sbrc	r17, 3
    388a:	30 c0       	rjmp	.+96     	; 0x38ec <_ZN7MFRC52223PCD_CommunicateWithPICCEhhPhhS0_S0_S0_hb+0x158>
    388c:	e1 14       	cp	r14, r1
    388e:	f1 04       	cpc	r15, r1
    3890:	79 f1       	breq	.+94     	; 0x38f0 <_ZN7MFRC52223PCD_CommunicateWithPICCEhhPhhS0_S0_S0_hb+0x15c>
    3892:	c1 14       	cp	r12, r1
    3894:	d1 04       	cpc	r13, r1
    3896:	61 f1       	breq	.+88     	; 0x38f0 <_ZN7MFRC52223PCD_CommunicateWithPICCEhhPhhS0_S0_S0_hb+0x15c>
    3898:	9f 89       	ldd	r25, Y+23	; 0x17
    389a:	99 23       	and	r25, r25
    389c:	49 f1       	breq	.+82     	; 0x38f0 <_ZN7MFRC52223PCD_CommunicateWithPICCEhhPhhS0_S0_S0_hb+0x15c>
    389e:	f6 01       	movw	r30, r12
    38a0:	40 81       	ld	r20, Z
    38a2:	41 30       	cpi	r20, 0x01	; 1
    38a4:	21 f4       	brne	.+8      	; 0x38ae <_ZN7MFRC52223PCD_CommunicateWithPICCEhhPhhS0_S0_S0_hb+0x11a>
    38a6:	84 30       	cpi	r24, 0x04	; 4
    38a8:	39 f5       	brne	.+78     	; 0x38f8 <_ZN7MFRC52223PCD_CommunicateWithPICCEhhPhhS0_S0_S0_hb+0x164>
    38aa:	8f ef       	ldi	r24, 0xFF	; 255
    38ac:	26 c0       	rjmp	.+76     	; 0x38fa <_ZN7MFRC52223PCD_CommunicateWithPICCEhhPhhS0_S0_S0_hb+0x166>
    38ae:	42 30       	cpi	r20, 0x02	; 2
    38b0:	18 f1       	brcs	.+70     	; 0x38f8 <_ZN7MFRC52223PCD_CommunicateWithPICCEhhPhhS0_S0_S0_hb+0x164>
    38b2:	81 11       	cpse	r24, r1
    38b4:	21 c0       	rjmp	.+66     	; 0x38f8 <_ZN7MFRC52223PCD_CommunicateWithPICCEhhPhhS0_S0_S0_hb+0x164>
    38b6:	42 50       	subi	r20, 0x02	; 2
    38b8:	9e 01       	movw	r18, r28
    38ba:	2f 5f       	subi	r18, 0xFF	; 255
    38bc:	3f 4f       	sbci	r19, 0xFF	; 255
    38be:	b7 01       	movw	r22, r14
    38c0:	c3 01       	movw	r24, r6
    38c2:	9f de       	rcall	.-706    	; 0x3602 <_ZN7MFRC52216PCD_CalculateCRCEPhhS0_>
    38c4:	81 11       	cpse	r24, r1
    38c6:	19 c0       	rjmp	.+50     	; 0x38fa <_ZN7MFRC52223PCD_CommunicateWithPICCEhhPhhS0_S0_S0_hb+0x166>
    38c8:	f6 01       	movw	r30, r12
    38ca:	80 81       	ld	r24, Z
    38cc:	e8 0e       	add	r14, r24
    38ce:	f1 1c       	adc	r15, r1
    38d0:	f7 01       	movw	r30, r14
    38d2:	32 97       	sbiw	r30, 0x02	; 2
    38d4:	90 81       	ld	r25, Z
    38d6:	89 81       	ldd	r24, Y+1	; 0x01
    38d8:	98 13       	cpse	r25, r24
    38da:	0e c0       	rjmp	.+28     	; 0x38f8 <_ZN7MFRC52223PCD_CommunicateWithPICCEhhPhhS0_S0_S0_hb+0x164>
    38dc:	31 96       	adiw	r30, 0x01	; 1
    38de:	90 81       	ld	r25, Z
    38e0:	8a 81       	ldd	r24, Y+2	; 0x02
    38e2:	98 13       	cpse	r25, r24
    38e4:	09 c0       	rjmp	.+18     	; 0x38f8 <_ZN7MFRC52223PCD_CommunicateWithPICCEhhPhhS0_S0_S0_hb+0x164>
    38e6:	04 c0       	rjmp	.+8      	; 0x38f0 <_ZN7MFRC52223PCD_CommunicateWithPICCEhhPhhS0_S0_S0_hb+0x15c>
    38e8:	84 e0       	ldi	r24, 0x04	; 4
    38ea:	07 c0       	rjmp	.+14     	; 0x38fa <_ZN7MFRC52223PCD_CommunicateWithPICCEhhPhhS0_S0_S0_hb+0x166>
    38ec:	82 e0       	ldi	r24, 0x02	; 2
    38ee:	05 c0       	rjmp	.+10     	; 0x38fa <_ZN7MFRC52223PCD_CommunicateWithPICCEhhPhhS0_S0_S0_hb+0x166>
    38f0:	80 e0       	ldi	r24, 0x00	; 0
    38f2:	03 c0       	rjmp	.+6      	; 0x38fa <_ZN7MFRC52223PCD_CommunicateWithPICCEhhPhhS0_S0_S0_hb+0x166>
    38f4:	81 e0       	ldi	r24, 0x01	; 1
    38f6:	01 c0       	rjmp	.+2      	; 0x38fa <_ZN7MFRC52223PCD_CommunicateWithPICCEhhPhhS0_S0_S0_hb+0x166>
    38f8:	87 e0       	ldi	r24, 0x07	; 7
    38fa:	0f 90       	pop	r0
    38fc:	0f 90       	pop	r0
    38fe:	df 91       	pop	r29
    3900:	cf 91       	pop	r28
    3902:	1f 91       	pop	r17
    3904:	0f 91       	pop	r16
    3906:	ff 90       	pop	r15
    3908:	ef 90       	pop	r14
    390a:	df 90       	pop	r13
    390c:	cf 90       	pop	r12
    390e:	bf 90       	pop	r11
    3910:	af 90       	pop	r10
    3912:	9f 90       	pop	r9
    3914:	8f 90       	pop	r8
    3916:	7f 90       	pop	r7
    3918:	6f 90       	pop	r6
    391a:	5f 90       	pop	r5
    391c:	4f 90       	pop	r4
    391e:	3f 90       	pop	r3
    3920:	08 95       	ret

00003922 <_ZN7MFRC52218PCD_TransceiveDataEPhhS0_S0_S0_hb>:
    3922:	8f 92       	push	r8
    3924:	af 92       	push	r10
    3926:	bf 92       	push	r11
    3928:	cf 92       	push	r12
    392a:	df 92       	push	r13
    392c:	ef 92       	push	r14
    392e:	ff 92       	push	r15
    3930:	0f 93       	push	r16
    3932:	1f 93       	push	r17
    3934:	af 92       	push	r10
    3936:	8c 2c       	mov	r8, r12
    3938:	57 01       	movw	r10, r14
    393a:	68 01       	movw	r12, r16
    393c:	79 01       	movw	r14, r18
    393e:	04 2f       	mov	r16, r20
    3940:	9b 01       	movw	r18, r22
    3942:	40 e3       	ldi	r20, 0x30	; 48
    3944:	6c e0       	ldi	r22, 0x0C	; 12
    3946:	26 df       	rcall	.-436    	; 0x3794 <_ZN7MFRC52223PCD_CommunicateWithPICCEhhPhhS0_S0_S0_hb>
    3948:	0f 90       	pop	r0
    394a:	1f 91       	pop	r17
    394c:	0f 91       	pop	r16
    394e:	ff 90       	pop	r15
    3950:	ef 90       	pop	r14
    3952:	df 90       	pop	r13
    3954:	cf 90       	pop	r12
    3956:	bf 90       	pop	r11
    3958:	af 90       	pop	r10
    395a:	8f 90       	pop	r8
    395c:	08 95       	ret

0000395e <_ZN7MFRC52211PICC_SelectEPNS_3UidEh>:
    395e:	2f 92       	push	r2
    3960:	3f 92       	push	r3
    3962:	4f 92       	push	r4
    3964:	5f 92       	push	r5
    3966:	6f 92       	push	r6
    3968:	7f 92       	push	r7
    396a:	8f 92       	push	r8
    396c:	9f 92       	push	r9
    396e:	af 92       	push	r10
    3970:	bf 92       	push	r11
    3972:	cf 92       	push	r12
    3974:	df 92       	push	r13
    3976:	ef 92       	push	r14
    3978:	ff 92       	push	r15
    397a:	0f 93       	push	r16
    397c:	1f 93       	push	r17
    397e:	cf 93       	push	r28
    3980:	df 93       	push	r29
    3982:	cd b7       	in	r28, 0x3d	; 61
    3984:	de b7       	in	r29, 0x3e	; 62
    3986:	2c 97       	sbiw	r28, 0x0c	; 12
    3988:	0f b6       	in	r0, 0x3f	; 63
    398a:	f8 94       	cli
    398c:	de bf       	out	0x3e, r29	; 62
    398e:	0f be       	out	0x3f, r0	; 63
    3990:	cd bf       	out	0x3d, r28	; 61
    3992:	41 35       	cpi	r20, 0x51	; 81
    3994:	08 f0       	brcs	.+2      	; 0x3998 <_ZN7MFRC52211PICC_SelectEPNS_3UidEh+0x3a>
    3996:	00 c1       	rjmp	.+512    	; 0x3b98 <_ZN7MFRC52211PICC_SelectEPNS_3UidEh+0x23a>
    3998:	34 2e       	mov	r3, r20
    399a:	3b 01       	movw	r6, r22
    399c:	4c 01       	movw	r8, r24
    399e:	40 e8       	ldi	r20, 0x80	; 128
    39a0:	6c e1       	ldi	r22, 0x1C	; 28
    39a2:	1d de       	rcall	.-966    	; 0x35de <_ZN7MFRC52224PCD_ClearRegisterBitMaskENS_12PCD_RegisterEh>
    39a4:	22 24       	eor	r2, r2
    39a6:	23 94       	inc	r2
    39a8:	32 e0       	ldi	r19, 0x02	; 2
    39aa:	23 16       	cp	r2, r19
    39ac:	91 f0       	breq	.+36     	; 0x39d2 <_ZN7MFRC52211PICC_SelectEPNS_3UidEh+0x74>
    39ae:	83 e0       	ldi	r24, 0x03	; 3
    39b0:	28 16       	cp	r2, r24
    39b2:	e1 f0       	breq	.+56     	; 0x39ec <_ZN7MFRC52211PICC_SelectEPNS_3UidEh+0x8e>
    39b4:	91 e0       	ldi	r25, 0x01	; 1
    39b6:	29 12       	cpse	r2, r25
    39b8:	f3 c0       	rjmp	.+486    	; 0x3ba0 <_ZN7MFRC52211PICC_SelectEPNS_3UidEh+0x242>
    39ba:	83 e9       	ldi	r24, 0x93	; 147
    39bc:	89 83       	std	Y+1, r24	; 0x01
    39be:	33 20       	and	r3, r3
    39c0:	d1 f0       	breq	.+52     	; 0x39f6 <_ZN7MFRC52211PICC_SelectEPNS_3UidEh+0x98>
    39c2:	81 e0       	ldi	r24, 0x01	; 1
    39c4:	f3 01       	movw	r30, r6
    39c6:	90 81       	ld	r25, Z
    39c8:	95 30       	cpi	r25, 0x05	; 5
    39ca:	08 f4       	brcc	.+2      	; 0x39ce <_ZN7MFRC52211PICC_SelectEPNS_3UidEh+0x70>
    39cc:	80 e0       	ldi	r24, 0x00	; 0
    39ce:	b1 2c       	mov	r11, r1
    39d0:	17 c0       	rjmp	.+46     	; 0x3a00 <_ZN7MFRC52211PICC_SelectEPNS_3UidEh+0xa2>
    39d2:	f5 e9       	ldi	r31, 0x95	; 149
    39d4:	f9 83       	std	Y+1, r31	; 0x01
    39d6:	33 20       	and	r3, r3
    39d8:	81 f0       	breq	.+32     	; 0x39fa <_ZN7MFRC52211PICC_SelectEPNS_3UidEh+0x9c>
    39da:	81 e0       	ldi	r24, 0x01	; 1
    39dc:	f3 01       	movw	r30, r6
    39de:	90 81       	ld	r25, Z
    39e0:	98 30       	cpi	r25, 0x08	; 8
    39e2:	08 f4       	brcc	.+2      	; 0x39e6 <_ZN7MFRC52211PICC_SelectEPNS_3UidEh+0x88>
    39e4:	80 e0       	ldi	r24, 0x00	; 0
    39e6:	43 e0       	ldi	r20, 0x03	; 3
    39e8:	b4 2e       	mov	r11, r20
    39ea:	0a c0       	rjmp	.+20     	; 0x3a00 <_ZN7MFRC52211PICC_SelectEPNS_3UidEh+0xa2>
    39ec:	87 e9       	ldi	r24, 0x97	; 151
    39ee:	89 83       	std	Y+1, r24	; 0x01
    39f0:	36 e0       	ldi	r19, 0x06	; 6
    39f2:	b3 2e       	mov	r11, r19
    39f4:	04 c0       	rjmp	.+8      	; 0x39fe <_ZN7MFRC52211PICC_SelectEPNS_3UidEh+0xa0>
    39f6:	b1 2c       	mov	r11, r1
    39f8:	02 c0       	rjmp	.+4      	; 0x39fe <_ZN7MFRC52211PICC_SelectEPNS_3UidEh+0xa0>
    39fa:	23 e0       	ldi	r18, 0x03	; 3
    39fc:	b2 2e       	mov	r11, r18
    39fe:	80 e0       	ldi	r24, 0x00	; 0
    3a00:	d3 2c       	mov	r13, r3
    3a02:	f8 e0       	ldi	r31, 0x08	; 8
    3a04:	bf 9e       	mul	r11, r31
    3a06:	d0 18       	sub	r13, r0
    3a08:	11 24       	eor	r1, r1
    3a0a:	d7 fc       	sbrc	r13, 7
    3a0c:	d1 2c       	mov	r13, r1
    3a0e:	88 23       	and	r24, r24
    3a10:	21 f0       	breq	.+8      	; 0x3a1a <_ZN7MFRC52211PICC_SelectEPNS_3UidEh+0xbc>
    3a12:	98 e8       	ldi	r25, 0x88	; 136
    3a14:	9b 83       	std	Y+3, r25	; 0x03
    3a16:	33 e0       	ldi	r19, 0x03	; 3
    3a18:	01 c0       	rjmp	.+2      	; 0x3a1c <_ZN7MFRC52211PICC_SelectEPNS_3UidEh+0xbe>
    3a1a:	32 e0       	ldi	r19, 0x02	; 2
    3a1c:	21 e0       	ldi	r18, 0x01	; 1
    3a1e:	9d 2d       	mov	r25, r13
    3a20:	97 70       	andi	r25, 0x07	; 7
    3a22:	09 f4       	brne	.+2      	; 0x3a26 <_ZN7MFRC52211PICC_SelectEPNS_3UidEh+0xc8>
    3a24:	20 e0       	ldi	r18, 0x00	; 0
    3a26:	9d 2d       	mov	r25, r13
    3a28:	95 95       	asr	r25
    3a2a:	95 95       	asr	r25
    3a2c:	95 95       	asr	r25
    3a2e:	29 0f       	add	r18, r25
    3a30:	31 f4       	brne	.+12     	; 0x3a3e <_ZN7MFRC52211PICC_SelectEPNS_3UidEh+0xe0>
    3a32:	88 23       	and	r24, r24
    3a34:	09 f4       	brne	.+2      	; 0x3a38 <_ZN7MFRC52211PICC_SelectEPNS_3UidEh+0xda>
    3a36:	8d c0       	rjmp	.+282    	; 0x3b52 <_ZN7MFRC52211PICC_SelectEPNS_3UidEh+0x1f4>
    3a38:	38 e0       	ldi	r19, 0x08	; 8
    3a3a:	d3 0e       	add	r13, r19
    3a3c:	8a c0       	rjmp	.+276    	; 0x3b52 <_ZN7MFRC52211PICC_SelectEPNS_3UidEh+0x1f4>
    3a3e:	81 11       	cpse	r24, r1
    3a40:	02 c0       	rjmp	.+4      	; 0x3a46 <_ZN7MFRC52211PICC_SelectEPNS_3UidEh+0xe8>
    3a42:	94 e0       	ldi	r25, 0x04	; 4
    3a44:	01 c0       	rjmp	.+2      	; 0x3a48 <_ZN7MFRC52211PICC_SelectEPNS_3UidEh+0xea>
    3a46:	93 e0       	ldi	r25, 0x03	; 3
    3a48:	29 17       	cp	r18, r25
    3a4a:	08 f4       	brcc	.+2      	; 0x3a4e <_ZN7MFRC52211PICC_SelectEPNS_3UidEh+0xf0>
    3a4c:	92 2f       	mov	r25, r18
    3a4e:	eb 2d       	mov	r30, r11
    3a50:	f0 e0       	ldi	r31, 0x00	; 0
    3a52:	31 96       	adiw	r30, 0x01	; 1
    3a54:	e6 0d       	add	r30, r6
    3a56:	f7 1d       	adc	r31, r7
    3a58:	23 2f       	mov	r18, r19
    3a5a:	41 91       	ld	r20, Z+
    3a5c:	a1 e0       	ldi	r26, 0x01	; 1
    3a5e:	b0 e0       	ldi	r27, 0x00	; 0
    3a60:	ac 0f       	add	r26, r28
    3a62:	bd 1f       	adc	r27, r29
    3a64:	a2 0f       	add	r26, r18
    3a66:	b1 1d       	adc	r27, r1
    3a68:	4c 93       	st	X, r20
    3a6a:	2f 5f       	subi	r18, 0xFF	; 255
    3a6c:	42 2f       	mov	r20, r18
    3a6e:	43 1b       	sub	r20, r19
    3a70:	49 17       	cp	r20, r25
    3a72:	98 f3       	brcs	.-26     	; 0x3a5a <_ZN7MFRC52211PICC_SelectEPNS_3UidEh+0xfc>
    3a74:	de cf       	rjmp	.-68     	; 0x3a32 <_ZN7MFRC52211PICC_SelectEPNS_3UidEh+0xd4>
    3a76:	81 11       	cpse	r24, r1
    3a78:	d8 c0       	rjmp	.+432    	; 0x3c2a <_ZN7MFRC52211PICC_SelectEPNS_3UidEh+0x2cc>
    3a7a:	9f e1       	ldi	r25, 0x1F	; 31
    3a7c:	9d 15       	cp	r25, r13
    3a7e:	0c f4       	brge	.+2      	; 0x3a82 <_ZN7MFRC52211PICC_SelectEPNS_3UidEh+0x124>
    3a80:	91 c0       	rjmp	.+290    	; 0x3ba4 <_ZN7MFRC52211PICC_SelectEPNS_3UidEh+0x246>
    3a82:	80 e2       	ldi	r24, 0x20	; 32
    3a84:	d8 2e       	mov	r13, r24
    3a86:	90 e7       	ldi	r25, 0x70	; 112
    3a88:	9a 83       	std	Y+2, r25	; 0x02
    3a8a:	9b 81       	ldd	r25, Y+3	; 0x03
    3a8c:	8c 81       	ldd	r24, Y+4	; 0x04
    3a8e:	89 27       	eor	r24, r25
    3a90:	9d 81       	ldd	r25, Y+5	; 0x05
    3a92:	89 27       	eor	r24, r25
    3a94:	9e 81       	ldd	r25, Y+6	; 0x06
    3a96:	89 27       	eor	r24, r25
    3a98:	8f 83       	std	Y+7, r24	; 0x07
    3a9a:	9e 01       	movw	r18, r28
    3a9c:	28 5f       	subi	r18, 0xF8	; 248
    3a9e:	3f 4f       	sbci	r19, 0xFF	; 255
    3aa0:	47 e0       	ldi	r20, 0x07	; 7
    3aa2:	be 01       	movw	r22, r28
    3aa4:	6f 5f       	subi	r22, 0xFF	; 255
    3aa6:	7f 4f       	sbci	r23, 0xFF	; 255
    3aa8:	c4 01       	movw	r24, r8
    3aaa:	ab dd       	rcall	.-1194   	; 0x3602 <_ZN7MFRC52216PCD_CalculateCRCEPhhS0_>
    3aac:	81 11       	cpse	r24, r1
    3aae:	bd c0       	rjmp	.+378    	; 0x3c2a <_ZN7MFRC52211PICC_SelectEPNS_3UidEh+0x2cc>
    3ab0:	1b 86       	std	Y+11, r1	; 0x0b
    3ab2:	e3 e0       	ldi	r30, 0x03	; 3
    3ab4:	ea 87       	std	Y+10, r30	; 0x0a
    3ab6:	ce 01       	movw	r24, r28
    3ab8:	07 96       	adiw	r24, 0x07	; 7
    3aba:	2c 01       	movw	r4, r24
    3abc:	99 e0       	ldi	r25, 0x09	; 9
    3abe:	9c 87       	std	Y+12, r25	; 0x0c
    3ac0:	cb 84       	ldd	r12, Y+11	; 0x0b
    3ac2:	4c 2d       	mov	r20, r12
    3ac4:	42 95       	swap	r20
    3ac6:	40 7f       	andi	r20, 0xF0	; 240
    3ac8:	4c 0d       	add	r20, r12
    3aca:	6a e1       	ldi	r22, 0x1A	; 26
    3acc:	c4 01       	movw	r24, r8
    3ace:	ff dc       	rcall	.-1538   	; 0x34ce <_ZN7MFRC52217PCD_WriteRegisterENS_12PCD_RegisterEh>
    3ad0:	a1 2c       	mov	r10, r1
    3ad2:	ce 01       	movw	r24, r28
    3ad4:	0b 96       	adiw	r24, 0x0b	; 11
    3ad6:	7c 01       	movw	r14, r24
    3ad8:	8e 01       	movw	r16, r28
    3ada:	06 5f       	subi	r16, 0xF6	; 246
    3adc:	1f 4f       	sbci	r17, 0xFF	; 255
    3ade:	92 01       	movw	r18, r4
    3ae0:	4c 85       	ldd	r20, Y+12	; 0x0c
    3ae2:	be 01       	movw	r22, r28
    3ae4:	6f 5f       	subi	r22, 0xFF	; 255
    3ae6:	7f 4f       	sbci	r23, 0xFF	; 255
    3ae8:	c4 01       	movw	r24, r8
    3aea:	1b df       	rcall	.-458    	; 0x3922 <_ZN7MFRC52218PCD_TransceiveDataEPhhS0_S0_S0_hb>
    3aec:	82 30       	cpi	r24, 0x02	; 2
    3aee:	09 f0       	breq	.+2      	; 0x3af2 <_ZN7MFRC52211PICC_SelectEPNS_3UidEh+0x194>
    3af0:	c2 cf       	rjmp	.-124    	; 0x3a76 <_ZN7MFRC52211PICC_SelectEPNS_3UidEh+0x118>
    3af2:	6c e1       	ldi	r22, 0x1C	; 28
    3af4:	c4 01       	movw	r24, r8
    3af6:	3d dd       	rcall	.-1414   	; 0x3572 <_ZN7MFRC52216PCD_ReadRegisterENS_12PCD_RegisterE>
    3af8:	85 fd       	sbrc	r24, 5
    3afa:	50 c0       	rjmp	.+160    	; 0x3b9c <_ZN7MFRC52211PICC_SelectEPNS_3UidEh+0x23e>
    3afc:	8f 71       	andi	r24, 0x1F	; 31
    3afe:	09 f4       	brne	.+2      	; 0x3b02 <_ZN7MFRC52211PICC_SelectEPNS_3UidEh+0x1a4>
    3b00:	80 e2       	ldi	r24, 0x20	; 32
    3b02:	28 2f       	mov	r18, r24
    3b04:	30 e0       	ldi	r19, 0x00	; 0
    3b06:	4d 2d       	mov	r20, r13
    3b08:	dd 0c       	add	r13, r13
    3b0a:	55 0b       	sbc	r21, r21
    3b0c:	42 17       	cp	r20, r18
    3b0e:	53 07       	cpc	r21, r19
    3b10:	0c f0       	brlt	.+2      	; 0x3b14 <_ZN7MFRC52211PICC_SelectEPNS_3UidEh+0x1b6>
    3b12:	46 c0       	rjmp	.+140    	; 0x3ba0 <_ZN7MFRC52211PICC_SelectEPNS_3UidEh+0x242>
    3b14:	d8 2e       	mov	r13, r24
    3b16:	85 95       	asr	r24
    3b18:	85 95       	asr	r24
    3b1a:	85 95       	asr	r24
    3b1c:	91 e0       	ldi	r25, 0x01	; 1
    3b1e:	98 0f       	add	r25, r24
    3b20:	42 2f       	mov	r20, r18
    3b22:	47 70       	andi	r20, 0x07	; 7
    3b24:	81 e0       	ldi	r24, 0x01	; 1
    3b26:	09 f4       	brne	.+2      	; 0x3b2a <_ZN7MFRC52211PICC_SelectEPNS_3UidEh+0x1cc>
    3b28:	80 e0       	ldi	r24, 0x00	; 0
    3b2a:	89 0f       	add	r24, r25
    3b2c:	e1 e0       	ldi	r30, 0x01	; 1
    3b2e:	f0 e0       	ldi	r31, 0x00	; 0
    3b30:	ec 0f       	add	r30, r28
    3b32:	fd 1f       	adc	r31, r29
    3b34:	e8 0f       	add	r30, r24
    3b36:	f1 1d       	adc	r31, r1
    3b38:	21 50       	subi	r18, 0x01	; 1
    3b3a:	31 09       	sbc	r19, r1
    3b3c:	27 70       	andi	r18, 0x07	; 7
    3b3e:	33 27       	eor	r19, r19
    3b40:	81 e0       	ldi	r24, 0x01	; 1
    3b42:	90 e0       	ldi	r25, 0x00	; 0
    3b44:	01 c0       	rjmp	.+2      	; 0x3b48 <_ZN7MFRC52211PICC_SelectEPNS_3UidEh+0x1ea>
    3b46:	88 0f       	add	r24, r24
    3b48:	2a 95       	dec	r18
    3b4a:	ea f7       	brpl	.-6      	; 0x3b46 <_ZN7MFRC52211PICC_SelectEPNS_3UidEh+0x1e8>
    3b4c:	90 81       	ld	r25, Z
    3b4e:	89 2b       	or	r24, r25
    3b50:	80 83       	st	Z, r24
    3b52:	8f e1       	ldi	r24, 0x1F	; 31
    3b54:	8d 15       	cp	r24, r13
    3b56:	0c f4       	brge	.+2      	; 0x3b5a <_ZN7MFRC52211PICC_SelectEPNS_3UidEh+0x1fc>
    3b58:	96 cf       	rjmp	.-212    	; 0x3a86 <_ZN7MFRC52211PICC_SelectEPNS_3UidEh+0x128>
    3b5a:	9d 2d       	mov	r25, r13
    3b5c:	97 70       	andi	r25, 0x07	; 7
    3b5e:	9b 87       	std	Y+11, r25	; 0x0b
    3b60:	8d 2d       	mov	r24, r13
    3b62:	85 95       	asr	r24
    3b64:	85 95       	asr	r24
    3b66:	85 95       	asr	r24
    3b68:	8e 5f       	subi	r24, 0xFE	; 254
    3b6a:	29 2f       	mov	r18, r25
    3b6c:	e0 e1       	ldi	r30, 0x10	; 16
    3b6e:	8e 9f       	mul	r24, r30
    3b70:	20 0d       	add	r18, r0
    3b72:	11 24       	eor	r1, r1
    3b74:	2a 83       	std	Y+2, r18	; 0x02
    3b76:	21 e0       	ldi	r18, 0x01	; 1
    3b78:	91 11       	cpse	r25, r1
    3b7a:	01 c0       	rjmp	.+2      	; 0x3b7e <_ZN7MFRC52211PICC_SelectEPNS_3UidEh+0x220>
    3b7c:	20 e0       	ldi	r18, 0x00	; 0
    3b7e:	28 0f       	add	r18, r24
    3b80:	2c 87       	std	Y+12, r18	; 0x0c
    3b82:	44 24       	eor	r4, r4
    3b84:	43 94       	inc	r4
    3b86:	51 2c       	mov	r5, r1
    3b88:	4c 0e       	add	r4, r28
    3b8a:	5d 1e       	adc	r5, r29
    3b8c:	48 0e       	add	r4, r24
    3b8e:	51 1c       	adc	r5, r1
    3b90:	f9 e0       	ldi	r31, 0x09	; 9
    3b92:	f8 1b       	sub	r31, r24
    3b94:	fa 87       	std	Y+10, r31	; 0x0a
    3b96:	94 cf       	rjmp	.-216    	; 0x3ac0 <_ZN7MFRC52211PICC_SelectEPNS_3UidEh+0x162>
    3b98:	86 e0       	ldi	r24, 0x06	; 6
    3b9a:	47 c0       	rjmp	.+142    	; 0x3c2a <_ZN7MFRC52211PICC_SelectEPNS_3UidEh+0x2cc>
    3b9c:	82 e0       	ldi	r24, 0x02	; 2
    3b9e:	45 c0       	rjmp	.+138    	; 0x3c2a <_ZN7MFRC52211PICC_SelectEPNS_3UidEh+0x2cc>
    3ba0:	85 e0       	ldi	r24, 0x05	; 5
    3ba2:	43 c0       	rjmp	.+134    	; 0x3c2a <_ZN7MFRC52211PICC_SelectEPNS_3UidEh+0x2cc>
    3ba4:	8b 81       	ldd	r24, Y+3	; 0x03
    3ba6:	88 38       	cpi	r24, 0x88	; 136
    3ba8:	e9 f1       	breq	.+122    	; 0x3c24 <_ZN7MFRC52211PICC_SelectEPNS_3UidEh+0x2c6>
    3baa:	82 e0       	ldi	r24, 0x02	; 2
    3bac:	94 e0       	ldi	r25, 0x04	; 4
    3bae:	eb 2d       	mov	r30, r11
    3bb0:	f0 e0       	ldi	r31, 0x00	; 0
    3bb2:	31 96       	adiw	r30, 0x01	; 1
    3bb4:	e6 0d       	add	r30, r6
    3bb6:	f7 1d       	adc	r31, r7
    3bb8:	98 0f       	add	r25, r24
    3bba:	a1 e0       	ldi	r26, 0x01	; 1
    3bbc:	b0 e0       	ldi	r27, 0x00	; 0
    3bbe:	ac 0f       	add	r26, r28
    3bc0:	bd 1f       	adc	r27, r29
    3bc2:	a8 0f       	add	r26, r24
    3bc4:	b1 1d       	adc	r27, r1
    3bc6:	2c 91       	ld	r18, X
    3bc8:	21 93       	st	Z+, r18
    3bca:	8f 5f       	subi	r24, 0xFF	; 255
    3bcc:	98 13       	cpse	r25, r24
    3bce:	f5 cf       	rjmp	.-22     	; 0x3bba <_ZN7MFRC52211PICC_SelectEPNS_3UidEh+0x25c>
    3bd0:	8a 85       	ldd	r24, Y+10	; 0x0a
    3bd2:	83 30       	cpi	r24, 0x03	; 3
    3bd4:	19 f5       	brne	.+70     	; 0x3c1c <_ZN7MFRC52211PICC_SelectEPNS_3UidEh+0x2be>
    3bd6:	8b 85       	ldd	r24, Y+11	; 0x0b
    3bd8:	81 11       	cpse	r24, r1
    3bda:	20 c0       	rjmp	.+64     	; 0x3c1c <_ZN7MFRC52211PICC_SelectEPNS_3UidEh+0x2be>
    3bdc:	9e 01       	movw	r18, r28
    3bde:	2d 5f       	subi	r18, 0xFD	; 253
    3be0:	3f 4f       	sbci	r19, 0xFF	; 255
    3be2:	41 e0       	ldi	r20, 0x01	; 1
    3be4:	b2 01       	movw	r22, r4
    3be6:	c4 01       	movw	r24, r8
    3be8:	0c dd       	rcall	.-1512   	; 0x3602 <_ZN7MFRC52216PCD_CalculateCRCEPhhS0_>
    3bea:	81 11       	cpse	r24, r1
    3bec:	1e c0       	rjmp	.+60     	; 0x3c2a <_ZN7MFRC52211PICC_SelectEPNS_3UidEh+0x2cc>
    3bee:	9b 81       	ldd	r25, Y+3	; 0x03
    3bf0:	f2 01       	movw	r30, r4
    3bf2:	81 81       	ldd	r24, Z+1	; 0x01
    3bf4:	98 13       	cpse	r25, r24
    3bf6:	14 c0       	rjmp	.+40     	; 0x3c20 <_ZN7MFRC52211PICC_SelectEPNS_3UidEh+0x2c2>
    3bf8:	9c 81       	ldd	r25, Y+4	; 0x04
    3bfa:	82 81       	ldd	r24, Z+2	; 0x02
    3bfc:	98 13       	cpse	r25, r24
    3bfe:	10 c0       	rjmp	.+32     	; 0x3c20 <_ZN7MFRC52211PICC_SelectEPNS_3UidEh+0x2c2>
    3c00:	80 81       	ld	r24, Z
    3c02:	82 ff       	sbrs	r24, 2
    3c04:	02 c0       	rjmp	.+4      	; 0x3c0a <_ZN7MFRC52211PICC_SelectEPNS_3UidEh+0x2ac>
    3c06:	23 94       	inc	r2
    3c08:	cf ce       	rjmp	.-610    	; 0x39a8 <_ZN7MFRC52211PICC_SelectEPNS_3UidEh+0x4a>
    3c0a:	f3 01       	movw	r30, r6
    3c0c:	83 87       	std	Z+11, r24	; 0x0b
    3c0e:	82 2d       	mov	r24, r2
    3c10:	88 0f       	add	r24, r24
    3c12:	82 0d       	add	r24, r2
    3c14:	8f 5f       	subi	r24, 0xFF	; 255
    3c16:	80 83       	st	Z, r24
    3c18:	80 e0       	ldi	r24, 0x00	; 0
    3c1a:	07 c0       	rjmp	.+14     	; 0x3c2a <_ZN7MFRC52211PICC_SelectEPNS_3UidEh+0x2cc>
    3c1c:	81 e0       	ldi	r24, 0x01	; 1
    3c1e:	05 c0       	rjmp	.+10     	; 0x3c2a <_ZN7MFRC52211PICC_SelectEPNS_3UidEh+0x2cc>
    3c20:	87 e0       	ldi	r24, 0x07	; 7
    3c22:	03 c0       	rjmp	.+6      	; 0x3c2a <_ZN7MFRC52211PICC_SelectEPNS_3UidEh+0x2cc>
    3c24:	83 e0       	ldi	r24, 0x03	; 3
    3c26:	93 e0       	ldi	r25, 0x03	; 3
    3c28:	c2 cf       	rjmp	.-124    	; 0x3bae <_ZN7MFRC52211PICC_SelectEPNS_3UidEh+0x250>
    3c2a:	2c 96       	adiw	r28, 0x0c	; 12
    3c2c:	0f b6       	in	r0, 0x3f	; 63
    3c2e:	f8 94       	cli
    3c30:	de bf       	out	0x3e, r29	; 62
    3c32:	0f be       	out	0x3f, r0	; 63
    3c34:	cd bf       	out	0x3d, r28	; 61
    3c36:	df 91       	pop	r29
    3c38:	cf 91       	pop	r28
    3c3a:	1f 91       	pop	r17
    3c3c:	0f 91       	pop	r16
    3c3e:	ff 90       	pop	r15
    3c40:	ef 90       	pop	r14
    3c42:	df 90       	pop	r13
    3c44:	cf 90       	pop	r12
    3c46:	bf 90       	pop	r11
    3c48:	af 90       	pop	r10
    3c4a:	9f 90       	pop	r9
    3c4c:	8f 90       	pop	r8
    3c4e:	7f 90       	pop	r7
    3c50:	6f 90       	pop	r6
    3c52:	5f 90       	pop	r5
    3c54:	4f 90       	pop	r4
    3c56:	3f 90       	pop	r3
    3c58:	2f 90       	pop	r2
    3c5a:	08 95       	ret

00003c5c <_ZN7MFRC52217PICC_REQA_or_WUPAEhPhS0_>:
 * @return STATUS_OK on success, STATUS_??? otherwise.
 */ 
MFRC522::StatusCode MFRC522::PICC_REQA_or_WUPA(	byte command, 		///< The command to send - PICC_CMD_REQA or PICC_CMD_WUPA
												byte *bufferATQA,	///< The buffer to store the ATQA (Answer to request) in
												byte *bufferSize	///< Buffer size, at least two bytes. Also number of bytes returned if STATUS_OK.
											) {
    3c5c:	4f 92       	push	r4
    3c5e:	5f 92       	push	r5
    3c60:	6f 92       	push	r6
    3c62:	7f 92       	push	r7
    3c64:	8f 92       	push	r8
    3c66:	9f 92       	push	r9
    3c68:	af 92       	push	r10
    3c6a:	cf 92       	push	r12
    3c6c:	ef 92       	push	r14
    3c6e:	ff 92       	push	r15
    3c70:	0f 93       	push	r16
    3c72:	1f 93       	push	r17
    3c74:	cf 93       	push	r28
    3c76:	df 93       	push	r29
    3c78:	1f 92       	push	r1
    3c7a:	1f 92       	push	r1
    3c7c:	cd b7       	in	r28, 0x3d	; 61
    3c7e:	de b7       	in	r29, 0x3e	; 62
    3c80:	6a 83       	std	Y+2, r22	; 0x02
	byte validBits;
	MFRC522::StatusCode status;
	
	if (bufferATQA == nullptr || *bufferSize < 2) {	// The ATQA response is 2 bytes long.
    3c82:	41 15       	cp	r20, r1
    3c84:	51 05       	cpc	r21, r1
    3c86:	29 f1       	breq	.+74     	; 0x3cd2 <_ZN7MFRC52217PICC_REQA_or_WUPAEhPhS0_+0x76>
    3c88:	f9 01       	movw	r30, r18
    3c8a:	60 81       	ld	r22, Z
    3c8c:	62 30       	cpi	r22, 0x02	; 2
    3c8e:	08 f1       	brcs	.+66     	; 0x3cd2 <_ZN7MFRC52217PICC_REQA_or_WUPAEhPhS0_+0x76>
    3c90:	49 01       	movw	r8, r18
    3c92:	2a 01       	movw	r4, r20
    3c94:	3c 01       	movw	r6, r24
		return STATUS_NO_ROOM;
	}
	PCD_ClearRegisterBitMask(CollReg, 0x80);		// ValuesAfterColl=1 => Bits received after collision are cleared.
    3c96:	40 e8       	ldi	r20, 0x80	; 128
    3c98:	6c e1       	ldi	r22, 0x1C	; 28
    3c9a:	a1 dc       	rcall	.-1726   	; 0x35de <_ZN7MFRC52224PCD_ClearRegisterBitMaskENS_12PCD_RegisterEh>
	validBits = 7;									// For REQA and WUPA we need the short frame format - transmit only 7 bits of the last (and only) byte. TxLastBits = BitFramingReg[2..0]
    3c9c:	87 e0       	ldi	r24, 0x07	; 7
    3c9e:	89 83       	std	Y+1, r24	; 0x01
	status = PCD_TransceiveData(&command, 1, bufferATQA, bufferSize, &validBits);
    3ca0:	a1 2c       	mov	r10, r1
    3ca2:	c1 2c       	mov	r12, r1
    3ca4:	ce 01       	movw	r24, r28
    3ca6:	01 96       	adiw	r24, 0x01	; 1
    3ca8:	7c 01       	movw	r14, r24
    3caa:	84 01       	movw	r16, r8
    3cac:	92 01       	movw	r18, r4
    3cae:	41 e0       	ldi	r20, 0x01	; 1
    3cb0:	be 01       	movw	r22, r28
    3cb2:	6e 5f       	subi	r22, 0xFE	; 254
    3cb4:	7f 4f       	sbci	r23, 0xFF	; 255
    3cb6:	c3 01       	movw	r24, r6
    3cb8:	34 de       	rcall	.-920    	; 0x3922 <_ZN7MFRC52218PCD_TransceiveDataEPhhS0_S0_S0_hb>
	if (status != STATUS_OK) {
    3cba:	81 11       	cpse	r24, r1
    3cbc:	0d c0       	rjmp	.+26     	; 0x3cd8 <_ZN7MFRC52217PICC_REQA_or_WUPAEhPhS0_+0x7c>
		return status;
	}
	if (*bufferSize != 2 || validBits != 0) {		// ATQA must be exactly 16 bits.
    3cbe:	f4 01       	movw	r30, r8
    3cc0:	80 81       	ld	r24, Z
    3cc2:	82 30       	cpi	r24, 0x02	; 2
    3cc4:	41 f4       	brne	.+16     	; 0x3cd6 <_ZN7MFRC52217PICC_REQA_or_WUPAEhPhS0_+0x7a>
											) {
	byte validBits;
	MFRC522::StatusCode status;
	
	if (bufferATQA == nullptr || *bufferSize < 2) {	// The ATQA response is 2 bytes long.
		return STATUS_NO_ROOM;
    3cc6:	81 e0       	ldi	r24, 0x01	; 1
    3cc8:	99 81       	ldd	r25, Y+1	; 0x01
    3cca:	91 11       	cpse	r25, r1
    3ccc:	05 c0       	rjmp	.+10     	; 0x3cd8 <_ZN7MFRC52217PICC_REQA_or_WUPAEhPhS0_+0x7c>
    3cce:	80 e0       	ldi	r24, 0x00	; 0
    3cd0:	03 c0       	rjmp	.+6      	; 0x3cd8 <_ZN7MFRC52217PICC_REQA_or_WUPAEhPhS0_+0x7c>
    3cd2:	84 e0       	ldi	r24, 0x04	; 4
    3cd4:	01 c0       	rjmp	.+2      	; 0x3cd8 <_ZN7MFRC52217PICC_REQA_or_WUPAEhPhS0_+0x7c>
	status = PCD_TransceiveData(&command, 1, bufferATQA, bufferSize, &validBits);
	if (status != STATUS_OK) {
		return status;
	}
	if (*bufferSize != 2 || validBits != 0) {		// ATQA must be exactly 16 bits.
		return STATUS_ERROR;
    3cd6:	81 e0       	ldi	r24, 0x01	; 1
	}
	return STATUS_OK;
} // End PICC_REQA_or_WUPA()
    3cd8:	0f 90       	pop	r0
    3cda:	0f 90       	pop	r0
    3cdc:	df 91       	pop	r29
    3cde:	cf 91       	pop	r28
    3ce0:	1f 91       	pop	r17
    3ce2:	0f 91       	pop	r16
    3ce4:	ff 90       	pop	r15
    3ce6:	ef 90       	pop	r14
    3ce8:	cf 90       	pop	r12
    3cea:	af 90       	pop	r10
    3cec:	9f 90       	pop	r9
    3cee:	8f 90       	pop	r8
    3cf0:	7f 90       	pop	r7
    3cf2:	6f 90       	pop	r6
    3cf4:	5f 90       	pop	r5
    3cf6:	4f 90       	pop	r4
    3cf8:	08 95       	ret

00003cfa <_ZN7MFRC52213PICC_RequestAEPhS0_>:
 * 
 * @return STATUS_OK on success, STATUS_??? otherwise.
 */
MFRC522::StatusCode MFRC522::PICC_RequestA(	byte *bufferATQA,	///< The buffer to store the ATQA (Answer to request) in
											byte *bufferSize	///< Buffer size, at least two bytes. Also number of bytes returned if STATUS_OK.
										) {
    3cfa:	9a 01       	movw	r18, r20
	return PICC_REQA_or_WUPA(PICC_CMD_REQA, bufferATQA, bufferSize);
    3cfc:	ab 01       	movw	r20, r22
    3cfe:	66 e2       	ldi	r22, 0x26	; 38
    3d00:	ad cf       	rjmp	.-166    	; 0x3c5c <_ZN7MFRC52217PICC_REQA_or_WUPAEhPhS0_>

00003d02 <_ZN7MFRC52221PICC_IsNewCardPresentEv>:
 * Returns true if a PICC responds to PICC_CMD_REQA.
 * Only "new" cards in state IDLE are invited. Sleeping cards in state HALT are ignored.
 * 
 * @return bool
 */
bool MFRC522::PICC_IsNewCardPresent() {
    3d02:	0f 93       	push	r16
    3d04:	1f 93       	push	r17
    3d06:	cf 93       	push	r28
    3d08:	df 93       	push	r29
    3d0a:	00 d0       	rcall	.+0      	; 0x3d0c <_ZN7MFRC52221PICC_IsNewCardPresentEv+0xa>
    3d0c:	cd b7       	in	r28, 0x3d	; 61
    3d0e:	de b7       	in	r29, 0x3e	; 62
    3d10:	8c 01       	movw	r16, r24
	byte bufferATQA[2];
	byte bufferSize = sizeof(bufferATQA);
    3d12:	82 e0       	ldi	r24, 0x02	; 2
    3d14:	8b 83       	std	Y+3, r24	; 0x03

	// Reset baud rates
	PCD_WriteRegister(TxModeReg, 0x00);
    3d16:	40 e0       	ldi	r20, 0x00	; 0
    3d18:	64 e2       	ldi	r22, 0x24	; 36
    3d1a:	c8 01       	movw	r24, r16
    3d1c:	d8 db       	rcall	.-2128   	; 0x34ce <_ZN7MFRC52217PCD_WriteRegisterENS_12PCD_RegisterEh>
	PCD_WriteRegister(RxModeReg, 0x00);
    3d1e:	40 e0       	ldi	r20, 0x00	; 0
    3d20:	66 e2       	ldi	r22, 0x26	; 38
    3d22:	c8 01       	movw	r24, r16
    3d24:	d4 db       	rcall	.-2136   	; 0x34ce <_ZN7MFRC52217PCD_WriteRegisterENS_12PCD_RegisterEh>
	// Reset ModWidthReg
	PCD_WriteRegister(ModWidthReg, 0x26);
    3d26:	46 e2       	ldi	r20, 0x26	; 38
    3d28:	68 e4       	ldi	r22, 0x48	; 72
    3d2a:	c8 01       	movw	r24, r16
    3d2c:	d0 db       	rcall	.-2144   	; 0x34ce <_ZN7MFRC52217PCD_WriteRegisterENS_12PCD_RegisterEh>

	MFRC522::StatusCode result = PICC_RequestA(bufferATQA, &bufferSize);
    3d2e:	ae 01       	movw	r20, r28
    3d30:	4d 5f       	subi	r20, 0xFD	; 253
    3d32:	5f 4f       	sbci	r21, 0xFF	; 255
    3d34:	be 01       	movw	r22, r28
    3d36:	6f 5f       	subi	r22, 0xFF	; 255
    3d38:	7f 4f       	sbci	r23, 0xFF	; 255
    3d3a:	c8 01       	movw	r24, r16
    3d3c:	de df       	rcall	.-68     	; 0x3cfa <_ZN7MFRC52213PICC_RequestAEPhS0_>
    3d3e:	98 2f       	mov	r25, r24
	return (result == STATUS_OK || result == STATUS_COLLISION);
    3d40:	81 e0       	ldi	r24, 0x01	; 1
    3d42:	99 23       	and	r25, r25
    3d44:	19 f0       	breq	.+6      	; 0x3d4c <_ZN7MFRC52221PICC_IsNewCardPresentEv+0x4a>
    3d46:	92 30       	cpi	r25, 0x02	; 2
    3d48:	09 f0       	breq	.+2      	; 0x3d4c <_ZN7MFRC52221PICC_IsNewCardPresentEv+0x4a>
    3d4a:	80 e0       	ldi	r24, 0x00	; 0
} // End PICC_IsNewCardPresent()
    3d4c:	0f 90       	pop	r0
    3d4e:	0f 90       	pop	r0
    3d50:	0f 90       	pop	r0
    3d52:	df 91       	pop	r29
    3d54:	cf 91       	pop	r28
    3d56:	1f 91       	pop	r17
    3d58:	0f 91       	pop	r16
    3d5a:	08 95       	ret

00003d5c <_ZL17handle_interrupts18timer16_Sequence_tPVjS1_>:
    3d5c:	cf 92       	push	r12
    3d5e:	df 92       	push	r13
    3d60:	ef 92       	push	r14
    3d62:	ff 92       	push	r15
    3d64:	0f 93       	push	r16
    3d66:	1f 93       	push	r17
    3d68:	cf 93       	push	r28
    3d6a:	df 93       	push	r29
    3d6c:	7b 01       	movw	r14, r22
    3d6e:	6a 01       	movw	r12, r20
    3d70:	08 2f       	mov	r16, r24
    3d72:	10 e0       	ldi	r17, 0x00	; 0
    3d74:	e8 01       	movw	r28, r16
    3d76:	cc 5f       	subi	r28, 0xFC	; 252
    3d78:	db 4f       	sbci	r29, 0xFB	; 251
    3d7a:	88 81       	ld	r24, Y
    3d7c:	87 ff       	sbrs	r24, 7
    3d7e:	04 c0       	rjmp	.+8      	; 0x3d88 <_ZL17handle_interrupts18timer16_Sequence_tPVjS1_+0x2c>
    3d80:	fb 01       	movw	r30, r22
    3d82:	11 82       	std	Z+1, r1	; 0x01
    3d84:	10 82       	st	Z, r1
    3d86:	24 c0       	rjmp	.+72     	; 0x3dd0 <_ZL17handle_interrupts18timer16_Sequence_tPVjS1_+0x74>
    3d88:	8c e0       	ldi	r24, 0x0C	; 12
    3d8a:	80 9f       	mul	r24, r16
    3d8c:	90 01       	movw	r18, r0
    3d8e:	81 9f       	mul	r24, r17
    3d90:	30 0d       	add	r19, r0
    3d92:	11 24       	eor	r1, r1
    3d94:	88 81       	ld	r24, Y
    3d96:	a9 01       	movw	r20, r18
    3d98:	48 0f       	add	r20, r24
    3d9a:	51 1d       	adc	r21, r1
    3d9c:	87 fd       	sbrc	r24, 7
    3d9e:	5a 95       	dec	r21
    3da0:	80 91 03 04 	lds	r24, 0x0403	; 0x800403 <ServoCount>
    3da4:	90 e0       	ldi	r25, 0x00	; 0
    3da6:	48 17       	cp	r20, r24
    3da8:	59 07       	cpc	r21, r25
    3daa:	94 f4       	brge	.+36     	; 0x3dd0 <_ZL17handle_interrupts18timer16_Sequence_tPVjS1_+0x74>
    3dac:	88 81       	ld	r24, Y
    3dae:	a9 01       	movw	r20, r18
    3db0:	48 0f       	add	r20, r24
    3db2:	51 1d       	adc	r21, r1
    3db4:	87 fd       	sbrc	r24, 7
    3db6:	5a 95       	dec	r21
    3db8:	ca 01       	movw	r24, r20
    3dba:	fa 01       	movw	r30, r20
    3dbc:	ee 0f       	add	r30, r30
    3dbe:	ff 1f       	adc	r31, r31
    3dc0:	8e 0f       	add	r24, r30
    3dc2:	9f 1f       	adc	r25, r31
    3dc4:	fc 01       	movw	r30, r24
    3dc6:	e8 5f       	subi	r30, 0xF8	; 248
    3dc8:	fb 4f       	sbci	r31, 0xFB	; 251
    3dca:	80 81       	ld	r24, Z
    3dcc:	86 fd       	sbrc	r24, 6
    3dce:	19 c0       	rjmp	.+50     	; 0x3e02 <_ZL17handle_interrupts18timer16_Sequence_tPVjS1_+0xa6>
    3dd0:	88 81       	ld	r24, Y
    3dd2:	8f 5f       	subi	r24, 0xFF	; 255
    3dd4:	88 83       	st	Y, r24
    3dd6:	8c e0       	ldi	r24, 0x0C	; 12
    3dd8:	80 9f       	mul	r24, r16
    3dda:	90 01       	movw	r18, r0
    3ddc:	81 9f       	mul	r24, r17
    3dde:	30 0d       	add	r19, r0
    3de0:	11 24       	eor	r1, r1
    3de2:	88 81       	ld	r24, Y
    3de4:	a9 01       	movw	r20, r18
    3de6:	48 0f       	add	r20, r24
    3de8:	51 1d       	adc	r21, r1
    3dea:	87 fd       	sbrc	r24, 7
    3dec:	5a 95       	dec	r21
    3dee:	80 91 03 04 	lds	r24, 0x0403	; 0x800403 <ServoCount>
    3df2:	90 e0       	ldi	r25, 0x00	; 0
    3df4:	48 17       	cp	r20, r24
    3df6:	59 07       	cpc	r21, r25
    3df8:	bc f4       	brge	.+46     	; 0x3e28 <_ZL17handle_interrupts18timer16_Sequence_tPVjS1_+0xcc>
    3dfa:	88 81       	ld	r24, Y
    3dfc:	8c 30       	cpi	r24, 0x0C	; 12
    3dfe:	44 f1       	brlt	.+80     	; 0x3e50 <_ZL17handle_interrupts18timer16_Sequence_tPVjS1_+0xf4>
    3e00:	13 c0       	rjmp	.+38     	; 0x3e28 <_ZL17handle_interrupts18timer16_Sequence_tPVjS1_+0xcc>
    3e02:	88 81       	ld	r24, Y
    3e04:	28 0f       	add	r18, r24
    3e06:	31 1d       	adc	r19, r1
    3e08:	87 fd       	sbrc	r24, 7
    3e0a:	3a 95       	dec	r19
    3e0c:	f9 01       	movw	r30, r18
    3e0e:	ee 0f       	add	r30, r30
    3e10:	ff 1f       	adc	r31, r31
    3e12:	2e 0f       	add	r18, r30
    3e14:	3f 1f       	adc	r19, r31
    3e16:	f9 01       	movw	r30, r18
    3e18:	e8 5f       	subi	r30, 0xF8	; 248
    3e1a:	fb 4f       	sbci	r31, 0xFB	; 251
    3e1c:	80 81       	ld	r24, Z
    3e1e:	60 e0       	ldi	r22, 0x00	; 0
    3e20:	8f 73       	andi	r24, 0x3F	; 63
    3e22:	0e 94 e9 28 	call	0x51d2	; 0x51d2 <digitalWrite>
    3e26:	d4 cf       	rjmp	.-88     	; 0x3dd0 <_ZL17handle_interrupts18timer16_Sequence_tPVjS1_+0x74>
    3e28:	f7 01       	movw	r30, r14
    3e2a:	80 81       	ld	r24, Z
    3e2c:	91 81       	ldd	r25, Z+1	; 0x01
    3e2e:	04 96       	adiw	r24, 0x04	; 4
    3e30:	80 34       	cpi	r24, 0x40	; 64
    3e32:	9c 49       	sbci	r25, 0x9C	; 156
    3e34:	18 f4       	brcc	.+6      	; 0x3e3c <_ZL17handle_interrupts18timer16_Sequence_tPVjS1_+0xe0>
    3e36:	80 e4       	ldi	r24, 0x40	; 64
    3e38:	9c e9       	ldi	r25, 0x9C	; 156
    3e3a:	04 c0       	rjmp	.+8      	; 0x3e44 <_ZL17handle_interrupts18timer16_Sequence_tPVjS1_+0xe8>
    3e3c:	f7 01       	movw	r30, r14
    3e3e:	80 81       	ld	r24, Z
    3e40:	91 81       	ldd	r25, Z+1	; 0x01
    3e42:	04 96       	adiw	r24, 0x04	; 4
    3e44:	f6 01       	movw	r30, r12
    3e46:	91 83       	std	Z+1, r25	; 0x01
    3e48:	80 83       	st	Z, r24
    3e4a:	8f ef       	ldi	r24, 0xFF	; 255
    3e4c:	88 83       	st	Y, r24
    3e4e:	45 c0       	rjmp	.+138    	; 0x3eda <_ZL17handle_interrupts18timer16_Sequence_tPVjS1_+0x17e>
    3e50:	f7 01       	movw	r30, r14
    3e52:	40 81       	ld	r20, Z
    3e54:	51 81       	ldd	r21, Z+1	; 0x01
    3e56:	88 81       	ld	r24, Y
    3e58:	b9 01       	movw	r22, r18
    3e5a:	68 0f       	add	r22, r24
    3e5c:	71 1d       	adc	r23, r1
    3e5e:	87 fd       	sbrc	r24, 7
    3e60:	7a 95       	dec	r23
    3e62:	cb 01       	movw	r24, r22
    3e64:	fb 01       	movw	r30, r22
    3e66:	ee 0f       	add	r30, r30
    3e68:	ff 1f       	adc	r31, r31
    3e6a:	8e 0f       	add	r24, r30
    3e6c:	9f 1f       	adc	r25, r31
    3e6e:	fc 01       	movw	r30, r24
    3e70:	e8 5f       	subi	r30, 0xF8	; 248
    3e72:	fb 4f       	sbci	r31, 0xFB	; 251
    3e74:	81 81       	ldd	r24, Z+1	; 0x01
    3e76:	92 81       	ldd	r25, Z+2	; 0x02
    3e78:	84 0f       	add	r24, r20
    3e7a:	95 1f       	adc	r25, r21
    3e7c:	f6 01       	movw	r30, r12
    3e7e:	91 83       	std	Z+1, r25	; 0x01
    3e80:	80 83       	st	Z, r24
    3e82:	88 81       	ld	r24, Y
    3e84:	a9 01       	movw	r20, r18
    3e86:	48 0f       	add	r20, r24
    3e88:	51 1d       	adc	r21, r1
    3e8a:	87 fd       	sbrc	r24, 7
    3e8c:	5a 95       	dec	r21
    3e8e:	ca 01       	movw	r24, r20
    3e90:	fa 01       	movw	r30, r20
    3e92:	ee 0f       	add	r30, r30
    3e94:	ff 1f       	adc	r31, r31
    3e96:	8e 0f       	add	r24, r30
    3e98:	9f 1f       	adc	r25, r31
    3e9a:	fc 01       	movw	r30, r24
    3e9c:	e8 5f       	subi	r30, 0xF8	; 248
    3e9e:	fb 4f       	sbci	r31, 0xFB	; 251
    3ea0:	80 81       	ld	r24, Z
    3ea2:	86 ff       	sbrs	r24, 6
    3ea4:	1a c0       	rjmp	.+52     	; 0x3eda <_ZL17handle_interrupts18timer16_Sequence_tPVjS1_+0x17e>
    3ea6:	88 81       	ld	r24, Y
    3ea8:	28 0f       	add	r18, r24
    3eaa:	31 1d       	adc	r19, r1
    3eac:	87 fd       	sbrc	r24, 7
    3eae:	3a 95       	dec	r19
    3eb0:	f9 01       	movw	r30, r18
    3eb2:	ee 0f       	add	r30, r30
    3eb4:	ff 1f       	adc	r31, r31
    3eb6:	2e 0f       	add	r18, r30
    3eb8:	3f 1f       	adc	r19, r31
    3eba:	f9 01       	movw	r30, r18
    3ebc:	e8 5f       	subi	r30, 0xF8	; 248
    3ebe:	fb 4f       	sbci	r31, 0xFB	; 251
    3ec0:	80 81       	ld	r24, Z
    3ec2:	61 e0       	ldi	r22, 0x01	; 1
    3ec4:	8f 73       	andi	r24, 0x3F	; 63
    3ec6:	df 91       	pop	r29
    3ec8:	cf 91       	pop	r28
    3eca:	1f 91       	pop	r17
    3ecc:	0f 91       	pop	r16
    3ece:	ff 90       	pop	r15
    3ed0:	ef 90       	pop	r14
    3ed2:	df 90       	pop	r13
    3ed4:	cf 90       	pop	r12
    3ed6:	0c 94 e9 28 	jmp	0x51d2	; 0x51d2 <digitalWrite>
    3eda:	df 91       	pop	r29
    3edc:	cf 91       	pop	r28
    3ede:	1f 91       	pop	r17
    3ee0:	0f 91       	pop	r16
    3ee2:	ff 90       	pop	r15
    3ee4:	ef 90       	pop	r14
    3ee6:	df 90       	pop	r13
    3ee8:	cf 90       	pop	r12
    3eea:	08 95       	ret

00003eec <__vector_17>:
    3eec:	1f 92       	push	r1
    3eee:	0f 92       	push	r0
    3ef0:	0f b6       	in	r0, 0x3f	; 63
    3ef2:	0f 92       	push	r0
    3ef4:	11 24       	eor	r1, r1
    3ef6:	0b b6       	in	r0, 0x3b	; 59
    3ef8:	0f 92       	push	r0
    3efa:	2f 93       	push	r18
    3efc:	3f 93       	push	r19
    3efe:	4f 93       	push	r20
    3f00:	5f 93       	push	r21
    3f02:	6f 93       	push	r22
    3f04:	7f 93       	push	r23
    3f06:	8f 93       	push	r24
    3f08:	9f 93       	push	r25
    3f0a:	af 93       	push	r26
    3f0c:	bf 93       	push	r27
    3f0e:	ef 93       	push	r30
    3f10:	ff 93       	push	r31
    3f12:	48 e8       	ldi	r20, 0x88	; 136
    3f14:	50 e0       	ldi	r21, 0x00	; 0
    3f16:	64 e8       	ldi	r22, 0x84	; 132
    3f18:	70 e0       	ldi	r23, 0x00	; 0
    3f1a:	81 e0       	ldi	r24, 0x01	; 1
    3f1c:	1f df       	rcall	.-450    	; 0x3d5c <_ZL17handle_interrupts18timer16_Sequence_tPVjS1_>
    3f1e:	ff 91       	pop	r31
    3f20:	ef 91       	pop	r30
    3f22:	bf 91       	pop	r27
    3f24:	af 91       	pop	r26
    3f26:	9f 91       	pop	r25
    3f28:	8f 91       	pop	r24
    3f2a:	7f 91       	pop	r23
    3f2c:	6f 91       	pop	r22
    3f2e:	5f 91       	pop	r21
    3f30:	4f 91       	pop	r20
    3f32:	3f 91       	pop	r19
    3f34:	2f 91       	pop	r18
    3f36:	0f 90       	pop	r0
    3f38:	0b be       	out	0x3b, r0	; 59
    3f3a:	0f 90       	pop	r0
    3f3c:	0f be       	out	0x3f, r0	; 63
    3f3e:	0f 90       	pop	r0
    3f40:	1f 90       	pop	r1
    3f42:	18 95       	reti

00003f44 <__vector_32>:
    3f44:	1f 92       	push	r1
    3f46:	0f 92       	push	r0
    3f48:	0f b6       	in	r0, 0x3f	; 63
    3f4a:	0f 92       	push	r0
    3f4c:	11 24       	eor	r1, r1
    3f4e:	0b b6       	in	r0, 0x3b	; 59
    3f50:	0f 92       	push	r0
    3f52:	2f 93       	push	r18
    3f54:	3f 93       	push	r19
    3f56:	4f 93       	push	r20
    3f58:	5f 93       	push	r21
    3f5a:	6f 93       	push	r22
    3f5c:	7f 93       	push	r23
    3f5e:	8f 93       	push	r24
    3f60:	9f 93       	push	r25
    3f62:	af 93       	push	r26
    3f64:	bf 93       	push	r27
    3f66:	ef 93       	push	r30
    3f68:	ff 93       	push	r31
    3f6a:	48 e9       	ldi	r20, 0x98	; 152
    3f6c:	50 e0       	ldi	r21, 0x00	; 0
    3f6e:	64 e9       	ldi	r22, 0x94	; 148
    3f70:	70 e0       	ldi	r23, 0x00	; 0
    3f72:	82 e0       	ldi	r24, 0x02	; 2
    3f74:	f3 de       	rcall	.-538    	; 0x3d5c <_ZL17handle_interrupts18timer16_Sequence_tPVjS1_>
    3f76:	ff 91       	pop	r31
    3f78:	ef 91       	pop	r30
    3f7a:	bf 91       	pop	r27
    3f7c:	af 91       	pop	r26
    3f7e:	9f 91       	pop	r25
    3f80:	8f 91       	pop	r24
    3f82:	7f 91       	pop	r23
    3f84:	6f 91       	pop	r22
    3f86:	5f 91       	pop	r21
    3f88:	4f 91       	pop	r20
    3f8a:	3f 91       	pop	r19
    3f8c:	2f 91       	pop	r18
    3f8e:	0f 90       	pop	r0
    3f90:	0b be       	out	0x3b, r0	; 59
    3f92:	0f 90       	pop	r0
    3f94:	0f be       	out	0x3f, r0	; 63
    3f96:	0f 90       	pop	r0
    3f98:	1f 90       	pop	r1
    3f9a:	18 95       	reti

00003f9c <__vector_42>:
    3f9c:	1f 92       	push	r1
    3f9e:	0f 92       	push	r0
    3fa0:	0f b6       	in	r0, 0x3f	; 63
    3fa2:	0f 92       	push	r0
    3fa4:	11 24       	eor	r1, r1
    3fa6:	0b b6       	in	r0, 0x3b	; 59
    3fa8:	0f 92       	push	r0
    3faa:	2f 93       	push	r18
    3fac:	3f 93       	push	r19
    3fae:	4f 93       	push	r20
    3fb0:	5f 93       	push	r21
    3fb2:	6f 93       	push	r22
    3fb4:	7f 93       	push	r23
    3fb6:	8f 93       	push	r24
    3fb8:	9f 93       	push	r25
    3fba:	af 93       	push	r26
    3fbc:	bf 93       	push	r27
    3fbe:	ef 93       	push	r30
    3fc0:	ff 93       	push	r31
    3fc2:	48 ea       	ldi	r20, 0xA8	; 168
    3fc4:	50 e0       	ldi	r21, 0x00	; 0
    3fc6:	64 ea       	ldi	r22, 0xA4	; 164
    3fc8:	70 e0       	ldi	r23, 0x00	; 0
    3fca:	83 e0       	ldi	r24, 0x03	; 3
    3fcc:	c7 de       	rcall	.-626    	; 0x3d5c <_ZL17handle_interrupts18timer16_Sequence_tPVjS1_>
    3fce:	ff 91       	pop	r31
    3fd0:	ef 91       	pop	r30
    3fd2:	bf 91       	pop	r27
    3fd4:	af 91       	pop	r26
    3fd6:	9f 91       	pop	r25
    3fd8:	8f 91       	pop	r24
    3fda:	7f 91       	pop	r23
    3fdc:	6f 91       	pop	r22
    3fde:	5f 91       	pop	r21
    3fe0:	4f 91       	pop	r20
    3fe2:	3f 91       	pop	r19
    3fe4:	2f 91       	pop	r18
    3fe6:	0f 90       	pop	r0
    3fe8:	0b be       	out	0x3b, r0	; 59
    3fea:	0f 90       	pop	r0
    3fec:	0f be       	out	0x3f, r0	; 63
    3fee:	0f 90       	pop	r0
    3ff0:	1f 90       	pop	r1
    3ff2:	18 95       	reti

00003ff4 <__vector_47>:
    3ff4:	1f 92       	push	r1
    3ff6:	0f 92       	push	r0
    3ff8:	0f b6       	in	r0, 0x3f	; 63
    3ffa:	0f 92       	push	r0
    3ffc:	11 24       	eor	r1, r1
    3ffe:	0b b6       	in	r0, 0x3b	; 59
    4000:	0f 92       	push	r0
    4002:	2f 93       	push	r18
    4004:	3f 93       	push	r19
    4006:	4f 93       	push	r20
    4008:	5f 93       	push	r21
    400a:	6f 93       	push	r22
    400c:	7f 93       	push	r23
    400e:	8f 93       	push	r24
    4010:	9f 93       	push	r25
    4012:	af 93       	push	r26
    4014:	bf 93       	push	r27
    4016:	ef 93       	push	r30
    4018:	ff 93       	push	r31
    401a:	48 e2       	ldi	r20, 0x28	; 40
    401c:	51 e0       	ldi	r21, 0x01	; 1
    401e:	64 e2       	ldi	r22, 0x24	; 36
    4020:	71 e0       	ldi	r23, 0x01	; 1
    4022:	80 e0       	ldi	r24, 0x00	; 0
    4024:	9b de       	rcall	.-714    	; 0x3d5c <_ZL17handle_interrupts18timer16_Sequence_tPVjS1_>
    4026:	ff 91       	pop	r31
    4028:	ef 91       	pop	r30
    402a:	bf 91       	pop	r27
    402c:	af 91       	pop	r26
    402e:	9f 91       	pop	r25
    4030:	8f 91       	pop	r24
    4032:	7f 91       	pop	r23
    4034:	6f 91       	pop	r22
    4036:	5f 91       	pop	r21
    4038:	4f 91       	pop	r20
    403a:	3f 91       	pop	r19
    403c:	2f 91       	pop	r18
    403e:	0f 90       	pop	r0
    4040:	0b be       	out	0x3b, r0	; 59
    4042:	0f 90       	pop	r0
    4044:	0f be       	out	0x3f, r0	; 63
    4046:	0f 90       	pop	r0
    4048:	1f 90       	pop	r1
    404a:	18 95       	reti

0000404c <_ZN8SPIClass5beginEv>:
#ifdef SPI_TRANSACTION_MISMATCH_LED
uint8_t SPIClass::inTransactionFlag = 0;
#endif

void SPIClass::begin()
{
    404c:	cf 93       	push	r28
  uint8_t sreg = SREG;
    404e:	cf b7       	in	r28, 0x3f	; 63
  noInterrupts(); // Protect from a scheduler and prevent transactionBegin
    4050:	f8 94       	cli
  if (!initialized) {
    4052:	80 91 9b 04 	lds	r24, 0x049B	; 0x80049b <_ZN8SPIClass11initializedE>
    4056:	81 11       	cpse	r24, r1
    4058:	27 c0       	rjmp	.+78     	; 0x40a8 <_ZN8SPIClass5beginEv+0x5c>
    // Set SS to high so a connected chip will be "deselected" by default
    uint8_t port = digitalPinToPort(SS);
    405a:	e9 ed       	ldi	r30, 0xD9	; 217
    405c:	fb e0       	ldi	r31, 0x0B	; 11
    405e:	84 91       	lpm	r24, Z
    uint8_t bit = digitalPinToBitMask(SS);
    4060:	e3 e9       	ldi	r30, 0x93	; 147
    4062:	fb e0       	ldi	r31, 0x0B	; 11
    4064:	94 91       	lpm	r25, Z
    volatile uint8_t *reg = portModeRegister(port);
    4066:	e8 2f       	mov	r30, r24
    4068:	f0 e0       	ldi	r31, 0x00	; 0
    406a:	ee 0f       	add	r30, r30
    406c:	ff 1f       	adc	r31, r31
    406e:	e2 5e       	subi	r30, 0xE2	; 226
    4070:	f3 4f       	sbci	r31, 0xF3	; 243
    4072:	a5 91       	lpm	r26, Z+
    4074:	b4 91       	lpm	r27, Z

    // if the SS pin is not already configured as an output
    // then set it high (to enable the internal pull-up resistor)
    if(!(*reg & bit)){
    4076:	ec 91       	ld	r30, X
    4078:	e9 23       	and	r30, r25
    407a:	21 f4       	brne	.+8      	; 0x4084 <_ZN8SPIClass5beginEv+0x38>
      digitalWrite(SS, HIGH);
    407c:	61 e0       	ldi	r22, 0x01	; 1
    407e:	85 e3       	ldi	r24, 0x35	; 53
    4080:	0e 94 e9 28 	call	0x51d2	; 0x51d2 <digitalWrite>
    }

    // When the SS pin is set as OUTPUT, it can be used as
    // a general purpose output port (it doesn't influence
    // SPI operations).
    pinMode(SS, OUTPUT);
    4084:	61 e0       	ldi	r22, 0x01	; 1
    4086:	85 e3       	ldi	r24, 0x35	; 53
    4088:	0e 94 ad 28 	call	0x515a	; 0x515a <pinMode>

    // Warning: if the SS pin ever becomes a LOW INPUT then SPI
    // automatically switches to Slave, so the data direction of
    // the SS pin MUST be kept as OUTPUT.
    SPCR |= _BV(MSTR);
    408c:	8c b5       	in	r24, 0x2c	; 44
    408e:	80 61       	ori	r24, 0x10	; 16
    4090:	8c bd       	out	0x2c, r24	; 44
    SPCR |= _BV(SPE);
    4092:	8c b5       	in	r24, 0x2c	; 44
    4094:	80 64       	ori	r24, 0x40	; 64
    4096:	8c bd       	out	0x2c, r24	; 44
    // MISO pin automatically overrides to INPUT.
    // By doing this AFTER enabling SPI, we avoid accidentally
    // clocking in a single bit since the lines go directly
    // from "input" to SPI control.
    // http://code.google.com/p/arduino/issues/detail?id=888
    pinMode(SCK, OUTPUT);
    4098:	61 e0       	ldi	r22, 0x01	; 1
    409a:	84 e3       	ldi	r24, 0x34	; 52
    409c:	0e 94 ad 28 	call	0x515a	; 0x515a <pinMode>
    pinMode(MOSI, OUTPUT);
    40a0:	61 e0       	ldi	r22, 0x01	; 1
    40a2:	83 e3       	ldi	r24, 0x33	; 51
    40a4:	0e 94 ad 28 	call	0x515a	; 0x515a <pinMode>
  }
  initialized++; // reference count
    40a8:	80 91 9b 04 	lds	r24, 0x049B	; 0x80049b <_ZN8SPIClass11initializedE>
    40ac:	8f 5f       	subi	r24, 0xFF	; 255
    40ae:	80 93 9b 04 	sts	0x049B, r24	; 0x80049b <_ZN8SPIClass11initializedE>
  SREG = sreg;
    40b2:	cf bf       	out	0x3f, r28	; 63
}
    40b4:	cf 91       	pop	r28
    40b6:	08 95       	ret

000040b8 <__vector_20>:
    40b8:	1f 92       	push	r1
    40ba:	0f 92       	push	r0
    40bc:	0f b6       	in	r0, 0x3f	; 63
    40be:	0f 92       	push	r0
    40c0:	11 24       	eor	r1, r1
    40c2:	0b b6       	in	r0, 0x3b	; 59
    40c4:	0f 92       	push	r0
    40c6:	2f 93       	push	r18
    40c8:	3f 93       	push	r19
    40ca:	4f 93       	push	r20
    40cc:	5f 93       	push	r21
    40ce:	6f 93       	push	r22
    40d0:	7f 93       	push	r23
    40d2:	8f 93       	push	r24
    40d4:	9f 93       	push	r25
    40d6:	af 93       	push	r26
    40d8:	bf 93       	push	r27
    40da:	ef 93       	push	r30
    40dc:	ff 93       	push	r31
    40de:	e0 91 9c 04 	lds	r30, 0x049C	; 0x80049c <_ZN8TimerOne11isrCallbackE>
    40e2:	f0 91 9d 04 	lds	r31, 0x049D	; 0x80049d <_ZN8TimerOne11isrCallbackE+0x1>
    40e6:	19 95       	eicall
    40e8:	ff 91       	pop	r31
    40ea:	ef 91       	pop	r30
    40ec:	bf 91       	pop	r27
    40ee:	af 91       	pop	r26
    40f0:	9f 91       	pop	r25
    40f2:	8f 91       	pop	r24
    40f4:	7f 91       	pop	r23
    40f6:	6f 91       	pop	r22
    40f8:	5f 91       	pop	r21
    40fa:	4f 91       	pop	r20
    40fc:	3f 91       	pop	r19
    40fe:	2f 91       	pop	r18
    4100:	0f 90       	pop	r0
    4102:	0b be       	out	0x3b, r0	; 59
    4104:	0f 90       	pop	r0
    4106:	0f be       	out	0x3f, r0	; 63
    4108:	0f 90       	pop	r0
    410a:	1f 90       	pop	r1
    410c:	18 95       	reti

0000410e <__vector_35>:
    410e:	1f 92       	push	r1
    4110:	0f 92       	push	r0
    4112:	0f b6       	in	r0, 0x3f	; 63
    4114:	0f 92       	push	r0
    4116:	11 24       	eor	r1, r1
    4118:	0b b6       	in	r0, 0x3b	; 59
    411a:	0f 92       	push	r0
    411c:	2f 93       	push	r18
    411e:	3f 93       	push	r19
    4120:	4f 93       	push	r20
    4122:	5f 93       	push	r21
    4124:	6f 93       	push	r22
    4126:	7f 93       	push	r23
    4128:	8f 93       	push	r24
    412a:	9f 93       	push	r25
    412c:	af 93       	push	r26
    412e:	bf 93       	push	r27
    4130:	ef 93       	push	r30
    4132:	ff 93       	push	r31
    4134:	e0 91 9e 04 	lds	r30, 0x049E	; 0x80049e <_ZN10TimerThree11isrCallbackE>
    4138:	f0 91 9f 04 	lds	r31, 0x049F	; 0x80049f <_ZN10TimerThree11isrCallbackE+0x1>
    413c:	19 95       	eicall
    413e:	ff 91       	pop	r31
    4140:	ef 91       	pop	r30
    4142:	bf 91       	pop	r27
    4144:	af 91       	pop	r26
    4146:	9f 91       	pop	r25
    4148:	8f 91       	pop	r24
    414a:	7f 91       	pop	r23
    414c:	6f 91       	pop	r22
    414e:	5f 91       	pop	r21
    4150:	4f 91       	pop	r20
    4152:	3f 91       	pop	r19
    4154:	2f 91       	pop	r18
    4156:	0f 90       	pop	r0
    4158:	0b be       	out	0x3b, r0	; 59
    415a:	0f 90       	pop	r0
    415c:	0f be       	out	0x3f, r0	; 63
    415e:	0f 90       	pop	r0
    4160:	1f 90       	pop	r1
    4162:	18 95       	reti

00004164 <twi_init>:
    4164:	10 92 13 05 	sts	0x0513, r1	; 0x800513 <twi_state>
    4168:	81 e0       	ldi	r24, 0x01	; 1
    416a:	80 93 11 05 	sts	0x0511, r24	; 0x800511 <twi_sendStop>
    416e:	10 92 10 05 	sts	0x0510, r1	; 0x800510 <twi_inRepStart>
    4172:	61 e0       	ldi	r22, 0x01	; 1
    4174:	84 e1       	ldi	r24, 0x14	; 20
    4176:	0e 94 e9 28 	call	0x51d2	; 0x51d2 <digitalWrite>
    417a:	61 e0       	ldi	r22, 0x01	; 1
    417c:	85 e1       	ldi	r24, 0x15	; 21
    417e:	0e 94 e9 28 	call	0x51d2	; 0x51d2 <digitalWrite>
    4182:	e9 eb       	ldi	r30, 0xB9	; 185
    4184:	f0 e0       	ldi	r31, 0x00	; 0
    4186:	80 81       	ld	r24, Z
    4188:	8e 7f       	andi	r24, 0xFE	; 254
    418a:	80 83       	st	Z, r24
    418c:	80 81       	ld	r24, Z
    418e:	8d 7f       	andi	r24, 0xFD	; 253
    4190:	80 83       	st	Z, r24
    4192:	88 e4       	ldi	r24, 0x48	; 72
    4194:	80 93 b8 00 	sts	0x00B8, r24	; 0x8000b8 <__TEXT_REGION_LENGTH__+0x7c00b8>
    4198:	85 e4       	ldi	r24, 0x45	; 69
    419a:	80 93 bc 00 	sts	0x00BC, r24	; 0x8000bc <__TEXT_REGION_LENGTH__+0x7c00bc>
    419e:	08 95       	ret

000041a0 <twi_disable>:
    41a0:	ec eb       	ldi	r30, 0xBC	; 188
    41a2:	f0 e0       	ldi	r31, 0x00	; 0
    41a4:	80 81       	ld	r24, Z
    41a6:	8a 7b       	andi	r24, 0xBA	; 186
    41a8:	80 83       	st	Z, r24
    41aa:	60 e0       	ldi	r22, 0x00	; 0
    41ac:	84 e1       	ldi	r24, 0x14	; 20
    41ae:	0e 94 e9 28 	call	0x51d2	; 0x51d2 <digitalWrite>
    41b2:	60 e0       	ldi	r22, 0x00	; 0
    41b4:	85 e1       	ldi	r24, 0x15	; 21
    41b6:	0c 94 e9 28 	jmp	0x51d2	; 0x51d2 <digitalWrite>

000041ba <twi_setFrequency>:
    41ba:	9b 01       	movw	r18, r22
    41bc:	ac 01       	movw	r20, r24
    41be:	60 e0       	ldi	r22, 0x00	; 0
    41c0:	74 e2       	ldi	r23, 0x24	; 36
    41c2:	84 ef       	ldi	r24, 0xF4	; 244
    41c4:	90 e0       	ldi	r25, 0x00	; 0
    41c6:	0e 94 ab 2a 	call	0x5556	; 0x5556 <__udivmodsi4>
    41ca:	da 01       	movw	r26, r20
    41cc:	c9 01       	movw	r24, r18
    41ce:	40 97       	sbiw	r24, 0x10	; 16
    41d0:	a1 09       	sbc	r26, r1
    41d2:	b1 09       	sbc	r27, r1
    41d4:	b6 95       	lsr	r27
    41d6:	a7 95       	ror	r26
    41d8:	97 95       	ror	r25
    41da:	87 95       	ror	r24
    41dc:	80 93 b8 00 	sts	0x00B8, r24	; 0x8000b8 <__TEXT_REGION_LENGTH__+0x7c00b8>
    41e0:	08 95       	ret

000041e2 <twi_transmit>:
    41e2:	40 91 c2 04 	lds	r20, 0x04C2	; 0x8004c2 <twi_txBufferLength>
    41e6:	26 2f       	mov	r18, r22
    41e8:	30 e0       	ldi	r19, 0x00	; 0
    41ea:	24 0f       	add	r18, r20
    41ec:	31 1d       	adc	r19, r1
    41ee:	21 32       	cpi	r18, 0x21	; 33
    41f0:	31 05       	cpc	r19, r1
    41f2:	dc f4       	brge	.+54     	; 0x422a <twi_transmit+0x48>
    41f4:	20 91 13 05 	lds	r18, 0x0513	; 0x800513 <twi_state>
    41f8:	24 30       	cpi	r18, 0x04	; 4
    41fa:	c9 f4       	brne	.+50     	; 0x422e <twi_transmit+0x4c>
    41fc:	fc 01       	movw	r30, r24
    41fe:	80 e0       	ldi	r24, 0x00	; 0
    4200:	90 e0       	ldi	r25, 0x00	; 0
    4202:	86 17       	cp	r24, r22
    4204:	58 f4       	brcc	.+22     	; 0x421c <twi_transmit+0x3a>
    4206:	30 91 c2 04 	lds	r19, 0x04C2	; 0x8004c2 <twi_txBufferLength>
    420a:	21 91       	ld	r18, Z+
    420c:	dc 01       	movw	r26, r24
    420e:	ac 53       	subi	r26, 0x3C	; 60
    4210:	bb 4f       	sbci	r27, 0xFB	; 251
    4212:	a3 0f       	add	r26, r19
    4214:	b1 1d       	adc	r27, r1
    4216:	2c 93       	st	X, r18
    4218:	01 96       	adiw	r24, 0x01	; 1
    421a:	f3 cf       	rjmp	.-26     	; 0x4202 <twi_transmit+0x20>
    421c:	80 91 c2 04 	lds	r24, 0x04C2	; 0x8004c2 <twi_txBufferLength>
    4220:	68 0f       	add	r22, r24
    4222:	60 93 c2 04 	sts	0x04C2, r22	; 0x8004c2 <twi_txBufferLength>
    4226:	80 e0       	ldi	r24, 0x00	; 0
    4228:	08 95       	ret
    422a:	81 e0       	ldi	r24, 0x01	; 1
    422c:	08 95       	ret
    422e:	82 e0       	ldi	r24, 0x02	; 2
    4230:	08 95       	ret

00004232 <twi_attachSlaveRxEvent>:
    4232:	90 93 07 05 	sts	0x0507, r25	; 0x800507 <twi_onSlaveReceive+0x1>
    4236:	80 93 06 05 	sts	0x0506, r24	; 0x800506 <twi_onSlaveReceive>
    423a:	08 95       	ret

0000423c <twi_attachSlaveTxEvent>:
    423c:	90 93 09 05 	sts	0x0509, r25	; 0x800509 <twi_onSlaveTransmit+0x1>
    4240:	80 93 08 05 	sts	0x0508, r24	; 0x800508 <twi_onSlaveTransmit>
    4244:	08 95       	ret

00004246 <twi_releaseBus>:
    4246:	85 ec       	ldi	r24, 0xC5	; 197
    4248:	80 93 bc 00 	sts	0x00BC, r24	; 0x8000bc <__TEXT_REGION_LENGTH__+0x7c00bc>
    424c:	10 92 13 05 	sts	0x0513, r1	; 0x800513 <twi_state>
    4250:	08 95       	ret

00004252 <twi_handleTimeout>:
    4252:	cf 93       	push	r28
    4254:	df 93       	push	r29
    4256:	91 e0       	ldi	r25, 0x01	; 1
    4258:	90 93 0b 05 	sts	0x050B, r25	; 0x80050b <twi_timed_out_flag>
    425c:	88 23       	and	r24, r24
    425e:	51 f0       	breq	.+20     	; 0x4274 <twi_handleTimeout+0x22>
    4260:	c0 91 b8 00 	lds	r28, 0x00B8	; 0x8000b8 <__TEXT_REGION_LENGTH__+0x7c00b8>
    4264:	d0 91 ba 00 	lds	r29, 0x00BA	; 0x8000ba <__TEXT_REGION_LENGTH__+0x7c00ba>
    4268:	9b df       	rcall	.-202    	; 0x41a0 <twi_disable>
    426a:	7c df       	rcall	.-264    	; 0x4164 <twi_init>
    426c:	d0 93 ba 00 	sts	0x00BA, r29	; 0x8000ba <__TEXT_REGION_LENGTH__+0x7c00ba>
    4270:	c0 93 b8 00 	sts	0x00B8, r28	; 0x8000b8 <__TEXT_REGION_LENGTH__+0x7c00b8>
    4274:	df 91       	pop	r29
    4276:	cf 91       	pop	r28
    4278:	08 95       	ret

0000427a <twi_writeTo>:
    427a:	4f 92       	push	r4
    427c:	5f 92       	push	r5
    427e:	6f 92       	push	r6
    4280:	7f 92       	push	r7
    4282:	8f 92       	push	r8
    4284:	9f 92       	push	r9
    4286:	af 92       	push	r10
    4288:	bf 92       	push	r11
    428a:	cf 92       	push	r12
    428c:	df 92       	push	r13
    428e:	ef 92       	push	r14
    4290:	ff 92       	push	r15
    4292:	0f 93       	push	r16
    4294:	1f 93       	push	r17
    4296:	cf 93       	push	r28
    4298:	df 93       	push	r29
    429a:	41 32       	cpi	r20, 0x21	; 33
    429c:	08 f0       	brcs	.+2      	; 0x42a0 <twi_writeTo+0x26>
    429e:	bf c0       	rjmp	.+382    	; 0x441e <twi_writeTo+0x1a4>
    42a0:	12 2f       	mov	r17, r18
    42a2:	f4 2e       	mov	r15, r20
    42a4:	d7 2e       	mov	r13, r23
    42a6:	e6 2e       	mov	r14, r22
    42a8:	d8 2f       	mov	r29, r24
    42aa:	37 d6       	rcall	.+3182   	; 0x4f1a <micros>
    42ac:	4b 01       	movw	r8, r22
    42ae:	5c 01       	movw	r10, r24
    42b0:	c0 91 13 05 	lds	r28, 0x0513	; 0x800513 <twi_state>
    42b4:	cc 23       	and	r28, r28
    42b6:	09 f1       	breq	.+66     	; 0x42fa <twi_writeTo+0x80>
    42b8:	80 91 0c 05 	lds	r24, 0x050C	; 0x80050c <twi_timeout_us>
    42bc:	90 91 0d 05 	lds	r25, 0x050D	; 0x80050d <twi_timeout_us+0x1>
    42c0:	a0 91 0e 05 	lds	r26, 0x050E	; 0x80050e <twi_timeout_us+0x2>
    42c4:	b0 91 0f 05 	lds	r27, 0x050F	; 0x80050f <twi_timeout_us+0x3>
    42c8:	89 2b       	or	r24, r25
    42ca:	8a 2b       	or	r24, r26
    42cc:	8b 2b       	or	r24, r27
    42ce:	81 f3       	breq	.-32     	; 0x42b0 <twi_writeTo+0x36>
    42d0:	24 d6       	rcall	.+3144   	; 0x4f1a <micros>
    42d2:	40 90 0c 05 	lds	r4, 0x050C	; 0x80050c <twi_timeout_us>
    42d6:	50 90 0d 05 	lds	r5, 0x050D	; 0x80050d <twi_timeout_us+0x1>
    42da:	60 90 0e 05 	lds	r6, 0x050E	; 0x80050e <twi_timeout_us+0x2>
    42de:	70 90 0f 05 	lds	r7, 0x050F	; 0x80050f <twi_timeout_us+0x3>
    42e2:	dc 01       	movw	r26, r24
    42e4:	cb 01       	movw	r24, r22
    42e6:	88 19       	sub	r24, r8
    42e8:	99 09       	sbc	r25, r9
    42ea:	aa 09       	sbc	r26, r10
    42ec:	bb 09       	sbc	r27, r11
    42ee:	48 16       	cp	r4, r24
    42f0:	59 06       	cpc	r5, r25
    42f2:	6a 06       	cpc	r6, r26
    42f4:	7b 06       	cpc	r7, r27
    42f6:	e0 f6       	brcc	.-72     	; 0x42b0 <twi_writeTo+0x36>
    42f8:	7f c0       	rjmp	.+254    	; 0x43f8 <twi_writeTo+0x17e>
    42fa:	82 e0       	ldi	r24, 0x02	; 2
    42fc:	80 93 13 05 	sts	0x0513, r24	; 0x800513 <twi_state>
    4300:	00 93 11 05 	sts	0x0511, r16	; 0x800511 <twi_sendStop>
    4304:	8f ef       	ldi	r24, 0xFF	; 255
    4306:	80 93 a0 04 	sts	0x04A0, r24	; 0x8004a0 <twi_error>
    430a:	10 92 e5 04 	sts	0x04E5, r1	; 0x8004e5 <twi_masterBufferIndex>
    430e:	f0 92 e4 04 	sts	0x04E4, r15	; 0x8004e4 <twi_masterBufferLength>
    4312:	9e 2d       	mov	r25, r14
    4314:	a6 ee       	ldi	r26, 0xE6	; 230
    4316:	b4 e0       	ldi	r27, 0x04	; 4
    4318:	ee 2d       	mov	r30, r14
    431a:	fd 2d       	mov	r31, r13
    431c:	8e 2f       	mov	r24, r30
    431e:	89 1b       	sub	r24, r25
    4320:	8f 15       	cp	r24, r15
    4322:	18 f4       	brcc	.+6      	; 0x432a <twi_writeTo+0xb0>
    4324:	81 91       	ld	r24, Z+
    4326:	8d 93       	st	X+, r24
    4328:	f9 cf       	rjmp	.-14     	; 0x431c <twi_writeTo+0xa2>
    432a:	10 92 12 05 	sts	0x0512, r1	; 0x800512 <twi_slarw>
    432e:	90 91 12 05 	lds	r25, 0x0512	; 0x800512 <twi_slarw>
    4332:	dd 0f       	add	r29, r29
    4334:	d9 2b       	or	r29, r25
    4336:	d0 93 12 05 	sts	0x0512, r29	; 0x800512 <twi_slarw>
    433a:	80 91 10 05 	lds	r24, 0x0510	; 0x800510 <twi_inRepStart>
    433e:	81 30       	cpi	r24, 0x01	; 1
    4340:	79 f5       	brne	.+94     	; 0x43a0 <twi_writeTo+0x126>
    4342:	10 92 10 05 	sts	0x0510, r1	; 0x800510 <twi_inRepStart>
    4346:	e9 d5       	rcall	.+3026   	; 0x4f1a <micros>
    4348:	6b 01       	movw	r12, r22
    434a:	7c 01       	movw	r14, r24
    434c:	80 91 12 05 	lds	r24, 0x0512	; 0x800512 <twi_slarw>
    4350:	80 93 bb 00 	sts	0x00BB, r24	; 0x8000bb <__TEXT_REGION_LENGTH__+0x7c00bb>
    4354:	80 91 0c 05 	lds	r24, 0x050C	; 0x80050c <twi_timeout_us>
    4358:	90 91 0d 05 	lds	r25, 0x050D	; 0x80050d <twi_timeout_us+0x1>
    435c:	a0 91 0e 05 	lds	r26, 0x050E	; 0x80050e <twi_timeout_us+0x2>
    4360:	b0 91 0f 05 	lds	r27, 0x050F	; 0x80050f <twi_timeout_us+0x3>
    4364:	89 2b       	or	r24, r25
    4366:	8a 2b       	or	r24, r26
    4368:	8b 2b       	or	r24, r27
    436a:	a1 f0       	breq	.+40     	; 0x4394 <twi_writeTo+0x11a>
    436c:	d6 d5       	rcall	.+2988   	; 0x4f1a <micros>
    436e:	80 90 0c 05 	lds	r8, 0x050C	; 0x80050c <twi_timeout_us>
    4372:	90 90 0d 05 	lds	r9, 0x050D	; 0x80050d <twi_timeout_us+0x1>
    4376:	a0 90 0e 05 	lds	r10, 0x050E	; 0x80050e <twi_timeout_us+0x2>
    437a:	b0 90 0f 05 	lds	r11, 0x050F	; 0x80050f <twi_timeout_us+0x3>
    437e:	dc 01       	movw	r26, r24
    4380:	cb 01       	movw	r24, r22
    4382:	8c 19       	sub	r24, r12
    4384:	9d 09       	sbc	r25, r13
    4386:	ae 09       	sbc	r26, r14
    4388:	bf 09       	sbc	r27, r15
    438a:	88 16       	cp	r8, r24
    438c:	99 06       	cpc	r9, r25
    438e:	aa 06       	cpc	r10, r26
    4390:	bb 06       	cpc	r11, r27
    4392:	90 f1       	brcs	.+100    	; 0x43f8 <twi_writeTo+0x17e>
    4394:	80 91 bc 00 	lds	r24, 0x00BC	; 0x8000bc <__TEXT_REGION_LENGTH__+0x7c00bc>
    4398:	83 fd       	sbrc	r24, 3
    439a:	d8 cf       	rjmp	.-80     	; 0x434c <twi_writeTo+0xd2>
    439c:	85 ec       	ldi	r24, 0xC5	; 197
    439e:	01 c0       	rjmp	.+2      	; 0x43a2 <twi_writeTo+0x128>
    43a0:	85 ee       	ldi	r24, 0xE5	; 229
    43a2:	80 93 bc 00 	sts	0x00BC, r24	; 0x8000bc <__TEXT_REGION_LENGTH__+0x7c00bc>
    43a6:	b9 d5       	rcall	.+2930   	; 0x4f1a <micros>
    43a8:	6b 01       	movw	r12, r22
    43aa:	7c 01       	movw	r14, r24
    43ac:	11 23       	and	r17, r17
    43ae:	49 f1       	breq	.+82     	; 0x4402 <twi_writeTo+0x188>
    43b0:	80 91 13 05 	lds	r24, 0x0513	; 0x800513 <twi_state>
    43b4:	82 30       	cpi	r24, 0x02	; 2
    43b6:	29 f5       	brne	.+74     	; 0x4402 <twi_writeTo+0x188>
    43b8:	80 91 0c 05 	lds	r24, 0x050C	; 0x80050c <twi_timeout_us>
    43bc:	90 91 0d 05 	lds	r25, 0x050D	; 0x80050d <twi_timeout_us+0x1>
    43c0:	a0 91 0e 05 	lds	r26, 0x050E	; 0x80050e <twi_timeout_us+0x2>
    43c4:	b0 91 0f 05 	lds	r27, 0x050F	; 0x80050f <twi_timeout_us+0x3>
    43c8:	89 2b       	or	r24, r25
    43ca:	8a 2b       	or	r24, r26
    43cc:	8b 2b       	or	r24, r27
    43ce:	71 f3       	breq	.-36     	; 0x43ac <twi_writeTo+0x132>
    43d0:	a4 d5       	rcall	.+2888   	; 0x4f1a <micros>
    43d2:	80 90 0c 05 	lds	r8, 0x050C	; 0x80050c <twi_timeout_us>
    43d6:	90 90 0d 05 	lds	r9, 0x050D	; 0x80050d <twi_timeout_us+0x1>
    43da:	a0 90 0e 05 	lds	r10, 0x050E	; 0x80050e <twi_timeout_us+0x2>
    43de:	b0 90 0f 05 	lds	r11, 0x050F	; 0x80050f <twi_timeout_us+0x3>
    43e2:	dc 01       	movw	r26, r24
    43e4:	cb 01       	movw	r24, r22
    43e6:	8c 19       	sub	r24, r12
    43e8:	9d 09       	sbc	r25, r13
    43ea:	ae 09       	sbc	r26, r14
    43ec:	bf 09       	sbc	r27, r15
    43ee:	88 16       	cp	r8, r24
    43f0:	99 06       	cpc	r9, r25
    43f2:	aa 06       	cpc	r10, r26
    43f4:	bb 06       	cpc	r11, r27
    43f6:	d0 f6       	brcc	.-76     	; 0x43ac <twi_writeTo+0x132>
    43f8:	80 91 0a 05 	lds	r24, 0x050A	; 0x80050a <twi_do_reset_on_timeout>
    43fc:	2a df       	rcall	.-428    	; 0x4252 <twi_handleTimeout>
    43fe:	c5 e0       	ldi	r28, 0x05	; 5
    4400:	13 c0       	rjmp	.+38     	; 0x4428 <twi_writeTo+0x1ae>
    4402:	80 91 a0 04 	lds	r24, 0x04A0	; 0x8004a0 <twi_error>
    4406:	8f 3f       	cpi	r24, 0xFF	; 255
    4408:	79 f0       	breq	.+30     	; 0x4428 <twi_writeTo+0x1ae>
    440a:	80 91 a0 04 	lds	r24, 0x04A0	; 0x8004a0 <twi_error>
    440e:	80 32       	cpi	r24, 0x20	; 32
    4410:	41 f0       	breq	.+16     	; 0x4422 <twi_writeTo+0x1a8>
    4412:	80 91 a0 04 	lds	r24, 0x04A0	; 0x8004a0 <twi_error>
    4416:	80 33       	cpi	r24, 0x30	; 48
    4418:	31 f0       	breq	.+12     	; 0x4426 <twi_writeTo+0x1ac>
    441a:	c4 e0       	ldi	r28, 0x04	; 4
    441c:	05 c0       	rjmp	.+10     	; 0x4428 <twi_writeTo+0x1ae>
    441e:	c1 e0       	ldi	r28, 0x01	; 1
    4420:	03 c0       	rjmp	.+6      	; 0x4428 <twi_writeTo+0x1ae>
    4422:	c2 e0       	ldi	r28, 0x02	; 2
    4424:	01 c0       	rjmp	.+2      	; 0x4428 <twi_writeTo+0x1ae>
    4426:	c3 e0       	ldi	r28, 0x03	; 3
    4428:	8c 2f       	mov	r24, r28
    442a:	df 91       	pop	r29
    442c:	cf 91       	pop	r28
    442e:	1f 91       	pop	r17
    4430:	0f 91       	pop	r16
    4432:	ff 90       	pop	r15
    4434:	ef 90       	pop	r14
    4436:	df 90       	pop	r13
    4438:	cf 90       	pop	r12
    443a:	bf 90       	pop	r11
    443c:	af 90       	pop	r10
    443e:	9f 90       	pop	r9
    4440:	8f 90       	pop	r8
    4442:	7f 90       	pop	r7
    4444:	6f 90       	pop	r6
    4446:	5f 90       	pop	r5
    4448:	4f 90       	pop	r4
    444a:	08 95       	ret

0000444c <twi_stop>:
    444c:	85 ed       	ldi	r24, 0xD5	; 213
    444e:	80 93 bc 00 	sts	0x00BC, r24	; 0x8000bc <__TEXT_REGION_LENGTH__+0x7c00bc>
    4452:	80 91 0c 05 	lds	r24, 0x050C	; 0x80050c <twi_timeout_us>
    4456:	90 91 0d 05 	lds	r25, 0x050D	; 0x80050d <twi_timeout_us+0x1>
    445a:	a0 91 0e 05 	lds	r26, 0x050E	; 0x80050e <twi_timeout_us+0x2>
    445e:	b0 91 0f 05 	lds	r27, 0x050F	; 0x80050f <twi_timeout_us+0x3>
    4462:	07 96       	adiw	r24, 0x07	; 7
    4464:	a1 1d       	adc	r26, r1
    4466:	b1 1d       	adc	r27, r1
    4468:	23 e0       	ldi	r18, 0x03	; 3
    446a:	b6 95       	lsr	r27
    446c:	a7 95       	ror	r26
    446e:	97 95       	ror	r25
    4470:	87 95       	ror	r24
    4472:	2a 95       	dec	r18
    4474:	d1 f7       	brne	.-12     	; 0x446a <twi_stop+0x1e>
    4476:	20 91 bc 00 	lds	r18, 0x00BC	; 0x8000bc <__TEXT_REGION_LENGTH__+0x7c00bc>
    447a:	24 ff       	sbrs	r18, 4
    447c:	1b c0       	rjmp	.+54     	; 0x44b4 <twi_stop+0x68>
    447e:	40 91 0c 05 	lds	r20, 0x050C	; 0x80050c <twi_timeout_us>
    4482:	50 91 0d 05 	lds	r21, 0x050D	; 0x80050d <twi_timeout_us+0x1>
    4486:	60 91 0e 05 	lds	r22, 0x050E	; 0x80050e <twi_timeout_us+0x2>
    448a:	70 91 0f 05 	lds	r23, 0x050F	; 0x80050f <twi_timeout_us+0x3>
    448e:	45 2b       	or	r20, r21
    4490:	46 2b       	or	r20, r22
    4492:	47 2b       	or	r20, r23
    4494:	81 f3       	breq	.-32     	; 0x4476 <twi_stop+0x2a>
    4496:	00 97       	sbiw	r24, 0x00	; 0
    4498:	a1 05       	cpc	r26, r1
    449a:	b1 05       	cpc	r27, r1
    449c:	41 f0       	breq	.+16     	; 0x44ae <twi_stop+0x62>
    449e:	25 e3       	ldi	r18, 0x35	; 53
    44a0:	2a 95       	dec	r18
    44a2:	f1 f7       	brne	.-4      	; 0x44a0 <twi_stop+0x54>
    44a4:	00 00       	nop
    44a6:	01 97       	sbiw	r24, 0x01	; 1
    44a8:	a1 09       	sbc	r26, r1
    44aa:	b1 09       	sbc	r27, r1
    44ac:	e4 cf       	rjmp	.-56     	; 0x4476 <twi_stop+0x2a>
    44ae:	80 91 0a 05 	lds	r24, 0x050A	; 0x80050a <twi_do_reset_on_timeout>
    44b2:	cf ce       	rjmp	.-610    	; 0x4252 <twi_handleTimeout>
    44b4:	10 92 13 05 	sts	0x0513, r1	; 0x800513 <twi_state>
    44b8:	08 95       	ret

000044ba <__vector_39>:
    44ba:	1f 92       	push	r1
    44bc:	0f 92       	push	r0
    44be:	0f b6       	in	r0, 0x3f	; 63
    44c0:	0f 92       	push	r0
    44c2:	11 24       	eor	r1, r1
    44c4:	0b b6       	in	r0, 0x3b	; 59
    44c6:	0f 92       	push	r0
    44c8:	2f 93       	push	r18
    44ca:	3f 93       	push	r19
    44cc:	4f 93       	push	r20
    44ce:	5f 93       	push	r21
    44d0:	6f 93       	push	r22
    44d2:	7f 93       	push	r23
    44d4:	8f 93       	push	r24
    44d6:	9f 93       	push	r25
    44d8:	af 93       	push	r26
    44da:	bf 93       	push	r27
    44dc:	ef 93       	push	r30
    44de:	ff 93       	push	r31
    44e0:	80 91 b9 00 	lds	r24, 0x00B9	; 0x8000b9 <__TEXT_REGION_LENGTH__+0x7c00b9>
    44e4:	88 7f       	andi	r24, 0xF8	; 248
    44e6:	80 36       	cpi	r24, 0x60	; 96
    44e8:	09 f4       	brne	.+2      	; 0x44ec <__vector_39+0x32>
    44ea:	9d c0       	rjmp	.+314    	; 0x4626 <__vector_39+0x16c>
    44ec:	70 f5       	brcc	.+92     	; 0x454a <__vector_39+0x90>
    44ee:	88 32       	cpi	r24, 0x28	; 40
    44f0:	09 f4       	brne	.+2      	; 0x44f4 <__vector_39+0x3a>
    44f2:	5c c0       	rjmp	.+184    	; 0x45ac <__vector_39+0xf2>
    44f4:	90 f4       	brcc	.+36     	; 0x451a <__vector_39+0x60>
    44f6:	80 31       	cpi	r24, 0x10	; 16
    44f8:	09 f4       	brne	.+2      	; 0x44fc <__vector_39+0x42>
    44fa:	55 c0       	rjmp	.+170    	; 0x45a6 <__vector_39+0xec>
    44fc:	38 f4       	brcc	.+14     	; 0x450c <__vector_39+0x52>
    44fe:	88 23       	and	r24, r24
    4500:	09 f4       	brne	.+2      	; 0x4504 <__vector_39+0x4a>
    4502:	f3 c0       	rjmp	.+486    	; 0x46ea <__vector_39+0x230>
    4504:	88 30       	cpi	r24, 0x08	; 8
    4506:	09 f4       	brne	.+2      	; 0x450a <__vector_39+0x50>
    4508:	4e c0       	rjmp	.+156    	; 0x45a6 <__vector_39+0xec>
    450a:	f2 c0       	rjmp	.+484    	; 0x46f0 <__vector_39+0x236>
    450c:	88 31       	cpi	r24, 0x18	; 24
    450e:	09 f4       	brne	.+2      	; 0x4512 <__vector_39+0x58>
    4510:	4d c0       	rjmp	.+154    	; 0x45ac <__vector_39+0xf2>
    4512:	80 32       	cpi	r24, 0x20	; 32
    4514:	09 f4       	brne	.+2      	; 0x4518 <__vector_39+0x5e>
    4516:	5e c0       	rjmp	.+188    	; 0x45d4 <__vector_39+0x11a>
    4518:	eb c0       	rjmp	.+470    	; 0x46f0 <__vector_39+0x236>
    451a:	80 34       	cpi	r24, 0x40	; 64
    451c:	09 f4       	brne	.+2      	; 0x4520 <__vector_39+0x66>
    451e:	69 c0       	rjmp	.+210    	; 0x45f2 <__vector_39+0x138>
    4520:	50 f4       	brcc	.+20     	; 0x4536 <__vector_39+0x7c>
    4522:	80 33       	cpi	r24, 0x30	; 48
    4524:	09 f4       	brne	.+2      	; 0x4528 <__vector_39+0x6e>
    4526:	56 c0       	rjmp	.+172    	; 0x45d4 <__vector_39+0x11a>
    4528:	88 33       	cpi	r24, 0x38	; 56
    452a:	09 f0       	breq	.+2      	; 0x452e <__vector_39+0x74>
    452c:	e1 c0       	rjmp	.+450    	; 0x46f0 <__vector_39+0x236>
    452e:	80 93 a0 04 	sts	0x04A0, r24	; 0x8004a0 <twi_error>
    4532:	89 de       	rcall	.-750    	; 0x4246 <twi_releaseBus>
    4534:	dd c0       	rjmp	.+442    	; 0x46f0 <__vector_39+0x236>
    4536:	80 35       	cpi	r24, 0x50	; 80
    4538:	09 f4       	brne	.+2      	; 0x453c <__vector_39+0x82>
    453a:	4f c0       	rjmp	.+158    	; 0x45da <__vector_39+0x120>
    453c:	88 35       	cpi	r24, 0x58	; 88
    453e:	09 f4       	brne	.+2      	; 0x4542 <__vector_39+0x88>
    4540:	5d c0       	rjmp	.+186    	; 0x45fc <__vector_39+0x142>
    4542:	88 34       	cpi	r24, 0x48	; 72
    4544:	09 f0       	breq	.+2      	; 0x4548 <__vector_39+0x8e>
    4546:	d4 c0       	rjmp	.+424    	; 0x46f0 <__vector_39+0x236>
    4548:	d2 c0       	rjmp	.+420    	; 0x46ee <__vector_39+0x234>
    454a:	88 39       	cpi	r24, 0x98	; 152
    454c:	09 f4       	brne	.+2      	; 0x4550 <__vector_39+0x96>
    454e:	c3 c0       	rjmp	.+390    	; 0x46d6 <__vector_39+0x21c>
    4550:	a8 f4       	brcc	.+42     	; 0x457c <__vector_39+0xc2>
    4552:	88 37       	cpi	r24, 0x78	; 120
    4554:	09 f4       	brne	.+2      	; 0x4558 <__vector_39+0x9e>
    4556:	67 c0       	rjmp	.+206    	; 0x4626 <__vector_39+0x16c>
    4558:	38 f4       	brcc	.+14     	; 0x4568 <__vector_39+0xae>
    455a:	88 36       	cpi	r24, 0x68	; 104
    455c:	09 f4       	brne	.+2      	; 0x4560 <__vector_39+0xa6>
    455e:	63 c0       	rjmp	.+198    	; 0x4626 <__vector_39+0x16c>
    4560:	80 37       	cpi	r24, 0x70	; 112
    4562:	09 f4       	brne	.+2      	; 0x4566 <__vector_39+0xac>
    4564:	60 c0       	rjmp	.+192    	; 0x4626 <__vector_39+0x16c>
    4566:	c4 c0       	rjmp	.+392    	; 0x46f0 <__vector_39+0x236>
    4568:	88 38       	cpi	r24, 0x88	; 136
    456a:	09 f4       	brne	.+2      	; 0x456e <__vector_39+0xb4>
    456c:	b4 c0       	rjmp	.+360    	; 0x46d6 <__vector_39+0x21c>
    456e:	80 39       	cpi	r24, 0x90	; 144
    4570:	09 f4       	brne	.+2      	; 0x4574 <__vector_39+0xba>
    4572:	5f c0       	rjmp	.+190    	; 0x4632 <__vector_39+0x178>
    4574:	80 38       	cpi	r24, 0x80	; 128
    4576:	09 f0       	breq	.+2      	; 0x457a <__vector_39+0xc0>
    4578:	bb c0       	rjmp	.+374    	; 0x46f0 <__vector_39+0x236>
    457a:	5b c0       	rjmp	.+182    	; 0x4632 <__vector_39+0x178>
    457c:	80 3b       	cpi	r24, 0xB0	; 176
    457e:	09 f4       	brne	.+2      	; 0x4582 <__vector_39+0xc8>
    4580:	82 c0       	rjmp	.+260    	; 0x4686 <__vector_39+0x1cc>
    4582:	38 f4       	brcc	.+14     	; 0x4592 <__vector_39+0xd8>
    4584:	80 3a       	cpi	r24, 0xA0	; 160
    4586:	09 f4       	brne	.+2      	; 0x458a <__vector_39+0xd0>
    4588:	66 c0       	rjmp	.+204    	; 0x4656 <__vector_39+0x19c>
    458a:	88 3a       	cpi	r24, 0xA8	; 168
    458c:	09 f4       	brne	.+2      	; 0x4590 <__vector_39+0xd6>
    458e:	7b c0       	rjmp	.+246    	; 0x4686 <__vector_39+0x1cc>
    4590:	af c0       	rjmp	.+350    	; 0x46f0 <__vector_39+0x236>
    4592:	80 3c       	cpi	r24, 0xC0	; 192
    4594:	09 f4       	brne	.+2      	; 0x4598 <__vector_39+0xde>
    4596:	a3 c0       	rjmp	.+326    	; 0x46de <__vector_39+0x224>
    4598:	88 3c       	cpi	r24, 0xC8	; 200
    459a:	09 f4       	brne	.+2      	; 0x459e <__vector_39+0xe4>
    459c:	a0 c0       	rjmp	.+320    	; 0x46de <__vector_39+0x224>
    459e:	88 3b       	cpi	r24, 0xB8	; 184
    45a0:	09 f4       	brne	.+2      	; 0x45a4 <__vector_39+0xea>
    45a2:	86 c0       	rjmp	.+268    	; 0x46b0 <__vector_39+0x1f6>
    45a4:	a5 c0       	rjmp	.+330    	; 0x46f0 <__vector_39+0x236>
    45a6:	80 91 12 05 	lds	r24, 0x0512	; 0x800512 <twi_slarw>
    45aa:	10 c0       	rjmp	.+32     	; 0x45cc <__vector_39+0x112>
    45ac:	90 91 e5 04 	lds	r25, 0x04E5	; 0x8004e5 <twi_masterBufferIndex>
    45b0:	80 91 e4 04 	lds	r24, 0x04E4	; 0x8004e4 <twi_masterBufferLength>
    45b4:	98 17       	cp	r25, r24
    45b6:	70 f5       	brcc	.+92     	; 0x4614 <__vector_39+0x15a>
    45b8:	e0 91 e5 04 	lds	r30, 0x04E5	; 0x8004e5 <twi_masterBufferIndex>
    45bc:	81 e0       	ldi	r24, 0x01	; 1
    45be:	8e 0f       	add	r24, r30
    45c0:	80 93 e5 04 	sts	0x04E5, r24	; 0x8004e5 <twi_masterBufferIndex>
    45c4:	f0 e0       	ldi	r31, 0x00	; 0
    45c6:	ea 51       	subi	r30, 0x1A	; 26
    45c8:	fb 4f       	sbci	r31, 0xFB	; 251
    45ca:	80 81       	ld	r24, Z
    45cc:	80 93 bb 00 	sts	0x00BB, r24	; 0x8000bb <__TEXT_REGION_LENGTH__+0x7c00bb>
    45d0:	85 ec       	ldi	r24, 0xC5	; 197
    45d2:	82 c0       	rjmp	.+260    	; 0x46d8 <__vector_39+0x21e>
    45d4:	80 93 a0 04 	sts	0x04A0, r24	; 0x8004a0 <twi_error>
    45d8:	8a c0       	rjmp	.+276    	; 0x46ee <__vector_39+0x234>
    45da:	e0 91 e5 04 	lds	r30, 0x04E5	; 0x8004e5 <twi_masterBufferIndex>
    45de:	81 e0       	ldi	r24, 0x01	; 1
    45e0:	8e 0f       	add	r24, r30
    45e2:	80 93 e5 04 	sts	0x04E5, r24	; 0x8004e5 <twi_masterBufferIndex>
    45e6:	80 91 bb 00 	lds	r24, 0x00BB	; 0x8000bb <__TEXT_REGION_LENGTH__+0x7c00bb>
    45ea:	f0 e0       	ldi	r31, 0x00	; 0
    45ec:	ea 51       	subi	r30, 0x1A	; 26
    45ee:	fb 4f       	sbci	r31, 0xFB	; 251
    45f0:	80 83       	st	Z, r24
    45f2:	90 91 e5 04 	lds	r25, 0x04E5	; 0x8004e5 <twi_masterBufferIndex>
    45f6:	80 91 e4 04 	lds	r24, 0x04E4	; 0x8004e4 <twi_masterBufferLength>
    45fa:	6a c0       	rjmp	.+212    	; 0x46d0 <__vector_39+0x216>
    45fc:	e0 91 e5 04 	lds	r30, 0x04E5	; 0x8004e5 <twi_masterBufferIndex>
    4600:	81 e0       	ldi	r24, 0x01	; 1
    4602:	8e 0f       	add	r24, r30
    4604:	80 93 e5 04 	sts	0x04E5, r24	; 0x8004e5 <twi_masterBufferIndex>
    4608:	80 91 bb 00 	lds	r24, 0x00BB	; 0x8000bb <__TEXT_REGION_LENGTH__+0x7c00bb>
    460c:	f0 e0       	ldi	r31, 0x00	; 0
    460e:	ea 51       	subi	r30, 0x1A	; 26
    4610:	fb 4f       	sbci	r31, 0xFB	; 251
    4612:	80 83       	st	Z, r24
    4614:	80 91 11 05 	lds	r24, 0x0511	; 0x800511 <twi_sendStop>
    4618:	81 11       	cpse	r24, r1
    461a:	69 c0       	rjmp	.+210    	; 0x46ee <__vector_39+0x234>
    461c:	81 e0       	ldi	r24, 0x01	; 1
    461e:	80 93 10 05 	sts	0x0510, r24	; 0x800510 <twi_inRepStart>
    4622:	84 ea       	ldi	r24, 0xA4	; 164
    4624:	5d c0       	rjmp	.+186    	; 0x46e0 <__vector_39+0x226>
    4626:	83 e0       	ldi	r24, 0x03	; 3
    4628:	80 93 13 05 	sts	0x0513, r24	; 0x800513 <twi_state>
    462c:	10 92 a1 04 	sts	0x04A1, r1	; 0x8004a1 <twi_rxBufferIndex>
    4630:	cf cf       	rjmp	.-98     	; 0x45d0 <__vector_39+0x116>
    4632:	80 91 a1 04 	lds	r24, 0x04A1	; 0x8004a1 <twi_rxBufferIndex>
    4636:	80 32       	cpi	r24, 0x20	; 32
    4638:	08 f0       	brcs	.+2      	; 0x463c <__vector_39+0x182>
    463a:	4d c0       	rjmp	.+154    	; 0x46d6 <__vector_39+0x21c>
    463c:	e0 91 a1 04 	lds	r30, 0x04A1	; 0x8004a1 <twi_rxBufferIndex>
    4640:	81 e0       	ldi	r24, 0x01	; 1
    4642:	8e 0f       	add	r24, r30
    4644:	80 93 a1 04 	sts	0x04A1, r24	; 0x8004a1 <twi_rxBufferIndex>
    4648:	80 91 bb 00 	lds	r24, 0x00BB	; 0x8000bb <__TEXT_REGION_LENGTH__+0x7c00bb>
    464c:	f0 e0       	ldi	r31, 0x00	; 0
    464e:	ee 55       	subi	r30, 0x5E	; 94
    4650:	fb 4f       	sbci	r31, 0xFB	; 251
    4652:	80 83       	st	Z, r24
    4654:	bd cf       	rjmp	.-134    	; 0x45d0 <__vector_39+0x116>
    4656:	f7 dd       	rcall	.-1042   	; 0x4246 <twi_releaseBus>
    4658:	80 91 a1 04 	lds	r24, 0x04A1	; 0x8004a1 <twi_rxBufferIndex>
    465c:	80 32       	cpi	r24, 0x20	; 32
    465e:	30 f4       	brcc	.+12     	; 0x466c <__vector_39+0x1b2>
    4660:	e0 91 a1 04 	lds	r30, 0x04A1	; 0x8004a1 <twi_rxBufferIndex>
    4664:	f0 e0       	ldi	r31, 0x00	; 0
    4666:	ee 55       	subi	r30, 0x5E	; 94
    4668:	fb 4f       	sbci	r31, 0xFB	; 251
    466a:	10 82       	st	Z, r1
    466c:	60 91 a1 04 	lds	r22, 0x04A1	; 0x8004a1 <twi_rxBufferIndex>
    4670:	70 e0       	ldi	r23, 0x00	; 0
    4672:	e0 91 06 05 	lds	r30, 0x0506	; 0x800506 <twi_onSlaveReceive>
    4676:	f0 91 07 05 	lds	r31, 0x0507	; 0x800507 <twi_onSlaveReceive+0x1>
    467a:	82 ea       	ldi	r24, 0xA2	; 162
    467c:	94 e0       	ldi	r25, 0x04	; 4
    467e:	19 95       	eicall
    4680:	10 92 a1 04 	sts	0x04A1, r1	; 0x8004a1 <twi_rxBufferIndex>
    4684:	35 c0       	rjmp	.+106    	; 0x46f0 <__vector_39+0x236>
    4686:	84 e0       	ldi	r24, 0x04	; 4
    4688:	80 93 13 05 	sts	0x0513, r24	; 0x800513 <twi_state>
    468c:	10 92 c3 04 	sts	0x04C3, r1	; 0x8004c3 <twi_txBufferIndex>
    4690:	10 92 c2 04 	sts	0x04C2, r1	; 0x8004c2 <twi_txBufferLength>
    4694:	e0 91 08 05 	lds	r30, 0x0508	; 0x800508 <twi_onSlaveTransmit>
    4698:	f0 91 09 05 	lds	r31, 0x0509	; 0x800509 <twi_onSlaveTransmit+0x1>
    469c:	19 95       	eicall
    469e:	80 91 c2 04 	lds	r24, 0x04C2	; 0x8004c2 <twi_txBufferLength>
    46a2:	81 11       	cpse	r24, r1
    46a4:	05 c0       	rjmp	.+10     	; 0x46b0 <__vector_39+0x1f6>
    46a6:	81 e0       	ldi	r24, 0x01	; 1
    46a8:	80 93 c2 04 	sts	0x04C2, r24	; 0x8004c2 <twi_txBufferLength>
    46ac:	10 92 c4 04 	sts	0x04C4, r1	; 0x8004c4 <twi_txBuffer>
    46b0:	e0 91 c3 04 	lds	r30, 0x04C3	; 0x8004c3 <twi_txBufferIndex>
    46b4:	81 e0       	ldi	r24, 0x01	; 1
    46b6:	8e 0f       	add	r24, r30
    46b8:	80 93 c3 04 	sts	0x04C3, r24	; 0x8004c3 <twi_txBufferIndex>
    46bc:	f0 e0       	ldi	r31, 0x00	; 0
    46be:	ec 53       	subi	r30, 0x3C	; 60
    46c0:	fb 4f       	sbci	r31, 0xFB	; 251
    46c2:	80 81       	ld	r24, Z
    46c4:	80 93 bb 00 	sts	0x00BB, r24	; 0x8000bb <__TEXT_REGION_LENGTH__+0x7c00bb>
    46c8:	90 91 c3 04 	lds	r25, 0x04C3	; 0x8004c3 <twi_txBufferIndex>
    46cc:	80 91 c2 04 	lds	r24, 0x04C2	; 0x8004c2 <twi_txBufferLength>
    46d0:	98 17       	cp	r25, r24
    46d2:	08 f4       	brcc	.+2      	; 0x46d6 <__vector_39+0x21c>
    46d4:	7d cf       	rjmp	.-262    	; 0x45d0 <__vector_39+0x116>
    46d6:	85 e8       	ldi	r24, 0x85	; 133
    46d8:	80 93 bc 00 	sts	0x00BC, r24	; 0x8000bc <__TEXT_REGION_LENGTH__+0x7c00bc>
    46dc:	09 c0       	rjmp	.+18     	; 0x46f0 <__vector_39+0x236>
    46de:	85 ec       	ldi	r24, 0xC5	; 197
    46e0:	80 93 bc 00 	sts	0x00BC, r24	; 0x8000bc <__TEXT_REGION_LENGTH__+0x7c00bc>
    46e4:	10 92 13 05 	sts	0x0513, r1	; 0x800513 <twi_state>
    46e8:	03 c0       	rjmp	.+6      	; 0x46f0 <__vector_39+0x236>
    46ea:	10 92 a0 04 	sts	0x04A0, r1	; 0x8004a0 <twi_error>
    46ee:	ae de       	rcall	.-676    	; 0x444c <twi_stop>
    46f0:	ff 91       	pop	r31
    46f2:	ef 91       	pop	r30
    46f4:	bf 91       	pop	r27
    46f6:	af 91       	pop	r26
    46f8:	9f 91       	pop	r25
    46fa:	8f 91       	pop	r24
    46fc:	7f 91       	pop	r23
    46fe:	6f 91       	pop	r22
    4700:	5f 91       	pop	r21
    4702:	4f 91       	pop	r20
    4704:	3f 91       	pop	r19
    4706:	2f 91       	pop	r18
    4708:	0f 90       	pop	r0
    470a:	0b be       	out	0x3b, r0	; 59
    470c:	0f 90       	pop	r0
    470e:	0f be       	out	0x3f, r0	; 63
    4710:	0f 90       	pop	r0
    4712:	1f 90       	pop	r1
    4714:	18 95       	reti

00004716 <_ZN7TwoWire9availableEv>:
    4716:	80 91 48 05 	lds	r24, 0x0548	; 0x800548 <_ZN7TwoWire14rxBufferLengthE>
    471a:	90 e0       	ldi	r25, 0x00	; 0
    471c:	20 91 49 05 	lds	r18, 0x0549	; 0x800549 <_ZN7TwoWire13rxBufferIndexE>
    4720:	82 1b       	sub	r24, r18
    4722:	91 09       	sbc	r25, r1
    4724:	08 95       	ret

00004726 <_ZN7TwoWire4readEv>:
    4726:	90 91 49 05 	lds	r25, 0x0549	; 0x800549 <_ZN7TwoWire13rxBufferIndexE>
    472a:	80 91 48 05 	lds	r24, 0x0548	; 0x800548 <_ZN7TwoWire14rxBufferLengthE>
    472e:	98 17       	cp	r25, r24
    4730:	50 f4       	brcc	.+20     	; 0x4746 <_ZN7TwoWire4readEv+0x20>
    4732:	e9 2f       	mov	r30, r25
    4734:	f0 e0       	ldi	r31, 0x00	; 0
    4736:	e6 5b       	subi	r30, 0xB6	; 182
    4738:	fa 4f       	sbci	r31, 0xFA	; 250
    473a:	20 81       	ld	r18, Z
    473c:	30 e0       	ldi	r19, 0x00	; 0
    473e:	9f 5f       	subi	r25, 0xFF	; 255
    4740:	90 93 49 05 	sts	0x0549, r25	; 0x800549 <_ZN7TwoWire13rxBufferIndexE>
    4744:	02 c0       	rjmp	.+4      	; 0x474a <_ZN7TwoWire4readEv+0x24>
    4746:	2f ef       	ldi	r18, 0xFF	; 255
    4748:	3f ef       	ldi	r19, 0xFF	; 255
    474a:	c9 01       	movw	r24, r18
    474c:	08 95       	ret

0000474e <_ZN7TwoWire4peekEv>:
    474e:	e0 91 49 05 	lds	r30, 0x0549	; 0x800549 <_ZN7TwoWire13rxBufferIndexE>
    4752:	80 91 48 05 	lds	r24, 0x0548	; 0x800548 <_ZN7TwoWire14rxBufferLengthE>
    4756:	e8 17       	cp	r30, r24
    4758:	30 f4       	brcc	.+12     	; 0x4766 <_ZN7TwoWire4peekEv+0x18>
    475a:	f0 e0       	ldi	r31, 0x00	; 0
    475c:	e6 5b       	subi	r30, 0xB6	; 182
    475e:	fa 4f       	sbci	r31, 0xFA	; 250
    4760:	80 81       	ld	r24, Z
    4762:	90 e0       	ldi	r25, 0x00	; 0
    4764:	08 95       	ret
    4766:	8f ef       	ldi	r24, 0xFF	; 255
    4768:	9f ef       	ldi	r25, 0xFF	; 255
    476a:	08 95       	ret

0000476c <_ZN7TwoWire5flushEv>:
    476c:	08 95       	ret

0000476e <_ZN7TwoWire16onReceiveServiceEPhi>:
    476e:	cf 93       	push	r28
    4770:	df 93       	push	r29
    4772:	ec 01       	movw	r28, r24
    4774:	e0 91 20 05 	lds	r30, 0x0520	; 0x800520 <_ZN7TwoWire14user_onReceiveE>
    4778:	f0 91 21 05 	lds	r31, 0x0521	; 0x800521 <_ZN7TwoWire14user_onReceiveE+0x1>
    477c:	30 97       	sbiw	r30, 0x00	; 0
    477e:	f1 f0       	breq	.+60     	; 0x47bc <_ZN7TwoWire16onReceiveServiceEPhi+0x4e>
    4780:	90 91 49 05 	lds	r25, 0x0549	; 0x800549 <_ZN7TwoWire13rxBufferIndexE>
    4784:	80 91 48 05 	lds	r24, 0x0548	; 0x800548 <_ZN7TwoWire14rxBufferLengthE>
    4788:	98 17       	cp	r25, r24
    478a:	c0 f0       	brcs	.+48     	; 0x47bc <_ZN7TwoWire16onReceiveServiceEPhi+0x4e>
    478c:	90 e0       	ldi	r25, 0x00	; 0
    478e:	29 2f       	mov	r18, r25
    4790:	30 e0       	ldi	r19, 0x00	; 0
    4792:	26 17       	cp	r18, r22
    4794:	37 07       	cpc	r19, r23
    4796:	54 f4       	brge	.+20     	; 0x47ac <_ZN7TwoWire16onReceiveServiceEPhi+0x3e>
    4798:	de 01       	movw	r26, r28
    479a:	a2 0f       	add	r26, r18
    479c:	b3 1f       	adc	r27, r19
    479e:	4c 91       	ld	r20, X
    47a0:	d9 01       	movw	r26, r18
    47a2:	a6 5b       	subi	r26, 0xB6	; 182
    47a4:	ba 4f       	sbci	r27, 0xFA	; 250
    47a6:	4c 93       	st	X, r20
    47a8:	9f 5f       	subi	r25, 0xFF	; 255
    47aa:	f1 cf       	rjmp	.-30     	; 0x478e <_ZN7TwoWire16onReceiveServiceEPhi+0x20>
    47ac:	10 92 49 05 	sts	0x0549, r1	; 0x800549 <_ZN7TwoWire13rxBufferIndexE>
    47b0:	60 93 48 05 	sts	0x0548, r22	; 0x800548 <_ZN7TwoWire14rxBufferLengthE>
    47b4:	cb 01       	movw	r24, r22
    47b6:	df 91       	pop	r29
    47b8:	cf 91       	pop	r28
    47ba:	19 94       	eijmp
    47bc:	df 91       	pop	r29
    47be:	cf 91       	pop	r28
    47c0:	08 95       	ret

000047c2 <_ZN7TwoWire16onRequestServiceEv>:
    47c2:	e0 91 22 05 	lds	r30, 0x0522	; 0x800522 <_ZN7TwoWire14user_onRequestE>
    47c6:	f0 91 23 05 	lds	r31, 0x0523	; 0x800523 <_ZN7TwoWire14user_onRequestE+0x1>
    47ca:	30 97       	sbiw	r30, 0x00	; 0
    47cc:	29 f0       	breq	.+10     	; 0x47d8 <_ZN7TwoWire16onRequestServiceEv+0x16>
    47ce:	10 92 26 05 	sts	0x0526, r1	; 0x800526 <_ZN7TwoWire13txBufferIndexE>
    47d2:	10 92 25 05 	sts	0x0525, r1	; 0x800525 <_ZN7TwoWire14txBufferLengthE>
    47d6:	19 94       	eijmp
    47d8:	08 95       	ret

000047da <_ZN7TwoWire5writeEPKhj>:
    47da:	cf 92       	push	r12
    47dc:	df 92       	push	r13
    47de:	ef 92       	push	r14
    47e0:	ff 92       	push	r15
    47e2:	0f 93       	push	r16
    47e4:	1f 93       	push	r17
    47e6:	cf 93       	push	r28
    47e8:	df 93       	push	r29
    47ea:	7c 01       	movw	r14, r24
    47ec:	cb 01       	movw	r24, r22
    47ee:	8a 01       	movw	r16, r20
    47f0:	20 91 24 05 	lds	r18, 0x0524	; 0x800524 <_ZN7TwoWire12transmittingE>
    47f4:	22 23       	and	r18, r18
    47f6:	89 f0       	breq	.+34     	; 0x481a <_ZN7TwoWire5writeEPKhj+0x40>
    47f8:	eb 01       	movw	r28, r22
    47fa:	6b 01       	movw	r12, r22
    47fc:	c4 0e       	add	r12, r20
    47fe:	d5 1e       	adc	r13, r21
    4800:	cc 15       	cp	r28, r12
    4802:	dd 05       	cpc	r29, r13
    4804:	61 f0       	breq	.+24     	; 0x481e <_ZN7TwoWire5writeEPKhj+0x44>
    4806:	69 91       	ld	r22, Y+
    4808:	d7 01       	movw	r26, r14
    480a:	ed 91       	ld	r30, X+
    480c:	fc 91       	ld	r31, X
    480e:	01 90       	ld	r0, Z+
    4810:	f0 81       	ld	r31, Z
    4812:	e0 2d       	mov	r30, r0
    4814:	c7 01       	movw	r24, r14
    4816:	19 95       	eicall
    4818:	f3 cf       	rjmp	.-26     	; 0x4800 <_ZN7TwoWire5writeEPKhj+0x26>
    481a:	64 2f       	mov	r22, r20
    481c:	e2 dc       	rcall	.-1596   	; 0x41e2 <twi_transmit>
    481e:	c8 01       	movw	r24, r16
    4820:	df 91       	pop	r29
    4822:	cf 91       	pop	r28
    4824:	1f 91       	pop	r17
    4826:	0f 91       	pop	r16
    4828:	ff 90       	pop	r15
    482a:	ef 90       	pop	r14
    482c:	df 90       	pop	r13
    482e:	cf 90       	pop	r12
    4830:	08 95       	ret

00004832 <_ZN7TwoWire5writeEh>:
    4832:	cf 93       	push	r28
    4834:	df 93       	push	r29
    4836:	1f 92       	push	r1
    4838:	cd b7       	in	r28, 0x3d	; 61
    483a:	de b7       	in	r29, 0x3e	; 62
    483c:	69 83       	std	Y+1, r22	; 0x01
    483e:	20 91 24 05 	lds	r18, 0x0524	; 0x800524 <_ZN7TwoWire12transmittingE>
    4842:	22 23       	and	r18, r18
    4844:	d1 f0       	breq	.+52     	; 0x487a <_ZN7TwoWire5writeEh+0x48>
    4846:	20 91 25 05 	lds	r18, 0x0525	; 0x800525 <_ZN7TwoWire14txBufferLengthE>
    484a:	20 32       	cpi	r18, 0x20	; 32
    484c:	40 f0       	brcs	.+16     	; 0x485e <_ZN7TwoWire5writeEh+0x2c>
    484e:	21 e0       	ldi	r18, 0x01	; 1
    4850:	30 e0       	ldi	r19, 0x00	; 0
    4852:	fc 01       	movw	r30, r24
    4854:	33 83       	std	Z+3, r19	; 0x03
    4856:	22 83       	std	Z+2, r18	; 0x02
    4858:	80 e0       	ldi	r24, 0x00	; 0
    485a:	90 e0       	ldi	r25, 0x00	; 0
    485c:	14 c0       	rjmp	.+40     	; 0x4886 <_ZN7TwoWire5writeEh+0x54>
    485e:	80 91 26 05 	lds	r24, 0x0526	; 0x800526 <_ZN7TwoWire13txBufferIndexE>
    4862:	e8 2f       	mov	r30, r24
    4864:	f0 e0       	ldi	r31, 0x00	; 0
    4866:	e9 5d       	subi	r30, 0xD9	; 217
    4868:	fa 4f       	sbci	r31, 0xFA	; 250
    486a:	99 81       	ldd	r25, Y+1	; 0x01
    486c:	90 83       	st	Z, r25
    486e:	8f 5f       	subi	r24, 0xFF	; 255
    4870:	80 93 26 05 	sts	0x0526, r24	; 0x800526 <_ZN7TwoWire13txBufferIndexE>
    4874:	80 93 25 05 	sts	0x0525, r24	; 0x800525 <_ZN7TwoWire14txBufferLengthE>
    4878:	04 c0       	rjmp	.+8      	; 0x4882 <_ZN7TwoWire5writeEh+0x50>
    487a:	61 e0       	ldi	r22, 0x01	; 1
    487c:	ce 01       	movw	r24, r28
    487e:	01 96       	adiw	r24, 0x01	; 1
    4880:	b0 dc       	rcall	.-1696   	; 0x41e2 <twi_transmit>
    4882:	81 e0       	ldi	r24, 0x01	; 1
    4884:	90 e0       	ldi	r25, 0x00	; 0
    4886:	0f 90       	pop	r0
    4888:	df 91       	pop	r29
    488a:	cf 91       	pop	r28
    488c:	08 95       	ret

0000488e <_ZN7TwoWireC1Ev>:
    488e:	fc 01       	movw	r30, r24
    4890:	13 82       	std	Z+3, r1	; 0x03
    4892:	12 82       	std	Z+2, r1	; 0x02
    4894:	88 ee       	ldi	r24, 0xE8	; 232
    4896:	93 e0       	ldi	r25, 0x03	; 3
    4898:	a0 e0       	ldi	r26, 0x00	; 0
    489a:	b0 e0       	ldi	r27, 0x00	; 0
    489c:	84 83       	std	Z+4, r24	; 0x04
    489e:	95 83       	std	Z+5, r25	; 0x05
    48a0:	a6 83       	std	Z+6, r26	; 0x06
    48a2:	b7 83       	std	Z+7, r27	; 0x07
    48a4:	87 e0       	ldi	r24, 0x07	; 7
    48a6:	93 e0       	ldi	r25, 0x03	; 3
    48a8:	91 83       	std	Z+1, r25	; 0x01
    48aa:	80 83       	st	Z, r24
    48ac:	08 95       	ret

000048ae <_ZN7TwoWire5beginEv>:
    48ae:	10 92 49 05 	sts	0x0549, r1	; 0x800549 <_ZN7TwoWire13rxBufferIndexE>
    48b2:	10 92 48 05 	sts	0x0548, r1	; 0x800548 <_ZN7TwoWire14rxBufferLengthE>
    48b6:	10 92 26 05 	sts	0x0526, r1	; 0x800526 <_ZN7TwoWire13txBufferIndexE>
    48ba:	10 92 25 05 	sts	0x0525, r1	; 0x800525 <_ZN7TwoWire14txBufferLengthE>
    48be:	52 dc       	rcall	.-1884   	; 0x4164 <twi_init>
    48c0:	81 ee       	ldi	r24, 0xE1	; 225
    48c2:	93 e2       	ldi	r25, 0x23	; 35
    48c4:	bb dc       	rcall	.-1674   	; 0x423c <twi_attachSlaveTxEvent>
    48c6:	87 eb       	ldi	r24, 0xB7	; 183
    48c8:	93 e2       	ldi	r25, 0x23	; 35
    48ca:	b3 cc       	rjmp	.-1690   	; 0x4232 <twi_attachSlaveRxEvent>

000048cc <_ZN7TwoWire8setClockEm>:
    48cc:	cb 01       	movw	r24, r22
    48ce:	ba 01       	movw	r22, r20
    48d0:	74 cc       	rjmp	.-1816   	; 0x41ba <twi_setFrequency>

000048d2 <_ZN7TwoWire17beginTransmissionEh>:
    48d2:	81 e0       	ldi	r24, 0x01	; 1
    48d4:	80 93 24 05 	sts	0x0524, r24	; 0x800524 <_ZN7TwoWire12transmittingE>
    48d8:	60 93 47 05 	sts	0x0547, r22	; 0x800547 <_ZN7TwoWire9txAddressE>
    48dc:	10 92 26 05 	sts	0x0526, r1	; 0x800526 <_ZN7TwoWire13txBufferIndexE>
    48e0:	10 92 25 05 	sts	0x0525, r1	; 0x800525 <_ZN7TwoWire14txBufferLengthE>
    48e4:	08 95       	ret

000048e6 <_ZN7TwoWire17beginTransmissionEi>:
    48e6:	f5 cf       	rjmp	.-22     	; 0x48d2 <_ZN7TwoWire17beginTransmissionEh>

000048e8 <_ZN7TwoWire15endTransmissionEh>:
    48e8:	0f 93       	push	r16
    48ea:	06 2f       	mov	r16, r22
    48ec:	21 e0       	ldi	r18, 0x01	; 1
    48ee:	40 91 25 05 	lds	r20, 0x0525	; 0x800525 <_ZN7TwoWire14txBufferLengthE>
    48f2:	67 e2       	ldi	r22, 0x27	; 39
    48f4:	75 e0       	ldi	r23, 0x05	; 5
    48f6:	80 91 47 05 	lds	r24, 0x0547	; 0x800547 <_ZN7TwoWire9txAddressE>
    48fa:	bf dc       	rcall	.-1666   	; 0x427a <twi_writeTo>
    48fc:	10 92 26 05 	sts	0x0526, r1	; 0x800526 <_ZN7TwoWire13txBufferIndexE>
    4900:	10 92 25 05 	sts	0x0525, r1	; 0x800525 <_ZN7TwoWire14txBufferLengthE>
    4904:	10 92 24 05 	sts	0x0524, r1	; 0x800524 <_ZN7TwoWire12transmittingE>
    4908:	0f 91       	pop	r16
    490a:	08 95       	ret

0000490c <_ZN7TwoWire15endTransmissionEv>:
    490c:	61 e0       	ldi	r22, 0x01	; 1
    490e:	ec cf       	rjmp	.-40     	; 0x48e8 <_ZN7TwoWire15endTransmissionEh>

00004910 <_GLOBAL__sub_I__ZN7TwoWire8rxBufferE>:
    4910:	84 e1       	ldi	r24, 0x14	; 20
    4912:	95 e0       	ldi	r25, 0x05	; 5
    4914:	bc cf       	rjmp	.-136    	; 0x488e <_ZN7TwoWireC1Ev>

00004916 <__cxa_pure_virtual>:
    4916:	0e 94 d6 2c 	call	0x59ac	; 0x59ac <abort>

0000491a <_ZN14HardwareSerial9availableEv>:
    491a:	fc 01       	movw	r30, r24
    491c:	91 8d       	ldd	r25, Z+25	; 0x19
    491e:	22 8d       	ldd	r18, Z+26	; 0x1a
    4920:	89 2f       	mov	r24, r25
    4922:	90 e0       	ldi	r25, 0x00	; 0
    4924:	80 5c       	subi	r24, 0xC0	; 192
    4926:	9f 4f       	sbci	r25, 0xFF	; 255
    4928:	82 1b       	sub	r24, r18
    492a:	91 09       	sbc	r25, r1
    492c:	8f 73       	andi	r24, 0x3F	; 63
    492e:	99 27       	eor	r25, r25
    4930:	08 95       	ret

00004932 <_ZN14HardwareSerial4peekEv>:
    4932:	fc 01       	movw	r30, r24
    4934:	91 8d       	ldd	r25, Z+25	; 0x19
    4936:	82 8d       	ldd	r24, Z+26	; 0x1a
    4938:	98 17       	cp	r25, r24
    493a:	31 f0       	breq	.+12     	; 0x4948 <_ZN14HardwareSerial4peekEv+0x16>
    493c:	82 8d       	ldd	r24, Z+26	; 0x1a
    493e:	e8 0f       	add	r30, r24
    4940:	f1 1d       	adc	r31, r1
    4942:	85 8d       	ldd	r24, Z+29	; 0x1d
    4944:	90 e0       	ldi	r25, 0x00	; 0
    4946:	08 95       	ret
    4948:	8f ef       	ldi	r24, 0xFF	; 255
    494a:	9f ef       	ldi	r25, 0xFF	; 255
    494c:	08 95       	ret

0000494e <_ZN14HardwareSerial4readEv>:
    494e:	fc 01       	movw	r30, r24
    4950:	91 8d       	ldd	r25, Z+25	; 0x19
    4952:	82 8d       	ldd	r24, Z+26	; 0x1a
    4954:	98 17       	cp	r25, r24
    4956:	61 f0       	breq	.+24     	; 0x4970 <_ZN14HardwareSerial4readEv+0x22>
    4958:	82 8d       	ldd	r24, Z+26	; 0x1a
    495a:	df 01       	movw	r26, r30
    495c:	a8 0f       	add	r26, r24
    495e:	b1 1d       	adc	r27, r1
    4960:	5d 96       	adiw	r26, 0x1d	; 29
    4962:	8c 91       	ld	r24, X
    4964:	92 8d       	ldd	r25, Z+26	; 0x1a
    4966:	9f 5f       	subi	r25, 0xFF	; 255
    4968:	9f 73       	andi	r25, 0x3F	; 63
    496a:	92 8f       	std	Z+26, r25	; 0x1a
    496c:	90 e0       	ldi	r25, 0x00	; 0
    496e:	08 95       	ret
    4970:	8f ef       	ldi	r24, 0xFF	; 255
    4972:	9f ef       	ldi	r25, 0xFF	; 255
    4974:	08 95       	ret

00004976 <_ZN14HardwareSerial17availableForWriteEv>:
    4976:	fc 01       	movw	r30, r24
    4978:	53 8d       	ldd	r21, Z+27	; 0x1b
    497a:	44 8d       	ldd	r20, Z+28	; 0x1c
    497c:	25 2f       	mov	r18, r21
    497e:	30 e0       	ldi	r19, 0x00	; 0
    4980:	84 2f       	mov	r24, r20
    4982:	90 e0       	ldi	r25, 0x00	; 0
    4984:	82 1b       	sub	r24, r18
    4986:	93 0b       	sbc	r25, r19
    4988:	54 17       	cp	r21, r20
    498a:	10 f0       	brcs	.+4      	; 0x4990 <_ZN14HardwareSerial17availableForWriteEv+0x1a>
    498c:	cf 96       	adiw	r24, 0x3f	; 63
    498e:	08 95       	ret
    4990:	01 97       	sbiw	r24, 0x01	; 1
    4992:	08 95       	ret

00004994 <_Z14serialEventRunv>:
    4994:	87 e5       	ldi	r24, 0x57	; 87
    4996:	96 e2       	ldi	r25, 0x26	; 38
    4998:	89 2b       	or	r24, r25
    499a:	39 f0       	breq	.+14     	; 0x49aa <_Z14serialEventRunv+0x16>
    499c:	80 e0       	ldi	r24, 0x00	; 0
    499e:	90 e0       	ldi	r25, 0x00	; 0
    49a0:	89 2b       	or	r24, r25
    49a2:	19 f0       	breq	.+6      	; 0x49aa <_Z14serialEventRunv+0x16>
    49a4:	84 d1       	rcall	.+776    	; 0x4cae <_Z17Serial0_availablev>
    49a6:	81 11       	cpse	r24, r1
    49a8:	25 c0       	rjmp	.+74     	; 0x49f4 <_Z14serialEventRunv+0x60>
    49aa:	80 e0       	ldi	r24, 0x00	; 0
    49ac:	90 e0       	ldi	r25, 0x00	; 0
    49ae:	89 2b       	or	r24, r25
    49b0:	41 f0       	breq	.+16     	; 0x49c2 <_Z14serialEventRunv+0x2e>
    49b2:	80 e0       	ldi	r24, 0x00	; 0
    49b4:	90 e0       	ldi	r25, 0x00	; 0
    49b6:	89 2b       	or	r24, r25
    49b8:	21 f0       	breq	.+8      	; 0x49c2 <_Z14serialEventRunv+0x2e>
    49ba:	0e 94 00 00 	call	0	; 0x0 <__vectors>
    49be:	81 11       	cpse	r24, r1
    49c0:	1c c0       	rjmp	.+56     	; 0x49fa <_Z14serialEventRunv+0x66>
    49c2:	80 e0       	ldi	r24, 0x00	; 0
    49c4:	90 e0       	ldi	r25, 0x00	; 0
    49c6:	89 2b       	or	r24, r25
    49c8:	41 f0       	breq	.+16     	; 0x49da <_Z14serialEventRunv+0x46>
    49ca:	80 e0       	ldi	r24, 0x00	; 0
    49cc:	90 e0       	ldi	r25, 0x00	; 0
    49ce:	89 2b       	or	r24, r25
    49d0:	21 f0       	breq	.+8      	; 0x49da <_Z14serialEventRunv+0x46>
    49d2:	0e 94 00 00 	call	0	; 0x0 <__vectors>
    49d6:	81 11       	cpse	r24, r1
    49d8:	13 c0       	rjmp	.+38     	; 0x4a00 <_Z14serialEventRunv+0x6c>
    49da:	80 e0       	ldi	r24, 0x00	; 0
    49dc:	90 e0       	ldi	r25, 0x00	; 0
    49de:	89 2b       	or	r24, r25
    49e0:	a1 f0       	breq	.+40     	; 0x4a0a <_Z14serialEventRunv+0x76>
    49e2:	80 e0       	ldi	r24, 0x00	; 0
    49e4:	90 e0       	ldi	r25, 0x00	; 0
    49e6:	89 2b       	or	r24, r25
    49e8:	81 f0       	breq	.+32     	; 0x4a0a <_Z14serialEventRunv+0x76>
    49ea:	0e 94 00 00 	call	0	; 0x0 <__vectors>
    49ee:	81 11       	cpse	r24, r1
    49f0:	0a c0       	rjmp	.+20     	; 0x4a06 <_Z14serialEventRunv+0x72>
    49f2:	08 95       	ret
    49f4:	0e 94 00 00 	call	0	; 0x0 <__vectors>
    49f8:	d8 cf       	rjmp	.-80     	; 0x49aa <_Z14serialEventRunv+0x16>
    49fa:	0e 94 00 00 	call	0	; 0x0 <__vectors>
    49fe:	e1 cf       	rjmp	.-62     	; 0x49c2 <_Z14serialEventRunv+0x2e>
    4a00:	0e 94 00 00 	call	0	; 0x0 <__vectors>
    4a04:	ea cf       	rjmp	.-44     	; 0x49da <_Z14serialEventRunv+0x46>
    4a06:	0c 94 00 00 	jmp	0	; 0x0 <__vectors>
    4a0a:	08 95       	ret

00004a0c <_ZN14HardwareSerial17_tx_udr_empty_irqEv>:
    4a0c:	fc 01       	movw	r30, r24
    4a0e:	84 8d       	ldd	r24, Z+28	; 0x1c
    4a10:	df 01       	movw	r26, r30
    4a12:	a8 0f       	add	r26, r24
    4a14:	b1 1d       	adc	r27, r1
    4a16:	a3 5a       	subi	r26, 0xA3	; 163
    4a18:	bf 4f       	sbci	r27, 0xFF	; 255
    4a1a:	2c 91       	ld	r18, X
    4a1c:	84 8d       	ldd	r24, Z+28	; 0x1c
    4a1e:	90 e0       	ldi	r25, 0x00	; 0
    4a20:	01 96       	adiw	r24, 0x01	; 1
    4a22:	8f 73       	andi	r24, 0x3F	; 63
    4a24:	99 27       	eor	r25, r25
    4a26:	84 8f       	std	Z+28, r24	; 0x1c
    4a28:	a6 89       	ldd	r26, Z+22	; 0x16
    4a2a:	b7 89       	ldd	r27, Z+23	; 0x17
    4a2c:	2c 93       	st	X, r18
    4a2e:	a0 89       	ldd	r26, Z+16	; 0x10
    4a30:	b1 89       	ldd	r27, Z+17	; 0x11
    4a32:	8c 91       	ld	r24, X
    4a34:	83 70       	andi	r24, 0x03	; 3
    4a36:	80 64       	ori	r24, 0x40	; 64
    4a38:	8c 93       	st	X, r24
    4a3a:	93 8d       	ldd	r25, Z+27	; 0x1b
    4a3c:	84 8d       	ldd	r24, Z+28	; 0x1c
    4a3e:	98 13       	cpse	r25, r24
    4a40:	06 c0       	rjmp	.+12     	; 0x4a4e <_ZN14HardwareSerial17_tx_udr_empty_irqEv+0x42>
    4a42:	02 88       	ldd	r0, Z+18	; 0x12
    4a44:	f3 89       	ldd	r31, Z+19	; 0x13
    4a46:	e0 2d       	mov	r30, r0
    4a48:	80 81       	ld	r24, Z
    4a4a:	8f 7d       	andi	r24, 0xDF	; 223
    4a4c:	80 83       	st	Z, r24
    4a4e:	08 95       	ret

00004a50 <_ZN14HardwareSerial5writeEh>:
    4a50:	ef 92       	push	r14
    4a52:	ff 92       	push	r15
    4a54:	0f 93       	push	r16
    4a56:	1f 93       	push	r17
    4a58:	cf 93       	push	r28
    4a5a:	df 93       	push	r29
    4a5c:	ec 01       	movw	r28, r24
    4a5e:	81 e0       	ldi	r24, 0x01	; 1
    4a60:	88 8f       	std	Y+24, r24	; 0x18
    4a62:	9b 8d       	ldd	r25, Y+27	; 0x1b
    4a64:	8c 8d       	ldd	r24, Y+28	; 0x1c
    4a66:	98 13       	cpse	r25, r24
    4a68:	05 c0       	rjmp	.+10     	; 0x4a74 <_ZN14HardwareSerial5writeEh+0x24>
    4a6a:	e8 89       	ldd	r30, Y+16	; 0x10
    4a6c:	f9 89       	ldd	r31, Y+17	; 0x11
    4a6e:	80 81       	ld	r24, Z
    4a70:	85 fd       	sbrc	r24, 5
    4a72:	25 c0       	rjmp	.+74     	; 0x4abe <_ZN14HardwareSerial5writeEh+0x6e>
    4a74:	f6 2e       	mov	r15, r22
    4a76:	0b 8d       	ldd	r16, Y+27	; 0x1b
    4a78:	10 e0       	ldi	r17, 0x00	; 0
    4a7a:	0f 5f       	subi	r16, 0xFF	; 255
    4a7c:	1f 4f       	sbci	r17, 0xFF	; 255
    4a7e:	0f 73       	andi	r16, 0x3F	; 63
    4a80:	11 27       	eor	r17, r17
    4a82:	e0 2e       	mov	r14, r16
    4a84:	8c 8d       	ldd	r24, Y+28	; 0x1c
    4a86:	e8 12       	cpse	r14, r24
    4a88:	0b c0       	rjmp	.+22     	; 0x4aa0 <_ZN14HardwareSerial5writeEh+0x50>
    4a8a:	0f b6       	in	r0, 0x3f	; 63
    4a8c:	07 fc       	sbrc	r0, 7
    4a8e:	fa cf       	rjmp	.-12     	; 0x4a84 <_ZN14HardwareSerial5writeEh+0x34>
    4a90:	e8 89       	ldd	r30, Y+16	; 0x10
    4a92:	f9 89       	ldd	r31, Y+17	; 0x11
    4a94:	80 81       	ld	r24, Z
    4a96:	85 ff       	sbrs	r24, 5
    4a98:	f5 cf       	rjmp	.-22     	; 0x4a84 <_ZN14HardwareSerial5writeEh+0x34>
    4a9a:	ce 01       	movw	r24, r28
    4a9c:	b7 df       	rcall	.-146    	; 0x4a0c <_ZN14HardwareSerial17_tx_udr_empty_irqEv>
    4a9e:	f2 cf       	rjmp	.-28     	; 0x4a84 <_ZN14HardwareSerial5writeEh+0x34>
    4aa0:	8b 8d       	ldd	r24, Y+27	; 0x1b
    4aa2:	fe 01       	movw	r30, r28
    4aa4:	e8 0f       	add	r30, r24
    4aa6:	f1 1d       	adc	r31, r1
    4aa8:	e3 5a       	subi	r30, 0xA3	; 163
    4aaa:	ff 4f       	sbci	r31, 0xFF	; 255
    4aac:	f0 82       	st	Z, r15
    4aae:	9f b7       	in	r25, 0x3f	; 63
    return 1;
}

static __inline__ uint8_t __iCliRetVal(void)
{
    cli();
    4ab0:	f8 94       	cli
    4ab2:	0b 8f       	std	Y+27, r16	; 0x1b
    4ab4:	ea 89       	ldd	r30, Y+18	; 0x12
    4ab6:	fb 89       	ldd	r31, Y+19	; 0x13
    4ab8:	80 81       	ld	r24, Z
    4aba:	80 62       	ori	r24, 0x20	; 32
    4abc:	0a c0       	rjmp	.+20     	; 0x4ad2 <_ZN14HardwareSerial5writeEh+0x82>
    4abe:	9f b7       	in	r25, 0x3f	; 63
    4ac0:	f8 94       	cli
    4ac2:	ee 89       	ldd	r30, Y+22	; 0x16
    4ac4:	ff 89       	ldd	r31, Y+23	; 0x17
    4ac6:	60 83       	st	Z, r22
    4ac8:	e8 89       	ldd	r30, Y+16	; 0x10
    4aca:	f9 89       	ldd	r31, Y+17	; 0x11
    4acc:	80 81       	ld	r24, Z
    4ace:	83 70       	andi	r24, 0x03	; 3
    4ad0:	80 64       	ori	r24, 0x40	; 64
    4ad2:	80 83       	st	Z, r24
    (void)__s;
}

static __inline__ void __iRestore(const  uint8_t *__s)
{
    SREG = *__s;
    4ad4:	9f bf       	out	0x3f, r25	; 63
    4ad6:	81 e0       	ldi	r24, 0x01	; 1
    4ad8:	90 e0       	ldi	r25, 0x00	; 0
    4ada:	df 91       	pop	r29
    4adc:	cf 91       	pop	r28
    4ade:	1f 91       	pop	r17
    4ae0:	0f 91       	pop	r16
    4ae2:	ff 90       	pop	r15
    4ae4:	ef 90       	pop	r14
    4ae6:	08 95       	ret

00004ae8 <_ZN14HardwareSerial5flushEv>:
    4ae8:	cf 93       	push	r28
    4aea:	df 93       	push	r29
    4aec:	ec 01       	movw	r28, r24
    4aee:	88 8d       	ldd	r24, Y+24	; 0x18
    4af0:	88 23       	and	r24, r24
    4af2:	c1 f0       	breq	.+48     	; 0x4b24 <_ZN14HardwareSerial5flushEv+0x3c>
    4af4:	ea 89       	ldd	r30, Y+18	; 0x12
    4af6:	fb 89       	ldd	r31, Y+19	; 0x13
    4af8:	80 81       	ld	r24, Z
    4afa:	85 fd       	sbrc	r24, 5
    4afc:	05 c0       	rjmp	.+10     	; 0x4b08 <_ZN14HardwareSerial5flushEv+0x20>
    4afe:	a8 89       	ldd	r26, Y+16	; 0x10
    4b00:	b9 89       	ldd	r27, Y+17	; 0x11
    4b02:	8c 91       	ld	r24, X
    4b04:	86 fd       	sbrc	r24, 6
    4b06:	0e c0       	rjmp	.+28     	; 0x4b24 <_ZN14HardwareSerial5flushEv+0x3c>
    4b08:	0f b6       	in	r0, 0x3f	; 63
    4b0a:	07 fc       	sbrc	r0, 7
    4b0c:	f5 cf       	rjmp	.-22     	; 0x4af8 <_ZN14HardwareSerial5flushEv+0x10>
    4b0e:	80 81       	ld	r24, Z
    4b10:	85 ff       	sbrs	r24, 5
    4b12:	f2 cf       	rjmp	.-28     	; 0x4af8 <_ZN14HardwareSerial5flushEv+0x10>
    4b14:	a8 89       	ldd	r26, Y+16	; 0x10
    4b16:	b9 89       	ldd	r27, Y+17	; 0x11
    4b18:	8c 91       	ld	r24, X
    4b1a:	85 ff       	sbrs	r24, 5
    4b1c:	ed cf       	rjmp	.-38     	; 0x4af8 <_ZN14HardwareSerial5flushEv+0x10>
    4b1e:	ce 01       	movw	r24, r28
    4b20:	75 df       	rcall	.-278    	; 0x4a0c <_ZN14HardwareSerial17_tx_udr_empty_irqEv>
    4b22:	e8 cf       	rjmp	.-48     	; 0x4af4 <_ZN14HardwareSerial5flushEv+0xc>
    4b24:	df 91       	pop	r29
    4b26:	cf 91       	pop	r28
    4b28:	08 95       	ret

00004b2a <_ZN14HardwareSerial5beginEmh>:
    4b2a:	cf 92       	push	r12
    4b2c:	df 92       	push	r13
    4b2e:	ef 92       	push	r14
    4b30:	ff 92       	push	r15
    4b32:	1f 93       	push	r17
    4b34:	cf 93       	push	r28
    4b36:	df 93       	push	r29
    4b38:	ec 01       	movw	r28, r24
    4b3a:	6a 01       	movw	r12, r20
    4b3c:	7b 01       	movw	r14, r22
    4b3e:	12 2f       	mov	r17, r18
    4b40:	e8 89       	ldd	r30, Y+16	; 0x10
    4b42:	f9 89       	ldd	r31, Y+17	; 0x11
    4b44:	82 e0       	ldi	r24, 0x02	; 2
    4b46:	80 83       	st	Z, r24
    4b48:	41 15       	cp	r20, r1
    4b4a:	51 4e       	sbci	r21, 0xE1	; 225
    4b4c:	61 05       	cpc	r22, r1
    4b4e:	71 05       	cpc	r23, r1
    4b50:	a9 f0       	breq	.+42     	; 0x4b7c <_ZN14HardwareSerial5beginEmh+0x52>
    4b52:	60 e0       	ldi	r22, 0x00	; 0
    4b54:	79 e0       	ldi	r23, 0x09	; 9
    4b56:	8d e3       	ldi	r24, 0x3D	; 61
    4b58:	90 e0       	ldi	r25, 0x00	; 0
    4b5a:	a7 01       	movw	r20, r14
    4b5c:	96 01       	movw	r18, r12
    4b5e:	fb d4       	rcall	.+2550   	; 0x5556 <__udivmodsi4>
    4b60:	da 01       	movw	r26, r20
    4b62:	c9 01       	movw	r24, r18
    4b64:	01 97       	sbiw	r24, 0x01	; 1
    4b66:	a1 09       	sbc	r26, r1
    4b68:	b1 09       	sbc	r27, r1
    4b6a:	b6 95       	lsr	r27
    4b6c:	a7 95       	ror	r26
    4b6e:	97 95       	ror	r25
    4b70:	87 95       	ror	r24
    4b72:	9c 01       	movw	r18, r24
    4b74:	21 15       	cp	r18, r1
    4b76:	80 e1       	ldi	r24, 0x10	; 16
    4b78:	38 07       	cpc	r19, r24
    4b7a:	a0 f0       	brcs	.+40     	; 0x4ba4 <_ZN14HardwareSerial5beginEmh+0x7a>
    4b7c:	e8 89       	ldd	r30, Y+16	; 0x10
    4b7e:	f9 89       	ldd	r31, Y+17	; 0x11
    4b80:	10 82       	st	Z, r1
    4b82:	60 e8       	ldi	r22, 0x80	; 128
    4b84:	74 e8       	ldi	r23, 0x84	; 132
    4b86:	8e e1       	ldi	r24, 0x1E	; 30
    4b88:	90 e0       	ldi	r25, 0x00	; 0
    4b8a:	a7 01       	movw	r20, r14
    4b8c:	96 01       	movw	r18, r12
    4b8e:	e3 d4       	rcall	.+2502   	; 0x5556 <__udivmodsi4>
    4b90:	da 01       	movw	r26, r20
    4b92:	c9 01       	movw	r24, r18
    4b94:	01 97       	sbiw	r24, 0x01	; 1
    4b96:	a1 09       	sbc	r26, r1
    4b98:	b1 09       	sbc	r27, r1
    4b9a:	b6 95       	lsr	r27
    4b9c:	a7 95       	ror	r26
    4b9e:	97 95       	ror	r25
    4ba0:	87 95       	ror	r24
    4ba2:	9c 01       	movw	r18, r24
    4ba4:	ec 85       	ldd	r30, Y+12	; 0x0c
    4ba6:	fd 85       	ldd	r31, Y+13	; 0x0d
    4ba8:	30 83       	st	Z, r19
    4baa:	ee 85       	ldd	r30, Y+14	; 0x0e
    4bac:	ff 85       	ldd	r31, Y+15	; 0x0f
    4bae:	20 83       	st	Z, r18
    4bb0:	18 8e       	std	Y+24, r1	; 0x18
    4bb2:	ec 89       	ldd	r30, Y+20	; 0x14
    4bb4:	fd 89       	ldd	r31, Y+21	; 0x15
    4bb6:	10 83       	st	Z, r17
    4bb8:	ea 89       	ldd	r30, Y+18	; 0x12
    4bba:	fb 89       	ldd	r31, Y+19	; 0x13
    4bbc:	80 81       	ld	r24, Z
    4bbe:	80 61       	ori	r24, 0x10	; 16
    4bc0:	80 83       	st	Z, r24
    4bc2:	ea 89       	ldd	r30, Y+18	; 0x12
    4bc4:	fb 89       	ldd	r31, Y+19	; 0x13
    4bc6:	80 81       	ld	r24, Z
    4bc8:	88 60       	ori	r24, 0x08	; 8
    4bca:	80 83       	st	Z, r24
    4bcc:	ea 89       	ldd	r30, Y+18	; 0x12
    4bce:	fb 89       	ldd	r31, Y+19	; 0x13
    4bd0:	80 81       	ld	r24, Z
    4bd2:	80 68       	ori	r24, 0x80	; 128
    4bd4:	80 83       	st	Z, r24
    4bd6:	ea 89       	ldd	r30, Y+18	; 0x12
    4bd8:	fb 89       	ldd	r31, Y+19	; 0x13
    4bda:	80 81       	ld	r24, Z
    4bdc:	8f 7d       	andi	r24, 0xDF	; 223
    4bde:	80 83       	st	Z, r24
    4be0:	df 91       	pop	r29
    4be2:	cf 91       	pop	r28
    4be4:	1f 91       	pop	r17
    4be6:	ff 90       	pop	r15
    4be8:	ef 90       	pop	r14
    4bea:	df 90       	pop	r13
    4bec:	cf 90       	pop	r12
    4bee:	08 95       	ret

00004bf0 <__vector_25>:
    4bf0:	1f 92       	push	r1
    4bf2:	0f 92       	push	r0
    4bf4:	0f b6       	in	r0, 0x3f	; 63
    4bf6:	0f 92       	push	r0
    4bf8:	11 24       	eor	r1, r1
    4bfa:	0b b6       	in	r0, 0x3b	; 59
    4bfc:	0f 92       	push	r0
    4bfe:	2f 93       	push	r18
    4c00:	8f 93       	push	r24
    4c02:	9f 93       	push	r25
    4c04:	ef 93       	push	r30
    4c06:	ff 93       	push	r31
    4c08:	e0 91 7a 05 	lds	r30, 0x057A	; 0x80057a <Serial+0x10>
    4c0c:	f0 91 7b 05 	lds	r31, 0x057B	; 0x80057b <Serial+0x11>
    4c10:	80 81       	ld	r24, Z
    4c12:	e0 91 80 05 	lds	r30, 0x0580	; 0x800580 <Serial+0x16>
    4c16:	f0 91 81 05 	lds	r31, 0x0581	; 0x800581 <Serial+0x17>
    4c1a:	82 fd       	sbrc	r24, 2
    4c1c:	12 c0       	rjmp	.+36     	; 0x4c42 <__vector_25+0x52>
    4c1e:	90 81       	ld	r25, Z
    4c20:	80 91 83 05 	lds	r24, 0x0583	; 0x800583 <Serial+0x19>
    4c24:	8f 5f       	subi	r24, 0xFF	; 255
    4c26:	8f 73       	andi	r24, 0x3F	; 63
    4c28:	20 91 84 05 	lds	r18, 0x0584	; 0x800584 <Serial+0x1a>
    4c2c:	82 17       	cp	r24, r18
    4c2e:	51 f0       	breq	.+20     	; 0x4c44 <__vector_25+0x54>
    4c30:	e0 91 83 05 	lds	r30, 0x0583	; 0x800583 <Serial+0x19>
    4c34:	f0 e0       	ldi	r31, 0x00	; 0
    4c36:	e6 59       	subi	r30, 0x96	; 150
    4c38:	fa 4f       	sbci	r31, 0xFA	; 250
    4c3a:	95 8f       	std	Z+29, r25	; 0x1d
    4c3c:	80 93 83 05 	sts	0x0583, r24	; 0x800583 <Serial+0x19>
    4c40:	01 c0       	rjmp	.+2      	; 0x4c44 <__vector_25+0x54>
    4c42:	80 81       	ld	r24, Z
    4c44:	ff 91       	pop	r31
    4c46:	ef 91       	pop	r30
    4c48:	9f 91       	pop	r25
    4c4a:	8f 91       	pop	r24
    4c4c:	2f 91       	pop	r18
    4c4e:	0f 90       	pop	r0
    4c50:	0b be       	out	0x3b, r0	; 59
    4c52:	0f 90       	pop	r0
    4c54:	0f be       	out	0x3f, r0	; 63
    4c56:	0f 90       	pop	r0
    4c58:	1f 90       	pop	r1
    4c5a:	18 95       	reti

00004c5c <__vector_26>:
    4c5c:	1f 92       	push	r1
    4c5e:	0f 92       	push	r0
    4c60:	0f b6       	in	r0, 0x3f	; 63
    4c62:	0f 92       	push	r0
    4c64:	11 24       	eor	r1, r1
    4c66:	0b b6       	in	r0, 0x3b	; 59
    4c68:	0f 92       	push	r0
    4c6a:	2f 93       	push	r18
    4c6c:	3f 93       	push	r19
    4c6e:	4f 93       	push	r20
    4c70:	5f 93       	push	r21
    4c72:	6f 93       	push	r22
    4c74:	7f 93       	push	r23
    4c76:	8f 93       	push	r24
    4c78:	9f 93       	push	r25
    4c7a:	af 93       	push	r26
    4c7c:	bf 93       	push	r27
    4c7e:	ef 93       	push	r30
    4c80:	ff 93       	push	r31
    4c82:	8a e6       	ldi	r24, 0x6A	; 106
    4c84:	95 e0       	ldi	r25, 0x05	; 5
    4c86:	c2 de       	rcall	.-636    	; 0x4a0c <_ZN14HardwareSerial17_tx_udr_empty_irqEv>
    4c88:	ff 91       	pop	r31
    4c8a:	ef 91       	pop	r30
    4c8c:	bf 91       	pop	r27
    4c8e:	af 91       	pop	r26
    4c90:	9f 91       	pop	r25
    4c92:	8f 91       	pop	r24
    4c94:	7f 91       	pop	r23
    4c96:	6f 91       	pop	r22
    4c98:	5f 91       	pop	r21
    4c9a:	4f 91       	pop	r20
    4c9c:	3f 91       	pop	r19
    4c9e:	2f 91       	pop	r18
    4ca0:	0f 90       	pop	r0
    4ca2:	0b be       	out	0x3b, r0	; 59
    4ca4:	0f 90       	pop	r0
    4ca6:	0f be       	out	0x3f, r0	; 63
    4ca8:	0f 90       	pop	r0
    4caa:	1f 90       	pop	r1
    4cac:	18 95       	reti

00004cae <_Z17Serial0_availablev>:
    4cae:	8a e6       	ldi	r24, 0x6A	; 106
    4cb0:	95 e0       	ldi	r25, 0x05	; 5
    4cb2:	33 de       	rcall	.-922    	; 0x491a <_ZN14HardwareSerial9availableEv>
    4cb4:	21 e0       	ldi	r18, 0x01	; 1
    4cb6:	89 2b       	or	r24, r25
    4cb8:	09 f4       	brne	.+2      	; 0x4cbc <_Z17Serial0_availablev+0xe>
    4cba:	20 e0       	ldi	r18, 0x00	; 0
    4cbc:	82 2f       	mov	r24, r18
    4cbe:	08 95       	ret

00004cc0 <_GLOBAL__sub_I___vector_25>:
    4cc0:	ea e6       	ldi	r30, 0x6A	; 106
    4cc2:	f5 e0       	ldi	r31, 0x05	; 5
    4cc4:	13 82       	std	Z+3, r1	; 0x03
    4cc6:	12 82       	std	Z+2, r1	; 0x02
    4cc8:	88 ee       	ldi	r24, 0xE8	; 232
    4cca:	93 e0       	ldi	r25, 0x03	; 3
    4ccc:	a0 e0       	ldi	r26, 0x00	; 0
    4cce:	b0 e0       	ldi	r27, 0x00	; 0
    4cd0:	84 83       	std	Z+4, r24	; 0x04
    4cd2:	95 83       	std	Z+5, r25	; 0x05
    4cd4:	a6 83       	std	Z+6, r26	; 0x06
    4cd6:	b7 83       	std	Z+7, r27	; 0x07
    4cd8:	89 e1       	ldi	r24, 0x19	; 25
    4cda:	93 e0       	ldi	r25, 0x03	; 3
    4cdc:	91 83       	std	Z+1, r25	; 0x01
    4cde:	80 83       	st	Z, r24
    4ce0:	85 ec       	ldi	r24, 0xC5	; 197
    4ce2:	90 e0       	ldi	r25, 0x00	; 0
    4ce4:	95 87       	std	Z+13, r25	; 0x0d
    4ce6:	84 87       	std	Z+12, r24	; 0x0c
    4ce8:	84 ec       	ldi	r24, 0xC4	; 196
    4cea:	90 e0       	ldi	r25, 0x00	; 0
    4cec:	97 87       	std	Z+15, r25	; 0x0f
    4cee:	86 87       	std	Z+14, r24	; 0x0e
    4cf0:	80 ec       	ldi	r24, 0xC0	; 192
    4cf2:	90 e0       	ldi	r25, 0x00	; 0
    4cf4:	91 8b       	std	Z+17, r25	; 0x11
    4cf6:	80 8b       	std	Z+16, r24	; 0x10
    4cf8:	81 ec       	ldi	r24, 0xC1	; 193
    4cfa:	90 e0       	ldi	r25, 0x00	; 0
    4cfc:	93 8b       	std	Z+19, r25	; 0x13
    4cfe:	82 8b       	std	Z+18, r24	; 0x12
    4d00:	82 ec       	ldi	r24, 0xC2	; 194
    4d02:	90 e0       	ldi	r25, 0x00	; 0
    4d04:	95 8b       	std	Z+21, r25	; 0x15
    4d06:	84 8b       	std	Z+20, r24	; 0x14
    4d08:	86 ec       	ldi	r24, 0xC6	; 198
    4d0a:	90 e0       	ldi	r25, 0x00	; 0
    4d0c:	97 8b       	std	Z+23, r25	; 0x17
    4d0e:	86 8b       	std	Z+22, r24	; 0x16
    4d10:	11 8e       	std	Z+25, r1	; 0x19
    4d12:	12 8e       	std	Z+26, r1	; 0x1a
    4d14:	13 8e       	std	Z+27, r1	; 0x1b
    4d16:	14 8e       	std	Z+28, r1	; 0x1c
    4d18:	08 95       	ret

00004d1a <initVariant>:
    4d1a:	08 95       	ret

00004d1c <main>:
    4d1c:	67 d1       	rcall	.+718    	; 0x4fec <init>
    4d1e:	fd df       	rcall	.-6      	; 0x4d1a <initVariant>
    4d20:	0e 94 53 06 	call	0xca6	; 0xca6 <setup>
    4d24:	ca ec       	ldi	r28, 0xCA	; 202
    4d26:	d4 e2       	ldi	r29, 0x24	; 36
    4d28:	0e 94 76 06 	call	0xcec	; 0xcec <loop>
    4d2c:	20 97       	sbiw	r28, 0x00	; 0
    4d2e:	e1 f3       	breq	.-8      	; 0x4d28 <main+0xc>
    4d30:	31 de       	rcall	.-926    	; 0x4994 <_Z14serialEventRunv>
    4d32:	fa cf       	rjmp	.-12     	; 0x4d28 <main+0xc>

00004d34 <_ZN5Print5writeEPKhj>:
    4d34:	cf 92       	push	r12
    4d36:	df 92       	push	r13
    4d38:	ef 92       	push	r14
    4d3a:	ff 92       	push	r15
    4d3c:	0f 93       	push	r16
    4d3e:	1f 93       	push	r17
    4d40:	cf 93       	push	r28
    4d42:	df 93       	push	r29
    4d44:	6c 01       	movw	r12, r24
    4d46:	7a 01       	movw	r14, r20
    4d48:	8b 01       	movw	r16, r22
    4d4a:	c0 e0       	ldi	r28, 0x00	; 0
    4d4c:	d0 e0       	ldi	r29, 0x00	; 0
    4d4e:	ce 15       	cp	r28, r14
    4d50:	df 05       	cpc	r29, r15
    4d52:	81 f0       	breq	.+32     	; 0x4d74 <_ZN5Print5writeEPKhj+0x40>
    4d54:	d8 01       	movw	r26, r16
    4d56:	6d 91       	ld	r22, X+
    4d58:	8d 01       	movw	r16, r26
    4d5a:	d6 01       	movw	r26, r12
    4d5c:	ed 91       	ld	r30, X+
    4d5e:	fc 91       	ld	r31, X
    4d60:	01 90       	ld	r0, Z+
    4d62:	f0 81       	ld	r31, Z
    4d64:	e0 2d       	mov	r30, r0
    4d66:	c6 01       	movw	r24, r12
    4d68:	19 95       	eicall
    4d6a:	89 2b       	or	r24, r25
    4d6c:	11 f0       	breq	.+4      	; 0x4d72 <_ZN5Print5writeEPKhj+0x3e>
    4d6e:	21 96       	adiw	r28, 0x01	; 1
    4d70:	ee cf       	rjmp	.-36     	; 0x4d4e <_ZN5Print5writeEPKhj+0x1a>
    4d72:	7e 01       	movw	r14, r28
    4d74:	c7 01       	movw	r24, r14
    4d76:	df 91       	pop	r29
    4d78:	cf 91       	pop	r28
    4d7a:	1f 91       	pop	r17
    4d7c:	0f 91       	pop	r16
    4d7e:	ff 90       	pop	r15
    4d80:	ef 90       	pop	r14
    4d82:	df 90       	pop	r13
    4d84:	cf 90       	pop	r12
    4d86:	08 95       	ret

00004d88 <_ZN5Print5writeEPKc>:
    4d88:	61 15       	cp	r22, r1
    4d8a:	71 05       	cpc	r23, r1
    4d8c:	79 f0       	breq	.+30     	; 0x4dac <_ZN5Print5writeEPKc+0x24>
    4d8e:	fb 01       	movw	r30, r22
    4d90:	01 90       	ld	r0, Z+
    4d92:	00 20       	and	r0, r0
    4d94:	e9 f7       	brne	.-6      	; 0x4d90 <_ZN5Print5writeEPKc+0x8>
    4d96:	31 97       	sbiw	r30, 0x01	; 1
    4d98:	af 01       	movw	r20, r30
    4d9a:	46 1b       	sub	r20, r22
    4d9c:	57 0b       	sbc	r21, r23
    4d9e:	dc 01       	movw	r26, r24
    4da0:	ed 91       	ld	r30, X+
    4da2:	fc 91       	ld	r31, X
    4da4:	02 80       	ldd	r0, Z+2	; 0x02
    4da6:	f3 81       	ldd	r31, Z+3	; 0x03
    4da8:	e0 2d       	mov	r30, r0
    4daa:	19 94       	eijmp
    4dac:	80 e0       	ldi	r24, 0x00	; 0
    4dae:	90 e0       	ldi	r25, 0x00	; 0
    4db0:	08 95       	ret

00004db2 <_ZN5Print5printEPK19__FlashStringHelper>:
    4db2:	ef 92       	push	r14
    4db4:	ff 92       	push	r15
    4db6:	0f 93       	push	r16
    4db8:	1f 93       	push	r17
    4dba:	cf 93       	push	r28
    4dbc:	df 93       	push	r29
    4dbe:	8c 01       	movw	r16, r24
    4dc0:	7b 01       	movw	r14, r22
    4dc2:	c0 e0       	ldi	r28, 0x00	; 0
    4dc4:	d0 e0       	ldi	r29, 0x00	; 0
    4dc6:	f7 01       	movw	r30, r14
    4dc8:	ec 0f       	add	r30, r28
    4dca:	fd 1f       	adc	r31, r29
    4dcc:	64 91       	lpm	r22, Z
    4dce:	66 23       	and	r22, r22
    4dd0:	61 f0       	breq	.+24     	; 0x4dea <_ZN5Print5printEPK19__FlashStringHelper+0x38>
    4dd2:	d8 01       	movw	r26, r16
    4dd4:	ed 91       	ld	r30, X+
    4dd6:	fc 91       	ld	r31, X
    4dd8:	01 90       	ld	r0, Z+
    4dda:	f0 81       	ld	r31, Z
    4ddc:	e0 2d       	mov	r30, r0
    4dde:	c8 01       	movw	r24, r16
    4de0:	19 95       	eicall
    4de2:	89 2b       	or	r24, r25
    4de4:	11 f0       	breq	.+4      	; 0x4dea <_ZN5Print5printEPK19__FlashStringHelper+0x38>
    4de6:	21 96       	adiw	r28, 0x01	; 1
    4de8:	ee cf       	rjmp	.-36     	; 0x4dc6 <_ZN5Print5printEPK19__FlashStringHelper+0x14>
    4dea:	ce 01       	movw	r24, r28
    4dec:	df 91       	pop	r29
    4dee:	cf 91       	pop	r28
    4df0:	1f 91       	pop	r17
    4df2:	0f 91       	pop	r16
    4df4:	ff 90       	pop	r15
    4df6:	ef 90       	pop	r14
    4df8:	08 95       	ret

00004dfa <_ZN5Print5printEc>:
    4dfa:	dc 01       	movw	r26, r24
    4dfc:	ed 91       	ld	r30, X+
    4dfe:	fc 91       	ld	r31, X
    4e00:	01 90       	ld	r0, Z+
    4e02:	f0 81       	ld	r31, Z
    4e04:	e0 2d       	mov	r30, r0
    4e06:	19 94       	eijmp

00004e08 <_ZN5Print7printlnEv>:
    4e08:	67 e2       	ldi	r22, 0x27	; 39
    4e0a:	73 e0       	ldi	r23, 0x03	; 3
    4e0c:	bd cf       	rjmp	.-134    	; 0x4d88 <_ZN5Print5writeEPKc>

00004e0e <_ZN5Print7printlnEPK19__FlashStringHelper>:
    4e0e:	0f 93       	push	r16
    4e10:	1f 93       	push	r17
    4e12:	cf 93       	push	r28
    4e14:	df 93       	push	r29
    4e16:	ec 01       	movw	r28, r24
    4e18:	cc df       	rcall	.-104    	; 0x4db2 <_ZN5Print5printEPK19__FlashStringHelper>
    4e1a:	8c 01       	movw	r16, r24
    4e1c:	ce 01       	movw	r24, r28
    4e1e:	f4 df       	rcall	.-24     	; 0x4e08 <_ZN5Print7printlnEv>
    4e20:	80 0f       	add	r24, r16
    4e22:	91 1f       	adc	r25, r17
    4e24:	df 91       	pop	r29
    4e26:	cf 91       	pop	r28
    4e28:	1f 91       	pop	r17
    4e2a:	0f 91       	pop	r16
    4e2c:	08 95       	ret

00004e2e <_ZN5Print7printlnEPKc>:
    4e2e:	0f 93       	push	r16
    4e30:	1f 93       	push	r17
    4e32:	cf 93       	push	r28
    4e34:	df 93       	push	r29
    4e36:	ec 01       	movw	r28, r24
    4e38:	a7 df       	rcall	.-178    	; 0x4d88 <_ZN5Print5writeEPKc>
    4e3a:	8c 01       	movw	r16, r24
    4e3c:	ce 01       	movw	r24, r28
    4e3e:	e4 df       	rcall	.-56     	; 0x4e08 <_ZN5Print7printlnEv>
    4e40:	80 0f       	add	r24, r16
    4e42:	91 1f       	adc	r25, r17
    4e44:	df 91       	pop	r29
    4e46:	cf 91       	pop	r28
    4e48:	1f 91       	pop	r17
    4e4a:	0f 91       	pop	r16
    4e4c:	08 95       	ret

00004e4e <_ZN5Print7printlnEc>:
    4e4e:	0f 93       	push	r16
    4e50:	1f 93       	push	r17
    4e52:	cf 93       	push	r28
    4e54:	df 93       	push	r29
    4e56:	ec 01       	movw	r28, r24
    4e58:	d0 df       	rcall	.-96     	; 0x4dfa <_ZN5Print5printEc>
    4e5a:	8c 01       	movw	r16, r24
    4e5c:	ce 01       	movw	r24, r28
    4e5e:	d4 df       	rcall	.-88     	; 0x4e08 <_ZN5Print7printlnEv>
    4e60:	80 0f       	add	r24, r16
    4e62:	91 1f       	adc	r25, r17
    4e64:	df 91       	pop	r29
    4e66:	cf 91       	pop	r28
    4e68:	1f 91       	pop	r17
    4e6a:	0f 91       	pop	r16
    4e6c:	08 95       	ret

00004e6e <__vector_23>:
    4e6e:	1f 92       	push	r1
    4e70:	0f 92       	push	r0
    4e72:	0f b6       	in	r0, 0x3f	; 63
    4e74:	0f 92       	push	r0
    4e76:	11 24       	eor	r1, r1
    4e78:	2f 93       	push	r18
    4e7a:	3f 93       	push	r19
    4e7c:	8f 93       	push	r24
    4e7e:	9f 93       	push	r25
    4e80:	af 93       	push	r26
    4e82:	bf 93       	push	r27
    4e84:	80 91 08 06 	lds	r24, 0x0608	; 0x800608 <timer0_millis>
    4e88:	90 91 09 06 	lds	r25, 0x0609	; 0x800609 <timer0_millis+0x1>
    4e8c:	a0 91 0a 06 	lds	r26, 0x060A	; 0x80060a <timer0_millis+0x2>
    4e90:	b0 91 0b 06 	lds	r27, 0x060B	; 0x80060b <timer0_millis+0x3>
    4e94:	30 91 07 06 	lds	r19, 0x0607	; 0x800607 <timer0_fract>
    4e98:	23 e0       	ldi	r18, 0x03	; 3
    4e9a:	23 0f       	add	r18, r19
    4e9c:	2d 37       	cpi	r18, 0x7D	; 125
    4e9e:	20 f4       	brcc	.+8      	; 0x4ea8 <__vector_23+0x3a>
    4ea0:	01 96       	adiw	r24, 0x01	; 1
    4ea2:	a1 1d       	adc	r26, r1
    4ea4:	b1 1d       	adc	r27, r1
    4ea6:	05 c0       	rjmp	.+10     	; 0x4eb2 <__vector_23+0x44>
    4ea8:	26 e8       	ldi	r18, 0x86	; 134
    4eaa:	23 0f       	add	r18, r19
    4eac:	02 96       	adiw	r24, 0x02	; 2
    4eae:	a1 1d       	adc	r26, r1
    4eb0:	b1 1d       	adc	r27, r1
    4eb2:	20 93 07 06 	sts	0x0607, r18	; 0x800607 <timer0_fract>
    4eb6:	80 93 08 06 	sts	0x0608, r24	; 0x800608 <timer0_millis>
    4eba:	90 93 09 06 	sts	0x0609, r25	; 0x800609 <timer0_millis+0x1>
    4ebe:	a0 93 0a 06 	sts	0x060A, r26	; 0x80060a <timer0_millis+0x2>
    4ec2:	b0 93 0b 06 	sts	0x060B, r27	; 0x80060b <timer0_millis+0x3>
    4ec6:	80 91 0c 06 	lds	r24, 0x060C	; 0x80060c <timer0_overflow_count>
    4eca:	90 91 0d 06 	lds	r25, 0x060D	; 0x80060d <timer0_overflow_count+0x1>
    4ece:	a0 91 0e 06 	lds	r26, 0x060E	; 0x80060e <timer0_overflow_count+0x2>
    4ed2:	b0 91 0f 06 	lds	r27, 0x060F	; 0x80060f <timer0_overflow_count+0x3>
    4ed6:	01 96       	adiw	r24, 0x01	; 1
    4ed8:	a1 1d       	adc	r26, r1
    4eda:	b1 1d       	adc	r27, r1
    4edc:	80 93 0c 06 	sts	0x060C, r24	; 0x80060c <timer0_overflow_count>
    4ee0:	90 93 0d 06 	sts	0x060D, r25	; 0x80060d <timer0_overflow_count+0x1>
    4ee4:	a0 93 0e 06 	sts	0x060E, r26	; 0x80060e <timer0_overflow_count+0x2>
    4ee8:	b0 93 0f 06 	sts	0x060F, r27	; 0x80060f <timer0_overflow_count+0x3>
    4eec:	bf 91       	pop	r27
    4eee:	af 91       	pop	r26
    4ef0:	9f 91       	pop	r25
    4ef2:	8f 91       	pop	r24
    4ef4:	3f 91       	pop	r19
    4ef6:	2f 91       	pop	r18
    4ef8:	0f 90       	pop	r0
    4efa:	0f be       	out	0x3f, r0	; 63
    4efc:	0f 90       	pop	r0
    4efe:	1f 90       	pop	r1
    4f00:	18 95       	reti

00004f02 <millis>:
    4f02:	2f b7       	in	r18, 0x3f	; 63
    4f04:	f8 94       	cli
    4f06:	60 91 08 06 	lds	r22, 0x0608	; 0x800608 <timer0_millis>
    4f0a:	70 91 09 06 	lds	r23, 0x0609	; 0x800609 <timer0_millis+0x1>
    4f0e:	80 91 0a 06 	lds	r24, 0x060A	; 0x80060a <timer0_millis+0x2>
    4f12:	90 91 0b 06 	lds	r25, 0x060B	; 0x80060b <timer0_millis+0x3>
    4f16:	2f bf       	out	0x3f, r18	; 63
    4f18:	08 95       	ret

00004f1a <micros>:
    4f1a:	3f b7       	in	r19, 0x3f	; 63
    4f1c:	f8 94       	cli
    4f1e:	80 91 0c 06 	lds	r24, 0x060C	; 0x80060c <timer0_overflow_count>
    4f22:	90 91 0d 06 	lds	r25, 0x060D	; 0x80060d <timer0_overflow_count+0x1>
    4f26:	a0 91 0e 06 	lds	r26, 0x060E	; 0x80060e <timer0_overflow_count+0x2>
    4f2a:	b0 91 0f 06 	lds	r27, 0x060F	; 0x80060f <timer0_overflow_count+0x3>
    4f2e:	26 b5       	in	r18, 0x26	; 38
    4f30:	a8 9b       	sbis	0x15, 0	; 21
    4f32:	05 c0       	rjmp	.+10     	; 0x4f3e <micros+0x24>
    4f34:	2f 3f       	cpi	r18, 0xFF	; 255
    4f36:	19 f0       	breq	.+6      	; 0x4f3e <micros+0x24>
    4f38:	01 96       	adiw	r24, 0x01	; 1
    4f3a:	a1 1d       	adc	r26, r1
    4f3c:	b1 1d       	adc	r27, r1
    4f3e:	3f bf       	out	0x3f, r19	; 63
    4f40:	ba 2f       	mov	r27, r26
    4f42:	a9 2f       	mov	r26, r25
    4f44:	98 2f       	mov	r25, r24
    4f46:	88 27       	eor	r24, r24
    4f48:	82 0f       	add	r24, r18
    4f4a:	91 1d       	adc	r25, r1
    4f4c:	a1 1d       	adc	r26, r1
    4f4e:	b1 1d       	adc	r27, r1
    4f50:	bc 01       	movw	r22, r24
    4f52:	cd 01       	movw	r24, r26
    4f54:	42 e0       	ldi	r20, 0x02	; 2
    4f56:	66 0f       	add	r22, r22
    4f58:	77 1f       	adc	r23, r23
    4f5a:	88 1f       	adc	r24, r24
    4f5c:	99 1f       	adc	r25, r25
    4f5e:	4a 95       	dec	r20
    4f60:	d1 f7       	brne	.-12     	; 0x4f56 <micros+0x3c>
    4f62:	08 95       	ret

00004f64 <delay>:
    4f64:	8f 92       	push	r8
    4f66:	9f 92       	push	r9
    4f68:	af 92       	push	r10
    4f6a:	bf 92       	push	r11
    4f6c:	cf 92       	push	r12
    4f6e:	df 92       	push	r13
    4f70:	ef 92       	push	r14
    4f72:	ff 92       	push	r15
    4f74:	6b 01       	movw	r12, r22
    4f76:	7c 01       	movw	r14, r24
    4f78:	d0 df       	rcall	.-96     	; 0x4f1a <micros>
    4f7a:	4b 01       	movw	r8, r22
    4f7c:	5c 01       	movw	r10, r24
    4f7e:	c1 14       	cp	r12, r1
    4f80:	d1 04       	cpc	r13, r1
    4f82:	e1 04       	cpc	r14, r1
    4f84:	f1 04       	cpc	r15, r1
    4f86:	f1 f0       	breq	.+60     	; 0x4fc4 <delay+0x60>
    4f88:	e5 d2       	rcall	.+1482   	; 0x5554 <yield>
    4f8a:	c7 df       	rcall	.-114    	; 0x4f1a <micros>
    4f8c:	dc 01       	movw	r26, r24
    4f8e:	cb 01       	movw	r24, r22
    4f90:	88 19       	sub	r24, r8
    4f92:	99 09       	sbc	r25, r9
    4f94:	aa 09       	sbc	r26, r10
    4f96:	bb 09       	sbc	r27, r11
    4f98:	88 3e       	cpi	r24, 0xE8	; 232
    4f9a:	93 40       	sbci	r25, 0x03	; 3
    4f9c:	a1 05       	cpc	r26, r1
    4f9e:	b1 05       	cpc	r27, r1
    4fa0:	70 f3       	brcs	.-36     	; 0x4f7e <delay+0x1a>
    4fa2:	21 e0       	ldi	r18, 0x01	; 1
    4fa4:	c2 1a       	sub	r12, r18
    4fa6:	d1 08       	sbc	r13, r1
    4fa8:	e1 08       	sbc	r14, r1
    4faa:	f1 08       	sbc	r15, r1
    4fac:	88 ee       	ldi	r24, 0xE8	; 232
    4fae:	88 0e       	add	r8, r24
    4fb0:	83 e0       	ldi	r24, 0x03	; 3
    4fb2:	98 1e       	adc	r9, r24
    4fb4:	a1 1c       	adc	r10, r1
    4fb6:	b1 1c       	adc	r11, r1
    4fb8:	c1 14       	cp	r12, r1
    4fba:	d1 04       	cpc	r13, r1
    4fbc:	e1 04       	cpc	r14, r1
    4fbe:	f1 04       	cpc	r15, r1
    4fc0:	21 f7       	brne	.-56     	; 0x4f8a <delay+0x26>
    4fc2:	dd cf       	rjmp	.-70     	; 0x4f7e <delay+0x1a>
    4fc4:	ff 90       	pop	r15
    4fc6:	ef 90       	pop	r14
    4fc8:	df 90       	pop	r13
    4fca:	cf 90       	pop	r12
    4fcc:	bf 90       	pop	r11
    4fce:	af 90       	pop	r10
    4fd0:	9f 90       	pop	r9
    4fd2:	8f 90       	pop	r8
    4fd4:	08 95       	ret

00004fd6 <delayMicroseconds>:
    4fd6:	82 30       	cpi	r24, 0x02	; 2
    4fd8:	91 05       	cpc	r25, r1
    4fda:	38 f0       	brcs	.+14     	; 0x4fea <delayMicroseconds+0x14>
    4fdc:	88 0f       	add	r24, r24
    4fde:	99 1f       	adc	r25, r25
    4fe0:	88 0f       	add	r24, r24
    4fe2:	99 1f       	adc	r25, r25
    4fe4:	05 97       	sbiw	r24, 0x05	; 5
    4fe6:	01 97       	sbiw	r24, 0x01	; 1
    4fe8:	f1 f7       	brne	.-4      	; 0x4fe6 <delayMicroseconds+0x10>
    4fea:	08 95       	ret

00004fec <init>:
    4fec:	78 94       	sei
    4fee:	84 b5       	in	r24, 0x24	; 36
    4ff0:	82 60       	ori	r24, 0x02	; 2
    4ff2:	84 bd       	out	0x24, r24	; 36
    4ff4:	84 b5       	in	r24, 0x24	; 36
    4ff6:	81 60       	ori	r24, 0x01	; 1
    4ff8:	84 bd       	out	0x24, r24	; 36
    4ffa:	85 b5       	in	r24, 0x25	; 37
    4ffc:	82 60       	ori	r24, 0x02	; 2
    4ffe:	85 bd       	out	0x25, r24	; 37
    5000:	85 b5       	in	r24, 0x25	; 37
    5002:	81 60       	ori	r24, 0x01	; 1
    5004:	85 bd       	out	0x25, r24	; 37
    5006:	ee e6       	ldi	r30, 0x6E	; 110
    5008:	f0 e0       	ldi	r31, 0x00	; 0
    500a:	80 81       	ld	r24, Z
    500c:	81 60       	ori	r24, 0x01	; 1
    500e:	80 83       	st	Z, r24
    5010:	e1 e8       	ldi	r30, 0x81	; 129
    5012:	f0 e0       	ldi	r31, 0x00	; 0
    5014:	10 82       	st	Z, r1
    5016:	80 81       	ld	r24, Z
    5018:	82 60       	ori	r24, 0x02	; 2
    501a:	80 83       	st	Z, r24
    501c:	80 81       	ld	r24, Z
    501e:	81 60       	ori	r24, 0x01	; 1
    5020:	80 83       	st	Z, r24
    5022:	e0 e8       	ldi	r30, 0x80	; 128
    5024:	f0 e0       	ldi	r31, 0x00	; 0
    5026:	80 81       	ld	r24, Z
    5028:	81 60       	ori	r24, 0x01	; 1
    502a:	80 83       	st	Z, r24
    502c:	e1 eb       	ldi	r30, 0xB1	; 177
    502e:	f0 e0       	ldi	r31, 0x00	; 0
    5030:	80 81       	ld	r24, Z
    5032:	84 60       	ori	r24, 0x04	; 4
    5034:	80 83       	st	Z, r24
    5036:	e0 eb       	ldi	r30, 0xB0	; 176
    5038:	f0 e0       	ldi	r31, 0x00	; 0
    503a:	80 81       	ld	r24, Z
    503c:	81 60       	ori	r24, 0x01	; 1
    503e:	80 83       	st	Z, r24
    5040:	e1 e9       	ldi	r30, 0x91	; 145
    5042:	f0 e0       	ldi	r31, 0x00	; 0
    5044:	80 81       	ld	r24, Z
    5046:	82 60       	ori	r24, 0x02	; 2
    5048:	80 83       	st	Z, r24
    504a:	80 81       	ld	r24, Z
    504c:	81 60       	ori	r24, 0x01	; 1
    504e:	80 83       	st	Z, r24
    5050:	e0 e9       	ldi	r30, 0x90	; 144
    5052:	f0 e0       	ldi	r31, 0x00	; 0
    5054:	80 81       	ld	r24, Z
    5056:	81 60       	ori	r24, 0x01	; 1
    5058:	80 83       	st	Z, r24
    505a:	e1 ea       	ldi	r30, 0xA1	; 161
    505c:	f0 e0       	ldi	r31, 0x00	; 0
    505e:	80 81       	ld	r24, Z
    5060:	82 60       	ori	r24, 0x02	; 2
    5062:	80 83       	st	Z, r24
    5064:	80 81       	ld	r24, Z
    5066:	81 60       	ori	r24, 0x01	; 1
    5068:	80 83       	st	Z, r24
    506a:	e0 ea       	ldi	r30, 0xA0	; 160
    506c:	f0 e0       	ldi	r31, 0x00	; 0
    506e:	80 81       	ld	r24, Z
    5070:	81 60       	ori	r24, 0x01	; 1
    5072:	80 83       	st	Z, r24
    5074:	e1 e2       	ldi	r30, 0x21	; 33
    5076:	f1 e0       	ldi	r31, 0x01	; 1
    5078:	80 81       	ld	r24, Z
    507a:	82 60       	ori	r24, 0x02	; 2
    507c:	80 83       	st	Z, r24
    507e:	80 81       	ld	r24, Z
    5080:	81 60       	ori	r24, 0x01	; 1
    5082:	80 83       	st	Z, r24
    5084:	e0 e2       	ldi	r30, 0x20	; 32
    5086:	f1 e0       	ldi	r31, 0x01	; 1
    5088:	80 81       	ld	r24, Z
    508a:	81 60       	ori	r24, 0x01	; 1
    508c:	80 83       	st	Z, r24
    508e:	ea e7       	ldi	r30, 0x7A	; 122
    5090:	f0 e0       	ldi	r31, 0x00	; 0
    5092:	80 81       	ld	r24, Z
    5094:	84 60       	ori	r24, 0x04	; 4
    5096:	80 83       	st	Z, r24
    5098:	80 81       	ld	r24, Z
    509a:	82 60       	ori	r24, 0x02	; 2
    509c:	80 83       	st	Z, r24
    509e:	80 81       	ld	r24, Z
    50a0:	81 60       	ori	r24, 0x01	; 1
    50a2:	80 83       	st	Z, r24
    50a4:	80 81       	ld	r24, Z
    50a6:	80 68       	ori	r24, 0x80	; 128
    50a8:	80 83       	st	Z, r24
    50aa:	10 92 c1 00 	sts	0x00C1, r1	; 0x8000c1 <__TEXT_REGION_LENGTH__+0x7c00c1>
    50ae:	08 95       	ret

000050b0 <turnOffPWM>:
    50b0:	90 e0       	ldi	r25, 0x00	; 0
    50b2:	fc 01       	movw	r30, r24
    50b4:	31 97       	sbiw	r30, 0x01	; 1
    50b6:	e2 31       	cpi	r30, 0x12	; 18
    50b8:	f1 05       	cpc	r31, r1
    50ba:	08 f0       	brcs	.+2      	; 0x50be <turnOffPWM+0xe>
    50bc:	4d c0       	rjmp	.+154    	; 0x5158 <turnOffPWM+0xa8>
    50be:	88 27       	eor	r24, r24
    50c0:	ee 58       	subi	r30, 0x8E	; 142
    50c2:	ff 4f       	sbci	r31, 0xFF	; 255
    50c4:	8f 4f       	sbci	r24, 0xFF	; 255
    50c6:	69 c2       	rjmp	.+1234   	; 0x559a <__tablejump2__>
    50c8:	80 91 80 00 	lds	r24, 0x0080	; 0x800080 <__TEXT_REGION_LENGTH__+0x7c0080>
    50cc:	8f 77       	andi	r24, 0x7F	; 127
    50ce:	03 c0       	rjmp	.+6      	; 0x50d6 <turnOffPWM+0x26>
    50d0:	80 91 80 00 	lds	r24, 0x0080	; 0x800080 <__TEXT_REGION_LENGTH__+0x7c0080>
    50d4:	8f 7d       	andi	r24, 0xDF	; 223
    50d6:	80 93 80 00 	sts	0x0080, r24	; 0x800080 <__TEXT_REGION_LENGTH__+0x7c0080>
    50da:	08 95       	ret
    50dc:	80 91 80 00 	lds	r24, 0x0080	; 0x800080 <__TEXT_REGION_LENGTH__+0x7c0080>
    50e0:	87 7f       	andi	r24, 0xF7	; 247
    50e2:	f9 cf       	rjmp	.-14     	; 0x50d6 <turnOffPWM+0x26>
    50e4:	84 b5       	in	r24, 0x24	; 36
    50e6:	8f 77       	andi	r24, 0x7F	; 127
    50e8:	02 c0       	rjmp	.+4      	; 0x50ee <turnOffPWM+0x3e>
    50ea:	84 b5       	in	r24, 0x24	; 36
    50ec:	8f 7d       	andi	r24, 0xDF	; 223
    50ee:	84 bd       	out	0x24, r24	; 36
    50f0:	08 95       	ret
    50f2:	80 91 b0 00 	lds	r24, 0x00B0	; 0x8000b0 <__TEXT_REGION_LENGTH__+0x7c00b0>
    50f6:	8f 77       	andi	r24, 0x7F	; 127
    50f8:	03 c0       	rjmp	.+6      	; 0x5100 <turnOffPWM+0x50>
    50fa:	80 91 b0 00 	lds	r24, 0x00B0	; 0x8000b0 <__TEXT_REGION_LENGTH__+0x7c00b0>
    50fe:	8f 7d       	andi	r24, 0xDF	; 223
    5100:	80 93 b0 00 	sts	0x00B0, r24	; 0x8000b0 <__TEXT_REGION_LENGTH__+0x7c00b0>
    5104:	08 95       	ret
    5106:	80 91 90 00 	lds	r24, 0x0090	; 0x800090 <__TEXT_REGION_LENGTH__+0x7c0090>
    510a:	8f 77       	andi	r24, 0x7F	; 127
    510c:	07 c0       	rjmp	.+14     	; 0x511c <turnOffPWM+0x6c>
    510e:	80 91 90 00 	lds	r24, 0x0090	; 0x800090 <__TEXT_REGION_LENGTH__+0x7c0090>
    5112:	8f 7d       	andi	r24, 0xDF	; 223
    5114:	03 c0       	rjmp	.+6      	; 0x511c <turnOffPWM+0x6c>
    5116:	80 91 90 00 	lds	r24, 0x0090	; 0x800090 <__TEXT_REGION_LENGTH__+0x7c0090>
    511a:	87 7f       	andi	r24, 0xF7	; 247
    511c:	80 93 90 00 	sts	0x0090, r24	; 0x800090 <__TEXT_REGION_LENGTH__+0x7c0090>
    5120:	08 95       	ret
    5122:	80 91 a0 00 	lds	r24, 0x00A0	; 0x8000a0 <__TEXT_REGION_LENGTH__+0x7c00a0>
    5126:	8f 77       	andi	r24, 0x7F	; 127
    5128:	07 c0       	rjmp	.+14     	; 0x5138 <turnOffPWM+0x88>
    512a:	80 91 a0 00 	lds	r24, 0x00A0	; 0x8000a0 <__TEXT_REGION_LENGTH__+0x7c00a0>
    512e:	8f 7d       	andi	r24, 0xDF	; 223
    5130:	03 c0       	rjmp	.+6      	; 0x5138 <turnOffPWM+0x88>
    5132:	80 91 a0 00 	lds	r24, 0x00A0	; 0x8000a0 <__TEXT_REGION_LENGTH__+0x7c00a0>
    5136:	87 7f       	andi	r24, 0xF7	; 247
    5138:	80 93 a0 00 	sts	0x00A0, r24	; 0x8000a0 <__TEXT_REGION_LENGTH__+0x7c00a0>
    513c:	08 95       	ret
    513e:	80 91 20 01 	lds	r24, 0x0120	; 0x800120 <__TEXT_REGION_LENGTH__+0x7c0120>
    5142:	8f 77       	andi	r24, 0x7F	; 127
    5144:	07 c0       	rjmp	.+14     	; 0x5154 <turnOffPWM+0xa4>
    5146:	80 91 20 01 	lds	r24, 0x0120	; 0x800120 <__TEXT_REGION_LENGTH__+0x7c0120>
    514a:	8f 7d       	andi	r24, 0xDF	; 223
    514c:	03 c0       	rjmp	.+6      	; 0x5154 <turnOffPWM+0xa4>
    514e:	80 91 20 01 	lds	r24, 0x0120	; 0x800120 <__TEXT_REGION_LENGTH__+0x7c0120>
    5152:	87 7f       	andi	r24, 0xF7	; 247
    5154:	80 93 20 01 	sts	0x0120, r24	; 0x800120 <__TEXT_REGION_LENGTH__+0x7c0120>
    5158:	08 95       	ret

0000515a <pinMode>:
    515a:	cf 93       	push	r28
    515c:	df 93       	push	r29
    515e:	90 e0       	ldi	r25, 0x00	; 0
    5160:	fc 01       	movw	r30, r24
    5162:	e2 5a       	subi	r30, 0xA2	; 162
    5164:	f4 4f       	sbci	r31, 0xF4	; 244
    5166:	24 91       	lpm	r18, Z
    5168:	fc 01       	movw	r30, r24
    516a:	ec 55       	subi	r30, 0x5C	; 92
    516c:	f4 4f       	sbci	r31, 0xF4	; 244
    516e:	84 91       	lpm	r24, Z
    5170:	88 23       	and	r24, r24
    5172:	61 f1       	breq	.+88     	; 0x51cc <pinMode+0x72>
    5174:	90 e0       	ldi	r25, 0x00	; 0
    5176:	88 0f       	add	r24, r24
    5178:	99 1f       	adc	r25, r25
    517a:	fc 01       	movw	r30, r24
    517c:	e2 5e       	subi	r30, 0xE2	; 226
    517e:	f3 4f       	sbci	r31, 0xF3	; 243
    5180:	c5 91       	lpm	r28, Z+
    5182:	d4 91       	lpm	r29, Z
    5184:	fc 01       	movw	r30, r24
    5186:	ec 5f       	subi	r30, 0xFC	; 252
    5188:	f3 4f       	sbci	r31, 0xF3	; 243
    518a:	a5 91       	lpm	r26, Z+
    518c:	b4 91       	lpm	r27, Z
    518e:	61 11       	cpse	r22, r1
    5190:	09 c0       	rjmp	.+18     	; 0x51a4 <pinMode+0x4a>
    5192:	9f b7       	in	r25, 0x3f	; 63
    5194:	f8 94       	cli
    5196:	88 81       	ld	r24, Y
    5198:	20 95       	com	r18
    519a:	82 23       	and	r24, r18
    519c:	88 83       	st	Y, r24
    519e:	ec 91       	ld	r30, X
    51a0:	2e 23       	and	r18, r30
    51a2:	0b c0       	rjmp	.+22     	; 0x51ba <pinMode+0x60>
    51a4:	62 30       	cpi	r22, 0x02	; 2
    51a6:	61 f4       	brne	.+24     	; 0x51c0 <pinMode+0x66>
    51a8:	9f b7       	in	r25, 0x3f	; 63
    51aa:	f8 94       	cli
    51ac:	88 81       	ld	r24, Y
    51ae:	32 2f       	mov	r19, r18
    51b0:	30 95       	com	r19
    51b2:	83 23       	and	r24, r19
    51b4:	88 83       	st	Y, r24
    51b6:	ec 91       	ld	r30, X
    51b8:	2e 2b       	or	r18, r30
    51ba:	2c 93       	st	X, r18
    51bc:	9f bf       	out	0x3f, r25	; 63
    51be:	06 c0       	rjmp	.+12     	; 0x51cc <pinMode+0x72>
    51c0:	8f b7       	in	r24, 0x3f	; 63
    51c2:	f8 94       	cli
    51c4:	e8 81       	ld	r30, Y
    51c6:	2e 2b       	or	r18, r30
    51c8:	28 83       	st	Y, r18
    51ca:	8f bf       	out	0x3f, r24	; 63
    51cc:	df 91       	pop	r29
    51ce:	cf 91       	pop	r28
    51d0:	08 95       	ret

000051d2 <digitalWrite>:
    51d2:	1f 93       	push	r17
    51d4:	cf 93       	push	r28
    51d6:	df 93       	push	r29
    51d8:	28 2f       	mov	r18, r24
    51da:	30 e0       	ldi	r19, 0x00	; 0
    51dc:	f9 01       	movw	r30, r18
    51de:	e8 5e       	subi	r30, 0xE8	; 232
    51e0:	f4 4f       	sbci	r31, 0xF4	; 244
    51e2:	84 91       	lpm	r24, Z
    51e4:	f9 01       	movw	r30, r18
    51e6:	e2 5a       	subi	r30, 0xA2	; 162
    51e8:	f4 4f       	sbci	r31, 0xF4	; 244
    51ea:	d4 91       	lpm	r29, Z
    51ec:	f9 01       	movw	r30, r18
    51ee:	ec 55       	subi	r30, 0x5C	; 92
    51f0:	f4 4f       	sbci	r31, 0xF4	; 244
    51f2:	c4 91       	lpm	r28, Z
    51f4:	cc 23       	and	r28, r28
    51f6:	b9 f0       	breq	.+46     	; 0x5226 <digitalWrite+0x54>
    51f8:	16 2f       	mov	r17, r22
    51fa:	81 11       	cpse	r24, r1
    51fc:	59 df       	rcall	.-334    	; 0x50b0 <turnOffPWM>
    51fe:	ec 2f       	mov	r30, r28
    5200:	f0 e0       	ldi	r31, 0x00	; 0
    5202:	ee 0f       	add	r30, r30
    5204:	ff 1f       	adc	r31, r31
    5206:	ec 5f       	subi	r30, 0xFC	; 252
    5208:	f3 4f       	sbci	r31, 0xF3	; 243
    520a:	a5 91       	lpm	r26, Z+
    520c:	b4 91       	lpm	r27, Z
    520e:	9f b7       	in	r25, 0x3f	; 63
    5210:	f8 94       	cli
    5212:	11 11       	cpse	r17, r1
    5214:	04 c0       	rjmp	.+8      	; 0x521e <digitalWrite+0x4c>
    5216:	8c 91       	ld	r24, X
    5218:	d0 95       	com	r29
    521a:	d8 23       	and	r29, r24
    521c:	02 c0       	rjmp	.+4      	; 0x5222 <digitalWrite+0x50>
    521e:	ec 91       	ld	r30, X
    5220:	de 2b       	or	r29, r30
    5222:	dc 93       	st	X, r29
    5224:	9f bf       	out	0x3f, r25	; 63
    5226:	df 91       	pop	r29
    5228:	cf 91       	pop	r28
    522a:	1f 91       	pop	r17
    522c:	08 95       	ret

0000522e <digitalRead>:
    522e:	cf 93       	push	r28
    5230:	df 93       	push	r29
    5232:	28 2f       	mov	r18, r24
    5234:	30 e0       	ldi	r19, 0x00	; 0
    5236:	f9 01       	movw	r30, r18
    5238:	e8 5e       	subi	r30, 0xE8	; 232
    523a:	f4 4f       	sbci	r31, 0xF4	; 244
    523c:	84 91       	lpm	r24, Z
    523e:	f9 01       	movw	r30, r18
    5240:	e2 5a       	subi	r30, 0xA2	; 162
    5242:	f4 4f       	sbci	r31, 0xF4	; 244
    5244:	d4 91       	lpm	r29, Z
    5246:	f9 01       	movw	r30, r18
    5248:	ec 55       	subi	r30, 0x5C	; 92
    524a:	f4 4f       	sbci	r31, 0xF4	; 244
    524c:	c4 91       	lpm	r28, Z
    524e:	cc 23       	and	r28, r28
    5250:	89 f0       	breq	.+34     	; 0x5274 <digitalRead+0x46>
    5252:	81 11       	cpse	r24, r1
    5254:	2d df       	rcall	.-422    	; 0x50b0 <turnOffPWM>
    5256:	ec 2f       	mov	r30, r28
    5258:	f0 e0       	ldi	r31, 0x00	; 0
    525a:	ee 0f       	add	r30, r30
    525c:	ff 1f       	adc	r31, r31
    525e:	e6 51       	subi	r30, 0x16	; 22
    5260:	f4 4f       	sbci	r31, 0xF4	; 244
    5262:	a5 91       	lpm	r26, Z+
    5264:	b4 91       	lpm	r27, Z
    5266:	ec 91       	ld	r30, X
    5268:	ed 23       	and	r30, r29
    526a:	81 e0       	ldi	r24, 0x01	; 1
    526c:	90 e0       	ldi	r25, 0x00	; 0
    526e:	21 f4       	brne	.+8      	; 0x5278 <digitalRead+0x4a>
    5270:	80 e0       	ldi	r24, 0x00	; 0
    5272:	02 c0       	rjmp	.+4      	; 0x5278 <digitalRead+0x4a>
    5274:	80 e0       	ldi	r24, 0x00	; 0
    5276:	90 e0       	ldi	r25, 0x00	; 0
    5278:	df 91       	pop	r29
    527a:	cf 91       	pop	r28
    527c:	08 95       	ret

0000527e <_ZN6StringD1Ev>:
    527e:	fc 01       	movw	r30, r24
    5280:	80 81       	ld	r24, Z
    5282:	91 81       	ldd	r25, Z+1	; 0x01
    5284:	00 97       	sbiw	r24, 0x00	; 0
    5286:	09 f0       	breq	.+2      	; 0x528a <_ZN6StringD1Ev+0xc>
    5288:	28 c2       	rjmp	.+1104   	; 0x56da <free>
    528a:	08 95       	ret

0000528c <_ZN6String10invalidateEv>:
    528c:	cf 93       	push	r28
    528e:	df 93       	push	r29
    5290:	ec 01       	movw	r28, r24
    5292:	88 81       	ld	r24, Y
    5294:	99 81       	ldd	r25, Y+1	; 0x01
    5296:	00 97       	sbiw	r24, 0x00	; 0
    5298:	09 f0       	breq	.+2      	; 0x529c <_ZN6String10invalidateEv+0x10>
    529a:	1f d2       	rcall	.+1086   	; 0x56da <free>
    529c:	19 82       	std	Y+1, r1	; 0x01
    529e:	18 82       	st	Y, r1
    52a0:	1d 82       	std	Y+5, r1	; 0x05
    52a2:	1c 82       	std	Y+4, r1	; 0x04
    52a4:	1b 82       	std	Y+3, r1	; 0x03
    52a6:	1a 82       	std	Y+2, r1	; 0x02
    52a8:	df 91       	pop	r29
    52aa:	cf 91       	pop	r28
    52ac:	08 95       	ret

000052ae <_ZN6String12changeBufferEj>:
    52ae:	0f 93       	push	r16
    52b0:	1f 93       	push	r17
    52b2:	cf 93       	push	r28
    52b4:	df 93       	push	r29
    52b6:	ec 01       	movw	r28, r24
    52b8:	8b 01       	movw	r16, r22
    52ba:	6f 5f       	subi	r22, 0xFF	; 255
    52bc:	7f 4f       	sbci	r23, 0xFF	; 255
    52be:	88 81       	ld	r24, Y
    52c0:	99 81       	ldd	r25, Y+1	; 0x01
    52c2:	94 d2       	rcall	.+1320   	; 0x57ec <realloc>
    52c4:	00 97       	sbiw	r24, 0x00	; 0
    52c6:	31 f0       	breq	.+12     	; 0x52d4 <_ZN6String12changeBufferEj+0x26>
    52c8:	99 83       	std	Y+1, r25	; 0x01
    52ca:	88 83       	st	Y, r24
    52cc:	1b 83       	std	Y+3, r17	; 0x03
    52ce:	0a 83       	std	Y+2, r16	; 0x02
    52d0:	81 e0       	ldi	r24, 0x01	; 1
    52d2:	01 c0       	rjmp	.+2      	; 0x52d6 <_ZN6String12changeBufferEj+0x28>
    52d4:	80 e0       	ldi	r24, 0x00	; 0
    52d6:	df 91       	pop	r29
    52d8:	cf 91       	pop	r28
    52da:	1f 91       	pop	r17
    52dc:	0f 91       	pop	r16
    52de:	08 95       	ret

000052e0 <_ZN6String7reserveEj>:
    52e0:	cf 93       	push	r28
    52e2:	df 93       	push	r29
    52e4:	ec 01       	movw	r28, r24
    52e6:	88 81       	ld	r24, Y
    52e8:	99 81       	ldd	r25, Y+1	; 0x01
    52ea:	89 2b       	or	r24, r25
    52ec:	29 f0       	breq	.+10     	; 0x52f8 <_ZN6String7reserveEj+0x18>
    52ee:	8a 81       	ldd	r24, Y+2	; 0x02
    52f0:	9b 81       	ldd	r25, Y+3	; 0x03
    52f2:	86 17       	cp	r24, r22
    52f4:	97 07       	cpc	r25, r23
    52f6:	58 f4       	brcc	.+22     	; 0x530e <_ZN6String7reserveEj+0x2e>
    52f8:	ce 01       	movw	r24, r28
    52fa:	d9 df       	rcall	.-78     	; 0x52ae <_ZN6String12changeBufferEj>
    52fc:	88 23       	and	r24, r24
    52fe:	41 f0       	breq	.+16     	; 0x5310 <_ZN6String7reserveEj+0x30>
    5300:	8c 81       	ldd	r24, Y+4	; 0x04
    5302:	9d 81       	ldd	r25, Y+5	; 0x05
    5304:	89 2b       	or	r24, r25
    5306:	19 f4       	brne	.+6      	; 0x530e <_ZN6String7reserveEj+0x2e>
    5308:	e8 81       	ld	r30, Y
    530a:	f9 81       	ldd	r31, Y+1	; 0x01
    530c:	10 82       	st	Z, r1
    530e:	81 e0       	ldi	r24, 0x01	; 1
    5310:	df 91       	pop	r29
    5312:	cf 91       	pop	r28
    5314:	08 95       	ret

00005316 <_ZN6String4copyEPKcj>:
    5316:	ef 92       	push	r14
    5318:	ff 92       	push	r15
    531a:	0f 93       	push	r16
    531c:	1f 93       	push	r17
    531e:	cf 93       	push	r28
    5320:	df 93       	push	r29
    5322:	ec 01       	movw	r28, r24
    5324:	7b 01       	movw	r14, r22
    5326:	8a 01       	movw	r16, r20
    5328:	ba 01       	movw	r22, r20
    532a:	da df       	rcall	.-76     	; 0x52e0 <_ZN6String7reserveEj>
    532c:	81 11       	cpse	r24, r1
    532e:	03 c0       	rjmp	.+6      	; 0x5336 <_ZN6String4copyEPKcj+0x20>
    5330:	ce 01       	movw	r24, r28
    5332:	ac df       	rcall	.-168    	; 0x528c <_ZN6String10invalidateEv>
    5334:	06 c0       	rjmp	.+12     	; 0x5342 <_ZN6String4copyEPKcj+0x2c>
    5336:	1d 83       	std	Y+5, r17	; 0x05
    5338:	0c 83       	std	Y+4, r16	; 0x04
    533a:	b7 01       	movw	r22, r14
    533c:	88 81       	ld	r24, Y
    533e:	99 81       	ldd	r25, Y+1	; 0x01
    5340:	5a d3       	rcall	.+1716   	; 0x59f6 <strcpy>
    5342:	ce 01       	movw	r24, r28
    5344:	df 91       	pop	r29
    5346:	cf 91       	pop	r28
    5348:	1f 91       	pop	r17
    534a:	0f 91       	pop	r16
    534c:	ff 90       	pop	r15
    534e:	ef 90       	pop	r14
    5350:	08 95       	ret

00005352 <_ZN6StringC1EPKc>:
    5352:	fc 01       	movw	r30, r24
    5354:	11 82       	std	Z+1, r1	; 0x01
    5356:	10 82       	st	Z, r1
    5358:	13 82       	std	Z+3, r1	; 0x03
    535a:	12 82       	std	Z+2, r1	; 0x02
    535c:	15 82       	std	Z+5, r1	; 0x05
    535e:	14 82       	std	Z+4, r1	; 0x04
    5360:	61 15       	cp	r22, r1
    5362:	71 05       	cpc	r23, r1
    5364:	49 f0       	breq	.+18     	; 0x5378 <_ZN6StringC1EPKc+0x26>
    5366:	fb 01       	movw	r30, r22
    5368:	01 90       	ld	r0, Z+
    536a:	00 20       	and	r0, r0
    536c:	e9 f7       	brne	.-6      	; 0x5368 <_ZN6StringC1EPKc+0x16>
    536e:	31 97       	sbiw	r30, 0x01	; 1
    5370:	af 01       	movw	r20, r30
    5372:	46 1b       	sub	r20, r22
    5374:	57 0b       	sbc	r21, r23
    5376:	cf cf       	rjmp	.-98     	; 0x5316 <_ZN6String4copyEPKcj>
    5378:	08 95       	ret

0000537a <_ZN6StringaSERKS_>:
    537a:	cf 93       	push	r28
    537c:	df 93       	push	r29
    537e:	ec 01       	movw	r28, r24
    5380:	fb 01       	movw	r30, r22
    5382:	86 17       	cp	r24, r22
    5384:	97 07       	cpc	r25, r23
    5386:	51 f0       	breq	.+20     	; 0x539c <_ZN6StringaSERKS_+0x22>
    5388:	60 81       	ld	r22, Z
    538a:	71 81       	ldd	r23, Z+1	; 0x01
    538c:	61 15       	cp	r22, r1
    538e:	71 05       	cpc	r23, r1
    5390:	21 f0       	breq	.+8      	; 0x539a <_ZN6StringaSERKS_+0x20>
    5392:	44 81       	ldd	r20, Z+4	; 0x04
    5394:	55 81       	ldd	r21, Z+5	; 0x05
    5396:	bf df       	rcall	.-130    	; 0x5316 <_ZN6String4copyEPKcj>
    5398:	01 c0       	rjmp	.+2      	; 0x539c <_ZN6StringaSERKS_+0x22>
    539a:	78 df       	rcall	.-272    	; 0x528c <_ZN6String10invalidateEv>
    539c:	ce 01       	movw	r24, r28
    539e:	df 91       	pop	r29
    53a0:	cf 91       	pop	r28
    53a2:	08 95       	ret

000053a4 <_ZN6StringC1ERKS_>:
    53a4:	fc 01       	movw	r30, r24
    53a6:	11 82       	std	Z+1, r1	; 0x01
    53a8:	10 82       	st	Z, r1
    53aa:	13 82       	std	Z+3, r1	; 0x03
    53ac:	12 82       	std	Z+2, r1	; 0x02
    53ae:	15 82       	std	Z+5, r1	; 0x05
    53b0:	14 82       	std	Z+4, r1	; 0x04
    53b2:	e3 cf       	rjmp	.-58     	; 0x537a <_ZN6StringaSERKS_>

000053b4 <_ZN6StringaSEPKc>:
    53b4:	cf 93       	push	r28
    53b6:	df 93       	push	r29
    53b8:	ec 01       	movw	r28, r24
    53ba:	61 15       	cp	r22, r1
    53bc:	71 05       	cpc	r23, r1
    53be:	51 f0       	breq	.+20     	; 0x53d4 <_ZN6StringaSEPKc+0x20>
    53c0:	fb 01       	movw	r30, r22
    53c2:	01 90       	ld	r0, Z+
    53c4:	00 20       	and	r0, r0
    53c6:	e9 f7       	brne	.-6      	; 0x53c2 <_ZN6StringaSEPKc+0xe>
    53c8:	31 97       	sbiw	r30, 0x01	; 1
    53ca:	af 01       	movw	r20, r30
    53cc:	46 1b       	sub	r20, r22
    53ce:	57 0b       	sbc	r21, r23
    53d0:	a2 df       	rcall	.-188    	; 0x5316 <_ZN6String4copyEPKcj>
    53d2:	01 c0       	rjmp	.+2      	; 0x53d6 <_ZN6StringaSEPKc+0x22>
    53d4:	5b df       	rcall	.-330    	; 0x528c <_ZN6String10invalidateEv>
    53d6:	ce 01       	movw	r24, r28
    53d8:	df 91       	pop	r29
    53da:	cf 91       	pop	r28
    53dc:	08 95       	ret

000053de <_ZN6StringC1Ehh>:
    53de:	0f 93       	push	r16
    53e0:	1f 93       	push	r17
    53e2:	cf 93       	push	r28
    53e4:	df 93       	push	r29
    53e6:	cd b7       	in	r28, 0x3d	; 61
    53e8:	de b7       	in	r29, 0x3e	; 62
    53ea:	29 97       	sbiw	r28, 0x09	; 9
    53ec:	0f b6       	in	r0, 0x3f	; 63
    53ee:	f8 94       	cli
    53f0:	de bf       	out	0x3e, r29	; 62
    53f2:	0f be       	out	0x3f, r0	; 63
    53f4:	cd bf       	out	0x3d, r28	; 61
    53f6:	8c 01       	movw	r16, r24
    53f8:	86 2f       	mov	r24, r22
    53fa:	f8 01       	movw	r30, r16
    53fc:	11 82       	std	Z+1, r1	; 0x01
    53fe:	10 82       	st	Z, r1
    5400:	13 82       	std	Z+3, r1	; 0x03
    5402:	12 82       	std	Z+2, r1	; 0x02
    5404:	15 82       	std	Z+5, r1	; 0x05
    5406:	14 82       	std	Z+4, r1	; 0x04
    5408:	50 e0       	ldi	r21, 0x00	; 0
    540a:	be 01       	movw	r22, r28
    540c:	6f 5f       	subi	r22, 0xFF	; 255
    540e:	7f 4f       	sbci	r23, 0xFF	; 255
    5410:	90 e0       	ldi	r25, 0x00	; 0
    5412:	f8 d2       	rcall	.+1520   	; 0x5a04 <utoa>
    5414:	be 01       	movw	r22, r28
    5416:	6f 5f       	subi	r22, 0xFF	; 255
    5418:	7f 4f       	sbci	r23, 0xFF	; 255
    541a:	c8 01       	movw	r24, r16
    541c:	cb df       	rcall	.-106    	; 0x53b4 <_ZN6StringaSEPKc>
    541e:	29 96       	adiw	r28, 0x09	; 9
    5420:	0f b6       	in	r0, 0x3f	; 63
    5422:	f8 94       	cli
    5424:	de bf       	out	0x3e, r29	; 62
    5426:	0f be       	out	0x3f, r0	; 63
    5428:	cd bf       	out	0x3d, r28	; 61
    542a:	df 91       	pop	r29
    542c:	cf 91       	pop	r28
    542e:	1f 91       	pop	r17
    5430:	0f 91       	pop	r16
    5432:	08 95       	ret

00005434 <_ZN6String6concatEPKcj>:
    5434:	ef 92       	push	r14
    5436:	ff 92       	push	r15
    5438:	0f 93       	push	r16
    543a:	1f 93       	push	r17
    543c:	cf 93       	push	r28
    543e:	df 93       	push	r29
    5440:	61 15       	cp	r22, r1
    5442:	71 05       	cpc	r23, r1
    5444:	11 f4       	brne	.+4      	; 0x544a <_ZN6String6concatEPKcj+0x16>
    5446:	80 e0       	ldi	r24, 0x00	; 0
    5448:	1a c0       	rjmp	.+52     	; 0x547e <_ZN6String6concatEPKcj+0x4a>
    544a:	41 15       	cp	r20, r1
    544c:	51 05       	cpc	r21, r1
    544e:	b1 f0       	breq	.+44     	; 0x547c <_ZN6String6concatEPKcj+0x48>
    5450:	7b 01       	movw	r14, r22
    5452:	ec 01       	movw	r28, r24
    5454:	8c 81       	ldd	r24, Y+4	; 0x04
    5456:	9d 81       	ldd	r25, Y+5	; 0x05
    5458:	8a 01       	movw	r16, r20
    545a:	08 0f       	add	r16, r24
    545c:	19 1f       	adc	r17, r25
    545e:	b8 01       	movw	r22, r16
    5460:	ce 01       	movw	r24, r28
    5462:	3e df       	rcall	.-388    	; 0x52e0 <_ZN6String7reserveEj>
    5464:	88 23       	and	r24, r24
    5466:	79 f3       	breq	.-34     	; 0x5446 <_ZN6String6concatEPKcj+0x12>
    5468:	28 81       	ld	r18, Y
    546a:	39 81       	ldd	r19, Y+1	; 0x01
    546c:	8c 81       	ldd	r24, Y+4	; 0x04
    546e:	9d 81       	ldd	r25, Y+5	; 0x05
    5470:	b7 01       	movw	r22, r14
    5472:	82 0f       	add	r24, r18
    5474:	93 1f       	adc	r25, r19
    5476:	bf d2       	rcall	.+1406   	; 0x59f6 <strcpy>
    5478:	1d 83       	std	Y+5, r17	; 0x05
    547a:	0c 83       	std	Y+4, r16	; 0x04
    547c:	81 e0       	ldi	r24, 0x01	; 1
    547e:	df 91       	pop	r29
    5480:	cf 91       	pop	r28
    5482:	1f 91       	pop	r17
    5484:	0f 91       	pop	r16
    5486:	ff 90       	pop	r15
    5488:	ef 90       	pop	r14
    548a:	08 95       	ret

0000548c <_ZN6String6concatERKS_>:
    548c:	fb 01       	movw	r30, r22
    548e:	44 81       	ldd	r20, Z+4	; 0x04
    5490:	55 81       	ldd	r21, Z+5	; 0x05
    5492:	60 81       	ld	r22, Z
    5494:	71 81       	ldd	r23, Z+1	; 0x01
    5496:	ce cf       	rjmp	.-100    	; 0x5434 <_ZN6String6concatEPKcj>

00005498 <_ZN6String6concatEPKc>:
    5498:	61 15       	cp	r22, r1
    549a:	71 05       	cpc	r23, r1
    549c:	49 f0       	breq	.+18     	; 0x54b0 <_ZN6String6concatEPKc+0x18>
    549e:	fb 01       	movw	r30, r22
    54a0:	01 90       	ld	r0, Z+
    54a2:	00 20       	and	r0, r0
    54a4:	e9 f7       	brne	.-6      	; 0x54a0 <_ZN6String6concatEPKc+0x8>
    54a6:	31 97       	sbiw	r30, 0x01	; 1
    54a8:	af 01       	movw	r20, r30
    54aa:	46 1b       	sub	r20, r22
    54ac:	57 0b       	sbc	r21, r23
    54ae:	c2 cf       	rjmp	.-124    	; 0x5434 <_ZN6String6concatEPKcj>
    54b0:	80 e0       	ldi	r24, 0x00	; 0
    54b2:	08 95       	ret

000054b4 <_ZNK6String9compareToERKS_>:
    54b4:	cf 93       	push	r28
    54b6:	df 93       	push	r29
    54b8:	dc 01       	movw	r26, r24
    54ba:	ed 91       	ld	r30, X+
    54bc:	fc 91       	ld	r31, X
    54be:	eb 01       	movw	r28, r22
    54c0:	a8 81       	ld	r26, Y
    54c2:	b9 81       	ldd	r27, Y+1	; 0x01
    54c4:	30 97       	sbiw	r30, 0x00	; 0
    54c6:	11 f0       	breq	.+4      	; 0x54cc <_ZNK6String9compareToERKS_+0x18>
    54c8:	10 97       	sbiw	r26, 0x00	; 0
    54ca:	c9 f4       	brne	.+50     	; 0x54fe <_ZNK6String9compareToERKS_+0x4a>
    54cc:	10 97       	sbiw	r26, 0x00	; 0
    54ce:	59 f0       	breq	.+22     	; 0x54e6 <_ZNK6String9compareToERKS_+0x32>
    54d0:	eb 01       	movw	r28, r22
    54d2:	2c 81       	ldd	r18, Y+4	; 0x04
    54d4:	3d 81       	ldd	r19, Y+5	; 0x05
    54d6:	23 2b       	or	r18, r19
    54d8:	31 f0       	breq	.+12     	; 0x54e6 <_ZNK6String9compareToERKS_+0x32>
    54da:	8c 91       	ld	r24, X
    54dc:	90 e0       	ldi	r25, 0x00	; 0
    54de:	91 95       	neg	r25
    54e0:	81 95       	neg	r24
    54e2:	91 09       	sbc	r25, r1
    54e4:	13 c0       	rjmp	.+38     	; 0x550c <_ZNK6String9compareToERKS_+0x58>
    54e6:	30 97       	sbiw	r30, 0x00	; 0
    54e8:	79 f0       	breq	.+30     	; 0x5508 <_ZNK6String9compareToERKS_+0x54>
    54ea:	dc 01       	movw	r26, r24
    54ec:	14 96       	adiw	r26, 0x04	; 4
    54ee:	8d 91       	ld	r24, X+
    54f0:	9c 91       	ld	r25, X
    54f2:	15 97       	sbiw	r26, 0x05	; 5
    54f4:	89 2b       	or	r24, r25
    54f6:	41 f0       	breq	.+16     	; 0x5508 <_ZNK6String9compareToERKS_+0x54>
    54f8:	80 81       	ld	r24, Z
    54fa:	90 e0       	ldi	r25, 0x00	; 0
    54fc:	07 c0       	rjmp	.+14     	; 0x550c <_ZNK6String9compareToERKS_+0x58>
    54fe:	bd 01       	movw	r22, r26
    5500:	cf 01       	movw	r24, r30
    5502:	df 91       	pop	r29
    5504:	cf 91       	pop	r28
    5506:	6e c2       	rjmp	.+1244   	; 0x59e4 <strcmp>
    5508:	80 e0       	ldi	r24, 0x00	; 0
    550a:	90 e0       	ldi	r25, 0x00	; 0
    550c:	df 91       	pop	r29
    550e:	cf 91       	pop	r28
    5510:	08 95       	ret

00005512 <_ZNK6String6equalsERKS_>:
    5512:	fc 01       	movw	r30, r24
    5514:	44 81       	ldd	r20, Z+4	; 0x04
    5516:	55 81       	ldd	r21, Z+5	; 0x05
    5518:	fb 01       	movw	r30, r22
    551a:	24 81       	ldd	r18, Z+4	; 0x04
    551c:	35 81       	ldd	r19, Z+5	; 0x05
    551e:	42 17       	cp	r20, r18
    5520:	53 07       	cpc	r21, r19
    5522:	21 f4       	brne	.+8      	; 0x552c <_ZNK6String6equalsERKS_+0x1a>
    5524:	c7 df       	rcall	.-114    	; 0x54b4 <_ZNK6String9compareToERKS_>
    5526:	21 e0       	ldi	r18, 0x01	; 1
    5528:	89 2b       	or	r24, r25
    552a:	09 f0       	breq	.+2      	; 0x552e <_ZNK6String6equalsERKS_+0x1c>
    552c:	20 e0       	ldi	r18, 0x00	; 0
    552e:	82 2f       	mov	r24, r18
    5530:	08 95       	ret

00005532 <_ZN6String11toUpperCaseEv>:
    5532:	cf 93       	push	r28
    5534:	df 93       	push	r29
    5536:	fc 01       	movw	r30, r24
    5538:	c0 81       	ld	r28, Z
    553a:	d1 81       	ldd	r29, Z+1	; 0x01
    553c:	20 97       	sbiw	r28, 0x00	; 0
    553e:	39 f0       	breq	.+14     	; 0x554e <_ZN6String11toUpperCaseEv+0x1c>
    5540:	88 81       	ld	r24, Y
    5542:	88 23       	and	r24, r24
    5544:	21 f0       	breq	.+8      	; 0x554e <_ZN6String11toUpperCaseEv+0x1c>
    5546:	90 e0       	ldi	r25, 0x00	; 0
    5548:	35 d2       	rcall	.+1130   	; 0x59b4 <toupper>
    554a:	89 93       	st	Y+, r24
    554c:	f9 cf       	rjmp	.-14     	; 0x5540 <_ZN6String11toUpperCaseEv+0xe>
    554e:	df 91       	pop	r29
    5550:	cf 91       	pop	r28
    5552:	08 95       	ret

00005554 <yield>:
    5554:	08 95       	ret

00005556 <__udivmodsi4>:
    5556:	a1 e2       	ldi	r26, 0x21	; 33
    5558:	1a 2e       	mov	r1, r26
    555a:	aa 1b       	sub	r26, r26
    555c:	bb 1b       	sub	r27, r27
    555e:	fd 01       	movw	r30, r26
    5560:	0d c0       	rjmp	.+26     	; 0x557c <__udivmodsi4_ep>

00005562 <__udivmodsi4_loop>:
    5562:	aa 1f       	adc	r26, r26
    5564:	bb 1f       	adc	r27, r27
    5566:	ee 1f       	adc	r30, r30
    5568:	ff 1f       	adc	r31, r31
    556a:	a2 17       	cp	r26, r18
    556c:	b3 07       	cpc	r27, r19
    556e:	e4 07       	cpc	r30, r20
    5570:	f5 07       	cpc	r31, r21
    5572:	20 f0       	brcs	.+8      	; 0x557c <__udivmodsi4_ep>
    5574:	a2 1b       	sub	r26, r18
    5576:	b3 0b       	sbc	r27, r19
    5578:	e4 0b       	sbc	r30, r20
    557a:	f5 0b       	sbc	r31, r21

0000557c <__udivmodsi4_ep>:
    557c:	66 1f       	adc	r22, r22
    557e:	77 1f       	adc	r23, r23
    5580:	88 1f       	adc	r24, r24
    5582:	99 1f       	adc	r25, r25
    5584:	1a 94       	dec	r1
    5586:	69 f7       	brne	.-38     	; 0x5562 <__udivmodsi4_loop>
    5588:	60 95       	com	r22
    558a:	70 95       	com	r23
    558c:	80 95       	com	r24
    558e:	90 95       	com	r25
    5590:	9b 01       	movw	r18, r22
    5592:	ac 01       	movw	r20, r24
    5594:	bd 01       	movw	r22, r26
    5596:	cf 01       	movw	r24, r30
    5598:	08 95       	ret

0000559a <__tablejump2__>:
    559a:	ee 0f       	add	r30, r30
    559c:	ff 1f       	adc	r31, r31
    559e:	88 1f       	adc	r24, r24
    55a0:	8b bf       	out	0x3b, r24	; 59
    55a2:	07 90       	elpm	r0, Z+
    55a4:	f6 91       	elpm	r31, Z
    55a6:	e0 2d       	mov	r30, r0
    55a8:	19 94       	eijmp

000055aa <malloc>:
    55aa:	0f 93       	push	r16
    55ac:	1f 93       	push	r17
    55ae:	cf 93       	push	r28
    55b0:	df 93       	push	r29
    55b2:	82 30       	cpi	r24, 0x02	; 2
    55b4:	91 05       	cpc	r25, r1
    55b6:	10 f4       	brcc	.+4      	; 0x55bc <malloc+0x12>
    55b8:	82 e0       	ldi	r24, 0x02	; 2
    55ba:	90 e0       	ldi	r25, 0x00	; 0
    55bc:	e0 91 12 06 	lds	r30, 0x0612	; 0x800612 <__flp>
    55c0:	f0 91 13 06 	lds	r31, 0x0613	; 0x800613 <__flp+0x1>
    55c4:	20 e0       	ldi	r18, 0x00	; 0
    55c6:	30 e0       	ldi	r19, 0x00	; 0
    55c8:	a0 e0       	ldi	r26, 0x00	; 0
    55ca:	b0 e0       	ldi	r27, 0x00	; 0
    55cc:	30 97       	sbiw	r30, 0x00	; 0
    55ce:	19 f1       	breq	.+70     	; 0x5616 <malloc+0x6c>
    55d0:	40 81       	ld	r20, Z
    55d2:	51 81       	ldd	r21, Z+1	; 0x01
    55d4:	02 81       	ldd	r16, Z+2	; 0x02
    55d6:	13 81       	ldd	r17, Z+3	; 0x03
    55d8:	48 17       	cp	r20, r24
    55da:	59 07       	cpc	r21, r25
    55dc:	c8 f0       	brcs	.+50     	; 0x5610 <malloc+0x66>
    55de:	84 17       	cp	r24, r20
    55e0:	95 07       	cpc	r25, r21
    55e2:	69 f4       	brne	.+26     	; 0x55fe <malloc+0x54>
    55e4:	10 97       	sbiw	r26, 0x00	; 0
    55e6:	31 f0       	breq	.+12     	; 0x55f4 <malloc+0x4a>
    55e8:	12 96       	adiw	r26, 0x02	; 2
    55ea:	0c 93       	st	X, r16
    55ec:	12 97       	sbiw	r26, 0x02	; 2
    55ee:	13 96       	adiw	r26, 0x03	; 3
    55f0:	1c 93       	st	X, r17
    55f2:	27 c0       	rjmp	.+78     	; 0x5642 <malloc+0x98>
    55f4:	00 93 12 06 	sts	0x0612, r16	; 0x800612 <__flp>
    55f8:	10 93 13 06 	sts	0x0613, r17	; 0x800613 <__flp+0x1>
    55fc:	22 c0       	rjmp	.+68     	; 0x5642 <malloc+0x98>
    55fe:	21 15       	cp	r18, r1
    5600:	31 05       	cpc	r19, r1
    5602:	19 f0       	breq	.+6      	; 0x560a <malloc+0x60>
    5604:	42 17       	cp	r20, r18
    5606:	53 07       	cpc	r21, r19
    5608:	18 f4       	brcc	.+6      	; 0x5610 <malloc+0x66>
    560a:	9a 01       	movw	r18, r20
    560c:	bd 01       	movw	r22, r26
    560e:	ef 01       	movw	r28, r30
    5610:	df 01       	movw	r26, r30
    5612:	f8 01       	movw	r30, r16
    5614:	db cf       	rjmp	.-74     	; 0x55cc <malloc+0x22>
    5616:	21 15       	cp	r18, r1
    5618:	31 05       	cpc	r19, r1
    561a:	f9 f0       	breq	.+62     	; 0x565a <malloc+0xb0>
    561c:	28 1b       	sub	r18, r24
    561e:	39 0b       	sbc	r19, r25
    5620:	24 30       	cpi	r18, 0x04	; 4
    5622:	31 05       	cpc	r19, r1
    5624:	80 f4       	brcc	.+32     	; 0x5646 <malloc+0x9c>
    5626:	8a 81       	ldd	r24, Y+2	; 0x02
    5628:	9b 81       	ldd	r25, Y+3	; 0x03
    562a:	61 15       	cp	r22, r1
    562c:	71 05       	cpc	r23, r1
    562e:	21 f0       	breq	.+8      	; 0x5638 <malloc+0x8e>
    5630:	fb 01       	movw	r30, r22
    5632:	93 83       	std	Z+3, r25	; 0x03
    5634:	82 83       	std	Z+2, r24	; 0x02
    5636:	04 c0       	rjmp	.+8      	; 0x5640 <malloc+0x96>
    5638:	90 93 13 06 	sts	0x0613, r25	; 0x800613 <__flp+0x1>
    563c:	80 93 12 06 	sts	0x0612, r24	; 0x800612 <__flp>
    5640:	fe 01       	movw	r30, r28
    5642:	32 96       	adiw	r30, 0x02	; 2
    5644:	44 c0       	rjmp	.+136    	; 0x56ce <malloc+0x124>
    5646:	fe 01       	movw	r30, r28
    5648:	e2 0f       	add	r30, r18
    564a:	f3 1f       	adc	r31, r19
    564c:	81 93       	st	Z+, r24
    564e:	91 93       	st	Z+, r25
    5650:	22 50       	subi	r18, 0x02	; 2
    5652:	31 09       	sbc	r19, r1
    5654:	39 83       	std	Y+1, r19	; 0x01
    5656:	28 83       	st	Y, r18
    5658:	3a c0       	rjmp	.+116    	; 0x56ce <malloc+0x124>
    565a:	20 91 10 06 	lds	r18, 0x0610	; 0x800610 <__brkval>
    565e:	30 91 11 06 	lds	r19, 0x0611	; 0x800611 <__brkval+0x1>
    5662:	23 2b       	or	r18, r19
    5664:	41 f4       	brne	.+16     	; 0x5676 <malloc+0xcc>
    5666:	20 91 02 02 	lds	r18, 0x0202	; 0x800202 <__malloc_heap_start>
    566a:	30 91 03 02 	lds	r19, 0x0203	; 0x800203 <__malloc_heap_start+0x1>
    566e:	30 93 11 06 	sts	0x0611, r19	; 0x800611 <__brkval+0x1>
    5672:	20 93 10 06 	sts	0x0610, r18	; 0x800610 <__brkval>
    5676:	20 91 00 02 	lds	r18, 0x0200	; 0x800200 <__DATA_REGION_ORIGIN__>
    567a:	30 91 01 02 	lds	r19, 0x0201	; 0x800201 <__DATA_REGION_ORIGIN__+0x1>
    567e:	21 15       	cp	r18, r1
    5680:	31 05       	cpc	r19, r1
    5682:	41 f4       	brne	.+16     	; 0x5694 <malloc+0xea>
    5684:	2d b7       	in	r18, 0x3d	; 61
    5686:	3e b7       	in	r19, 0x3e	; 62
    5688:	40 91 04 02 	lds	r20, 0x0204	; 0x800204 <__malloc_margin>
    568c:	50 91 05 02 	lds	r21, 0x0205	; 0x800205 <__malloc_margin+0x1>
    5690:	24 1b       	sub	r18, r20
    5692:	35 0b       	sbc	r19, r21
    5694:	e0 91 10 06 	lds	r30, 0x0610	; 0x800610 <__brkval>
    5698:	f0 91 11 06 	lds	r31, 0x0611	; 0x800611 <__brkval+0x1>
    569c:	e2 17       	cp	r30, r18
    569e:	f3 07       	cpc	r31, r19
    56a0:	a0 f4       	brcc	.+40     	; 0x56ca <malloc+0x120>
    56a2:	2e 1b       	sub	r18, r30
    56a4:	3f 0b       	sbc	r19, r31
    56a6:	28 17       	cp	r18, r24
    56a8:	39 07       	cpc	r19, r25
    56aa:	78 f0       	brcs	.+30     	; 0x56ca <malloc+0x120>
    56ac:	ac 01       	movw	r20, r24
    56ae:	4e 5f       	subi	r20, 0xFE	; 254
    56b0:	5f 4f       	sbci	r21, 0xFF	; 255
    56b2:	24 17       	cp	r18, r20
    56b4:	35 07       	cpc	r19, r21
    56b6:	48 f0       	brcs	.+18     	; 0x56ca <malloc+0x120>
    56b8:	4e 0f       	add	r20, r30
    56ba:	5f 1f       	adc	r21, r31
    56bc:	50 93 11 06 	sts	0x0611, r21	; 0x800611 <__brkval+0x1>
    56c0:	40 93 10 06 	sts	0x0610, r20	; 0x800610 <__brkval>
    56c4:	81 93       	st	Z+, r24
    56c6:	91 93       	st	Z+, r25
    56c8:	02 c0       	rjmp	.+4      	; 0x56ce <malloc+0x124>
    56ca:	e0 e0       	ldi	r30, 0x00	; 0
    56cc:	f0 e0       	ldi	r31, 0x00	; 0
    56ce:	cf 01       	movw	r24, r30
    56d0:	df 91       	pop	r29
    56d2:	cf 91       	pop	r28
    56d4:	1f 91       	pop	r17
    56d6:	0f 91       	pop	r16
    56d8:	08 95       	ret

000056da <free>:
    56da:	cf 93       	push	r28
    56dc:	df 93       	push	r29
    56de:	00 97       	sbiw	r24, 0x00	; 0
    56e0:	09 f4       	brne	.+2      	; 0x56e4 <free+0xa>
    56e2:	81 c0       	rjmp	.+258    	; 0x57e6 <free+0x10c>
    56e4:	fc 01       	movw	r30, r24
    56e6:	32 97       	sbiw	r30, 0x02	; 2
    56e8:	13 82       	std	Z+3, r1	; 0x03
    56ea:	12 82       	std	Z+2, r1	; 0x02
    56ec:	a0 91 12 06 	lds	r26, 0x0612	; 0x800612 <__flp>
    56f0:	b0 91 13 06 	lds	r27, 0x0613	; 0x800613 <__flp+0x1>
    56f4:	10 97       	sbiw	r26, 0x00	; 0
    56f6:	81 f4       	brne	.+32     	; 0x5718 <free+0x3e>
    56f8:	20 81       	ld	r18, Z
    56fa:	31 81       	ldd	r19, Z+1	; 0x01
    56fc:	82 0f       	add	r24, r18
    56fe:	93 1f       	adc	r25, r19
    5700:	20 91 10 06 	lds	r18, 0x0610	; 0x800610 <__brkval>
    5704:	30 91 11 06 	lds	r19, 0x0611	; 0x800611 <__brkval+0x1>
    5708:	28 17       	cp	r18, r24
    570a:	39 07       	cpc	r19, r25
    570c:	51 f5       	brne	.+84     	; 0x5762 <free+0x88>
    570e:	f0 93 11 06 	sts	0x0611, r31	; 0x800611 <__brkval+0x1>
    5712:	e0 93 10 06 	sts	0x0610, r30	; 0x800610 <__brkval>
    5716:	67 c0       	rjmp	.+206    	; 0x57e6 <free+0x10c>
    5718:	ed 01       	movw	r28, r26
    571a:	20 e0       	ldi	r18, 0x00	; 0
    571c:	30 e0       	ldi	r19, 0x00	; 0
    571e:	ce 17       	cp	r28, r30
    5720:	df 07       	cpc	r29, r31
    5722:	40 f4       	brcc	.+16     	; 0x5734 <free+0x5a>
    5724:	4a 81       	ldd	r20, Y+2	; 0x02
    5726:	5b 81       	ldd	r21, Y+3	; 0x03
    5728:	9e 01       	movw	r18, r28
    572a:	41 15       	cp	r20, r1
    572c:	51 05       	cpc	r21, r1
    572e:	f1 f0       	breq	.+60     	; 0x576c <free+0x92>
    5730:	ea 01       	movw	r28, r20
    5732:	f5 cf       	rjmp	.-22     	; 0x571e <free+0x44>
    5734:	d3 83       	std	Z+3, r29	; 0x03
    5736:	c2 83       	std	Z+2, r28	; 0x02
    5738:	40 81       	ld	r20, Z
    573a:	51 81       	ldd	r21, Z+1	; 0x01
    573c:	84 0f       	add	r24, r20
    573e:	95 1f       	adc	r25, r21
    5740:	c8 17       	cp	r28, r24
    5742:	d9 07       	cpc	r29, r25
    5744:	59 f4       	brne	.+22     	; 0x575c <free+0x82>
    5746:	88 81       	ld	r24, Y
    5748:	99 81       	ldd	r25, Y+1	; 0x01
    574a:	84 0f       	add	r24, r20
    574c:	95 1f       	adc	r25, r21
    574e:	02 96       	adiw	r24, 0x02	; 2
    5750:	91 83       	std	Z+1, r25	; 0x01
    5752:	80 83       	st	Z, r24
    5754:	8a 81       	ldd	r24, Y+2	; 0x02
    5756:	9b 81       	ldd	r25, Y+3	; 0x03
    5758:	93 83       	std	Z+3, r25	; 0x03
    575a:	82 83       	std	Z+2, r24	; 0x02
    575c:	21 15       	cp	r18, r1
    575e:	31 05       	cpc	r19, r1
    5760:	29 f4       	brne	.+10     	; 0x576c <free+0x92>
    5762:	f0 93 13 06 	sts	0x0613, r31	; 0x800613 <__flp+0x1>
    5766:	e0 93 12 06 	sts	0x0612, r30	; 0x800612 <__flp>
    576a:	3d c0       	rjmp	.+122    	; 0x57e6 <free+0x10c>
    576c:	e9 01       	movw	r28, r18
    576e:	fb 83       	std	Y+3, r31	; 0x03
    5770:	ea 83       	std	Y+2, r30	; 0x02
    5772:	49 91       	ld	r20, Y+
    5774:	59 91       	ld	r21, Y+
    5776:	c4 0f       	add	r28, r20
    5778:	d5 1f       	adc	r29, r21
    577a:	ec 17       	cp	r30, r28
    577c:	fd 07       	cpc	r31, r29
    577e:	61 f4       	brne	.+24     	; 0x5798 <free+0xbe>
    5780:	80 81       	ld	r24, Z
    5782:	91 81       	ldd	r25, Z+1	; 0x01
    5784:	84 0f       	add	r24, r20
    5786:	95 1f       	adc	r25, r21
    5788:	02 96       	adiw	r24, 0x02	; 2
    578a:	e9 01       	movw	r28, r18
    578c:	99 83       	std	Y+1, r25	; 0x01
    578e:	88 83       	st	Y, r24
    5790:	82 81       	ldd	r24, Z+2	; 0x02
    5792:	93 81       	ldd	r25, Z+3	; 0x03
    5794:	9b 83       	std	Y+3, r25	; 0x03
    5796:	8a 83       	std	Y+2, r24	; 0x02
    5798:	e0 e0       	ldi	r30, 0x00	; 0
    579a:	f0 e0       	ldi	r31, 0x00	; 0
    579c:	12 96       	adiw	r26, 0x02	; 2
    579e:	8d 91       	ld	r24, X+
    57a0:	9c 91       	ld	r25, X
    57a2:	13 97       	sbiw	r26, 0x03	; 3
    57a4:	00 97       	sbiw	r24, 0x00	; 0
    57a6:	19 f0       	breq	.+6      	; 0x57ae <free+0xd4>
    57a8:	fd 01       	movw	r30, r26
    57aa:	dc 01       	movw	r26, r24
    57ac:	f7 cf       	rjmp	.-18     	; 0x579c <free+0xc2>
    57ae:	8d 91       	ld	r24, X+
    57b0:	9c 91       	ld	r25, X
    57b2:	11 97       	sbiw	r26, 0x01	; 1
    57b4:	9d 01       	movw	r18, r26
    57b6:	2e 5f       	subi	r18, 0xFE	; 254
    57b8:	3f 4f       	sbci	r19, 0xFF	; 255
    57ba:	82 0f       	add	r24, r18
    57bc:	93 1f       	adc	r25, r19
    57be:	20 91 10 06 	lds	r18, 0x0610	; 0x800610 <__brkval>
    57c2:	30 91 11 06 	lds	r19, 0x0611	; 0x800611 <__brkval+0x1>
    57c6:	28 17       	cp	r18, r24
    57c8:	39 07       	cpc	r19, r25
    57ca:	69 f4       	brne	.+26     	; 0x57e6 <free+0x10c>
    57cc:	30 97       	sbiw	r30, 0x00	; 0
    57ce:	29 f4       	brne	.+10     	; 0x57da <free+0x100>
    57d0:	10 92 13 06 	sts	0x0613, r1	; 0x800613 <__flp+0x1>
    57d4:	10 92 12 06 	sts	0x0612, r1	; 0x800612 <__flp>
    57d8:	02 c0       	rjmp	.+4      	; 0x57de <free+0x104>
    57da:	13 82       	std	Z+3, r1	; 0x03
    57dc:	12 82       	std	Z+2, r1	; 0x02
    57de:	b0 93 11 06 	sts	0x0611, r27	; 0x800611 <__brkval+0x1>
    57e2:	a0 93 10 06 	sts	0x0610, r26	; 0x800610 <__brkval>
    57e6:	df 91       	pop	r29
    57e8:	cf 91       	pop	r28
    57ea:	08 95       	ret

000057ec <realloc>:
    57ec:	6f 92       	push	r6
    57ee:	7f 92       	push	r7
    57f0:	8f 92       	push	r8
    57f2:	9f 92       	push	r9
    57f4:	af 92       	push	r10
    57f6:	bf 92       	push	r11
    57f8:	cf 92       	push	r12
    57fa:	df 92       	push	r13
    57fc:	ef 92       	push	r14
    57fe:	ff 92       	push	r15
    5800:	0f 93       	push	r16
    5802:	1f 93       	push	r17
    5804:	cf 93       	push	r28
    5806:	df 93       	push	r29
    5808:	00 97       	sbiw	r24, 0x00	; 0
    580a:	81 f4       	brne	.+32     	; 0x582c <realloc+0x40>
    580c:	cb 01       	movw	r24, r22
    580e:	df 91       	pop	r29
    5810:	cf 91       	pop	r28
    5812:	1f 91       	pop	r17
    5814:	0f 91       	pop	r16
    5816:	ff 90       	pop	r15
    5818:	ef 90       	pop	r14
    581a:	df 90       	pop	r13
    581c:	cf 90       	pop	r12
    581e:	bf 90       	pop	r11
    5820:	af 90       	pop	r10
    5822:	9f 90       	pop	r9
    5824:	8f 90       	pop	r8
    5826:	7f 90       	pop	r7
    5828:	6f 90       	pop	r6
    582a:	bf ce       	rjmp	.-642    	; 0x55aa <malloc>
    582c:	fc 01       	movw	r30, r24
    582e:	e6 0f       	add	r30, r22
    5830:	f7 1f       	adc	r31, r23
    5832:	9c 01       	movw	r18, r24
    5834:	22 50       	subi	r18, 0x02	; 2
    5836:	31 09       	sbc	r19, r1
    5838:	e2 17       	cp	r30, r18
    583a:	f3 07       	cpc	r31, r19
    583c:	08 f4       	brcc	.+2      	; 0x5840 <realloc+0x54>
    583e:	a5 c0       	rjmp	.+330    	; 0x598a <realloc+0x19e>
    5840:	ec 01       	movw	r28, r24
    5842:	d9 01       	movw	r26, r18
    5844:	0d 91       	ld	r16, X+
    5846:	1c 91       	ld	r17, X
    5848:	11 97       	sbiw	r26, 0x01	; 1
    584a:	06 17       	cp	r16, r22
    584c:	17 07       	cpc	r17, r23
    584e:	a8 f0       	brcs	.+42     	; 0x587a <realloc+0x8e>
    5850:	05 30       	cpi	r16, 0x05	; 5
    5852:	11 05       	cpc	r17, r1
    5854:	08 f4       	brcc	.+2      	; 0x5858 <realloc+0x6c>
    5856:	97 c0       	rjmp	.+302    	; 0x5986 <realloc+0x19a>
    5858:	c8 01       	movw	r24, r16
    585a:	04 97       	sbiw	r24, 0x04	; 4
    585c:	86 17       	cp	r24, r22
    585e:	97 07       	cpc	r25, r23
    5860:	08 f4       	brcc	.+2      	; 0x5864 <realloc+0x78>
    5862:	91 c0       	rjmp	.+290    	; 0x5986 <realloc+0x19a>
    5864:	02 50       	subi	r16, 0x02	; 2
    5866:	11 09       	sbc	r17, r1
    5868:	06 1b       	sub	r16, r22
    586a:	17 0b       	sbc	r17, r23
    586c:	01 93       	st	Z+, r16
    586e:	11 93       	st	Z+, r17
    5870:	6d 93       	st	X+, r22
    5872:	7c 93       	st	X, r23
    5874:	cf 01       	movw	r24, r30
    5876:	31 df       	rcall	.-414    	; 0x56da <free>
    5878:	86 c0       	rjmp	.+268    	; 0x5986 <realloc+0x19a>
    587a:	5b 01       	movw	r10, r22
    587c:	a0 1a       	sub	r10, r16
    587e:	b1 0a       	sbc	r11, r17
    5880:	4c 01       	movw	r8, r24
    5882:	80 0e       	add	r8, r16
    5884:	91 1e       	adc	r9, r17
    5886:	a0 91 12 06 	lds	r26, 0x0612	; 0x800612 <__flp>
    588a:	b0 91 13 06 	lds	r27, 0x0613	; 0x800613 <__flp+0x1>
    588e:	61 2c       	mov	r6, r1
    5890:	71 2c       	mov	r7, r1
    5892:	e1 2c       	mov	r14, r1
    5894:	f1 2c       	mov	r15, r1
    5896:	10 97       	sbiw	r26, 0x00	; 0
    5898:	09 f4       	brne	.+2      	; 0x589c <realloc+0xb0>
    589a:	46 c0       	rjmp	.+140    	; 0x5928 <realloc+0x13c>
    589c:	8d 91       	ld	r24, X+
    589e:	9c 91       	ld	r25, X
    58a0:	11 97       	sbiw	r26, 0x01	; 1
    58a2:	a8 15       	cp	r26, r8
    58a4:	b9 05       	cpc	r27, r9
    58a6:	b1 f5       	brne	.+108    	; 0x5914 <realloc+0x128>
    58a8:	6c 01       	movw	r12, r24
    58aa:	42 e0       	ldi	r20, 0x02	; 2
    58ac:	c4 0e       	add	r12, r20
    58ae:	d1 1c       	adc	r13, r1
    58b0:	ca 14       	cp	r12, r10
    58b2:	db 04       	cpc	r13, r11
    58b4:	78 f1       	brcs	.+94     	; 0x5914 <realloc+0x128>
    58b6:	4c 01       	movw	r8, r24
    58b8:	8a 18       	sub	r8, r10
    58ba:	9b 08       	sbc	r9, r11
    58bc:	64 01       	movw	r12, r8
    58be:	42 e0       	ldi	r20, 0x02	; 2
    58c0:	c4 0e       	add	r12, r20
    58c2:	d1 1c       	adc	r13, r1
    58c4:	12 96       	adiw	r26, 0x02	; 2
    58c6:	bc 90       	ld	r11, X
    58c8:	12 97       	sbiw	r26, 0x02	; 2
    58ca:	13 96       	adiw	r26, 0x03	; 3
    58cc:	ac 91       	ld	r26, X
    58ce:	b5 e0       	ldi	r27, 0x05	; 5
    58d0:	cb 16       	cp	r12, r27
    58d2:	d1 04       	cpc	r13, r1
    58d4:	40 f0       	brcs	.+16     	; 0x58e6 <realloc+0xfa>
    58d6:	b2 82       	std	Z+2, r11	; 0x02
    58d8:	a3 83       	std	Z+3, r26	; 0x03
    58da:	91 82       	std	Z+1, r9	; 0x01
    58dc:	80 82       	st	Z, r8
    58de:	d9 01       	movw	r26, r18
    58e0:	6d 93       	st	X+, r22
    58e2:	7c 93       	st	X, r23
    58e4:	09 c0       	rjmp	.+18     	; 0x58f8 <realloc+0x10c>
    58e6:	0e 5f       	subi	r16, 0xFE	; 254
    58e8:	1f 4f       	sbci	r17, 0xFF	; 255
    58ea:	80 0f       	add	r24, r16
    58ec:	91 1f       	adc	r25, r17
    58ee:	f9 01       	movw	r30, r18
    58f0:	91 83       	std	Z+1, r25	; 0x01
    58f2:	80 83       	st	Z, r24
    58f4:	eb 2d       	mov	r30, r11
    58f6:	fa 2f       	mov	r31, r26
    58f8:	e1 14       	cp	r14, r1
    58fa:	f1 04       	cpc	r15, r1
    58fc:	31 f0       	breq	.+12     	; 0x590a <realloc+0x11e>
    58fe:	d7 01       	movw	r26, r14
    5900:	13 96       	adiw	r26, 0x03	; 3
    5902:	fc 93       	st	X, r31
    5904:	ee 93       	st	-X, r30
    5906:	12 97       	sbiw	r26, 0x02	; 2
    5908:	3e c0       	rjmp	.+124    	; 0x5986 <realloc+0x19a>
    590a:	f0 93 13 06 	sts	0x0613, r31	; 0x800613 <__flp+0x1>
    590e:	e0 93 12 06 	sts	0x0612, r30	; 0x800612 <__flp>
    5912:	39 c0       	rjmp	.+114    	; 0x5986 <realloc+0x19a>
    5914:	68 16       	cp	r6, r24
    5916:	79 06       	cpc	r7, r25
    5918:	08 f4       	brcc	.+2      	; 0x591c <realloc+0x130>
    591a:	3c 01       	movw	r6, r24
    591c:	7d 01       	movw	r14, r26
    591e:	12 96       	adiw	r26, 0x02	; 2
    5920:	0d 90       	ld	r0, X+
    5922:	bc 91       	ld	r27, X
    5924:	a0 2d       	mov	r26, r0
    5926:	b7 cf       	rjmp	.-146    	; 0x5896 <realloc+0xaa>
    5928:	80 91 10 06 	lds	r24, 0x0610	; 0x800610 <__brkval>
    592c:	90 91 11 06 	lds	r25, 0x0611	; 0x800611 <__brkval+0x1>
    5930:	88 16       	cp	r8, r24
    5932:	99 06       	cpc	r9, r25
    5934:	e1 f4       	brne	.+56     	; 0x596e <realloc+0x182>
    5936:	66 16       	cp	r6, r22
    5938:	77 06       	cpc	r7, r23
    593a:	c8 f4       	brcc	.+50     	; 0x596e <realloc+0x182>
    593c:	80 91 00 02 	lds	r24, 0x0200	; 0x800200 <__DATA_REGION_ORIGIN__>
    5940:	90 91 01 02 	lds	r25, 0x0201	; 0x800201 <__DATA_REGION_ORIGIN__+0x1>
    5944:	00 97       	sbiw	r24, 0x00	; 0
    5946:	41 f4       	brne	.+16     	; 0x5958 <realloc+0x16c>
    5948:	8d b7       	in	r24, 0x3d	; 61
    594a:	9e b7       	in	r25, 0x3e	; 62
    594c:	40 91 04 02 	lds	r20, 0x0204	; 0x800204 <__malloc_margin>
    5950:	50 91 05 02 	lds	r21, 0x0205	; 0x800205 <__malloc_margin+0x1>
    5954:	84 1b       	sub	r24, r20
    5956:	95 0b       	sbc	r25, r21
    5958:	e8 17       	cp	r30, r24
    595a:	f9 07       	cpc	r31, r25
    595c:	b0 f4       	brcc	.+44     	; 0x598a <realloc+0x19e>
    595e:	f0 93 11 06 	sts	0x0611, r31	; 0x800611 <__brkval+0x1>
    5962:	e0 93 10 06 	sts	0x0610, r30	; 0x800610 <__brkval>
    5966:	f9 01       	movw	r30, r18
    5968:	71 83       	std	Z+1, r23	; 0x01
    596a:	60 83       	st	Z, r22
    596c:	0c c0       	rjmp	.+24     	; 0x5986 <realloc+0x19a>
    596e:	cb 01       	movw	r24, r22
    5970:	1c de       	rcall	.-968    	; 0x55aa <malloc>
    5972:	7c 01       	movw	r14, r24
    5974:	00 97       	sbiw	r24, 0x00	; 0
    5976:	49 f0       	breq	.+18     	; 0x598a <realloc+0x19e>
    5978:	a8 01       	movw	r20, r16
    597a:	be 01       	movw	r22, r28
    597c:	23 d0       	rcall	.+70     	; 0x59c4 <memcpy>
    597e:	ce 01       	movw	r24, r28
    5980:	ac de       	rcall	.-680    	; 0x56da <free>
    5982:	c7 01       	movw	r24, r14
    5984:	04 c0       	rjmp	.+8      	; 0x598e <realloc+0x1a2>
    5986:	ce 01       	movw	r24, r28
    5988:	02 c0       	rjmp	.+4      	; 0x598e <realloc+0x1a2>
    598a:	80 e0       	ldi	r24, 0x00	; 0
    598c:	90 e0       	ldi	r25, 0x00	; 0
    598e:	df 91       	pop	r29
    5990:	cf 91       	pop	r28
    5992:	1f 91       	pop	r17
    5994:	0f 91       	pop	r16
    5996:	ff 90       	pop	r15
    5998:	ef 90       	pop	r14
    599a:	df 90       	pop	r13
    599c:	cf 90       	pop	r12
    599e:	bf 90       	pop	r11
    59a0:	af 90       	pop	r10
    59a2:	9f 90       	pop	r9
    59a4:	8f 90       	pop	r8
    59a6:	7f 90       	pop	r7
    59a8:	6f 90       	pop	r6
    59aa:	08 95       	ret

000059ac <abort>:
    59ac:	81 e0       	ldi	r24, 0x01	; 1
    59ae:	90 e0       	ldi	r25, 0x00	; 0
    59b0:	f8 94       	cli
    59b2:	5b c0       	rjmp	.+182    	; 0x5a6a <__do_global_dtors>

000059b4 <toupper>:
    59b4:	91 11       	cpse	r25, r1
    59b6:	08 95       	ret
    59b8:	81 56       	subi	r24, 0x61	; 97
    59ba:	8a 51       	subi	r24, 0x1A	; 26
    59bc:	08 f4       	brcc	.+2      	; 0x59c0 <toupper+0xc>
    59be:	80 52       	subi	r24, 0x20	; 32
    59c0:	85 58       	subi	r24, 0x85	; 133
    59c2:	08 95       	ret

000059c4 <memcpy>:
    59c4:	fb 01       	movw	r30, r22
    59c6:	dc 01       	movw	r26, r24
    59c8:	02 c0       	rjmp	.+4      	; 0x59ce <memcpy+0xa>
    59ca:	01 90       	ld	r0, Z+
    59cc:	0d 92       	st	X+, r0
    59ce:	41 50       	subi	r20, 0x01	; 1
    59d0:	50 40       	sbci	r21, 0x00	; 0
    59d2:	d8 f7       	brcc	.-10     	; 0x59ca <memcpy+0x6>
    59d4:	08 95       	ret

000059d6 <memset>:
    59d6:	dc 01       	movw	r26, r24
    59d8:	01 c0       	rjmp	.+2      	; 0x59dc <memset+0x6>
    59da:	6d 93       	st	X+, r22
    59dc:	41 50       	subi	r20, 0x01	; 1
    59de:	50 40       	sbci	r21, 0x00	; 0
    59e0:	e0 f7       	brcc	.-8      	; 0x59da <memset+0x4>
    59e2:	08 95       	ret

000059e4 <strcmp>:
    59e4:	fb 01       	movw	r30, r22
    59e6:	dc 01       	movw	r26, r24
    59e8:	8d 91       	ld	r24, X+
    59ea:	01 90       	ld	r0, Z+
    59ec:	80 19       	sub	r24, r0
    59ee:	01 10       	cpse	r0, r1
    59f0:	d9 f3       	breq	.-10     	; 0x59e8 <strcmp+0x4>
    59f2:	99 0b       	sbc	r25, r25
    59f4:	08 95       	ret

000059f6 <strcpy>:
    59f6:	fb 01       	movw	r30, r22
    59f8:	dc 01       	movw	r26, r24
    59fa:	01 90       	ld	r0, Z+
    59fc:	0d 92       	st	X+, r0
    59fe:	00 20       	and	r0, r0
    5a00:	e1 f7       	brne	.-8      	; 0x59fa <strcpy+0x4>
    5a02:	08 95       	ret

00005a04 <utoa>:
    5a04:	45 32       	cpi	r20, 0x25	; 37
    5a06:	51 05       	cpc	r21, r1
    5a08:	18 f4       	brcc	.+6      	; 0x5a10 <utoa+0xc>
    5a0a:	42 30       	cpi	r20, 0x02	; 2
    5a0c:	08 f0       	brcs	.+2      	; 0x5a10 <utoa+0xc>
    5a0e:	04 c0       	rjmp	.+8      	; 0x5a18 <__utoa_ncheck>
    5a10:	fb 01       	movw	r30, r22
    5a12:	10 82       	st	Z, r1
    5a14:	cb 01       	movw	r24, r22
    5a16:	08 95       	ret

00005a18 <__utoa_ncheck>:
    5a18:	bb 27       	eor	r27, r27

00005a1a <__utoa_common>:
    5a1a:	fb 01       	movw	r30, r22
    5a1c:	55 27       	eor	r21, r21
    5a1e:	aa 27       	eor	r26, r26
    5a20:	88 0f       	add	r24, r24
    5a22:	99 1f       	adc	r25, r25
    5a24:	aa 1f       	adc	r26, r26
    5a26:	a4 17       	cp	r26, r20
    5a28:	10 f0       	brcs	.+4      	; 0x5a2e <__utoa_common+0x14>
    5a2a:	a4 1b       	sub	r26, r20
    5a2c:	83 95       	inc	r24
    5a2e:	50 51       	subi	r21, 0x10	; 16
    5a30:	b9 f7       	brne	.-18     	; 0x5a20 <__utoa_common+0x6>
    5a32:	a0 5d       	subi	r26, 0xD0	; 208
    5a34:	aa 33       	cpi	r26, 0x3A	; 58
    5a36:	08 f0       	brcs	.+2      	; 0x5a3a <__utoa_common+0x20>
    5a38:	a9 5d       	subi	r26, 0xD9	; 217
    5a3a:	a1 93       	st	Z+, r26
    5a3c:	00 97       	sbiw	r24, 0x00	; 0
    5a3e:	79 f7       	brne	.-34     	; 0x5a1e <__utoa_common+0x4>
    5a40:	b1 11       	cpse	r27, r1
    5a42:	b1 93       	st	Z+, r27
    5a44:	11 92       	st	Z+, r1
    5a46:	cb 01       	movw	r24, r22
    5a48:	00 c0       	rjmp	.+0      	; 0x5a4a <strrev>

00005a4a <strrev>:
    5a4a:	dc 01       	movw	r26, r24
    5a4c:	fc 01       	movw	r30, r24
    5a4e:	67 2f       	mov	r22, r23
    5a50:	71 91       	ld	r23, Z+
    5a52:	77 23       	and	r23, r23
    5a54:	e1 f7       	brne	.-8      	; 0x5a4e <strrev+0x4>
    5a56:	32 97       	sbiw	r30, 0x02	; 2
    5a58:	04 c0       	rjmp	.+8      	; 0x5a62 <strrev+0x18>
    5a5a:	7c 91       	ld	r23, X
    5a5c:	6d 93       	st	X+, r22
    5a5e:	70 83       	st	Z, r23
    5a60:	62 91       	ld	r22, -Z
    5a62:	ae 17       	cp	r26, r30
    5a64:	bf 07       	cpc	r27, r31
    5a66:	c8 f3       	brcs	.-14     	; 0x5a5a <strrev+0x10>
    5a68:	08 95       	ret

00005a6a <__do_global_dtors>:
    5a6a:	16 e0       	ldi	r17, 0x06	; 6
    5a6c:	c0 e2       	ldi	r28, 0x20	; 32
    5a6e:	d6 e0       	ldi	r29, 0x06	; 6
    5a70:	00 e0       	ldi	r16, 0x00	; 0
    5a72:	05 c0       	rjmp	.+10     	; 0x5a7e <__do_global_dtors+0x14>
    5a74:	80 2f       	mov	r24, r16
    5a76:	fe 01       	movw	r30, r28
    5a78:	90 dd       	rcall	.-1248   	; 0x559a <__tablejump2__>
    5a7a:	21 96       	adiw	r28, 0x01	; 1
    5a7c:	01 1d       	adc	r16, r1
    5a7e:	c1 32       	cpi	r28, 0x21	; 33
    5a80:	d1 07       	cpc	r29, r17
    5a82:	80 e0       	ldi	r24, 0x00	; 0
    5a84:	08 07       	cpc	r16, r24
    5a86:	b1 f7       	brne	.-20     	; 0x5a74 <__do_global_dtors+0xa>
    5a88:	f8 94       	cli

00005a8a <__stop_program>:
    5a8a:	ff cf       	rjmp	.-2      	; 0x5a8a <__stop_program>
